
aleph-boot.elf:     file format elf32-avr32

Sections:
Idx Name          Size      VMA       LMA       File off  Algn
  0 .reset        00002008  80000000  80000000  00000400  2**2
                  CONTENTS, ALLOC, LOAD, READONLY, CODE
  1 .rela.got     00000000  80002008  80002008  00002408  2**2
                  CONTENTS, ALLOC, LOAD, READONLY, DATA
  2 .text         00008acc  80002008  80002008  00002408  2**2
                  CONTENTS, ALLOC, LOAD, READONLY, CODE
  3 .exception    00000200  8000ac00  8000ac00  0000b000  2**9
                  CONTENTS, ALLOC, LOAD, READONLY, CODE
  4 .rodata       00000cc0  8000ae00  8000ae00  0000b200  2**2
                  CONTENTS, ALLOC, LOAD, READONLY, DATA
  5 .dalign       00000004  00000004  00000004  00000000  2**0
                  ALLOC
  6 .data         00000024  00000008  8000bac0  0000c008  2**2
                  CONTENTS, ALLOC, LOAD, DATA
  7 .balign       00000004  0000002c  8000bae4  0000c02c  2**0
                  ALLOC
  8 .bss          00002a58  00000030  00000030  00000000  2**2
                  ALLOC
  9 .heap         0000c578  00002a88  00002a88  00000000  2**0
                  ALLOC
 10 .comment      00000030  00000000  00000000  0000c02c  2**0
                  CONTENTS, READONLY
 11 .debug_frame  00002b64  00000000  00000000  0000c05c  2**2
                  CONTENTS, READONLY, DEBUGGING
 12 .stack        00001000  0000f000  0000f000  00000000  2**0
                  ALLOC

Disassembly of section .reset:

80000000 <_trampoline>:
80000000:	e0 8f 10 00 	bral	80002000 <program_start>
	...

80002000 <program_start>:
80002000:	fe ff 00 04 	ld.w	pc,pc[4]
80002004:	80 00       	ld.sh	r0,r0[0x0]
80002006:	a5 4c       	asr	r12,0x4

Disassembly of section .text:

80002008 <smc_get_cs_size>:
80002008:	33 08       	mov	r8,48
8000200a:	f0 0c 07 0c 	ld.ub	r12,r8[r12]
8000200e:	5e fc       	retal	r12

80002010 <smc_init>:
80002010:	eb cd 40 c0 	pushm	r6-r7,lr
80002014:	fe 68 10 00 	mov	r8,-126976
80002018:	f0 f9 01 24 	ld.w	r9,r8[292]
8000201c:	a1 d9       	cbr	r9,0x1
8000201e:	f1 49 01 24 	st.w	r8[292],r9
80002022:	30 09       	mov	r9,0
80002024:	f0 f8 01 24 	ld.w	r8,r8[292]
80002028:	fe 68 1c 00 	mov	r8,-123904
8000202c:	91 49       	st.w	r8[0x10],r9
8000202e:	ee 79 42 3f 	mov	r9,999999
80002032:	e0 6e 4d d3 	mov	lr,19923
80002036:	ea 1e 10 62 	orh	lr,0x1062
8000203a:	f8 09 00 0b 	add	r11,r12,r9
8000203e:	e0 69 de 83 	mov	r9,56963
80002042:	ea 19 43 1b 	orh	r9,0x431b
80002046:	f6 09 06 4a 	mulu.d	r10,r11,r9
8000204a:	b3 8b       	lsr	r11,0x12
8000204c:	f6 07 10 52 	mul	r7,r11,82
80002050:	ee c7 fc 19 	sub	r7,r7,-999
80002054:	ee 0e 06 46 	mulu.d	r6,r7,lr
80002058:	0e 99       	mov	r9,r7
8000205a:	e0 67 00 a4 	mov	r7,164
8000205e:	a7 89       	lsr	r9,0x6
80002060:	f6 07 02 47 	mul	r7,r11,r7
80002064:	f2 0a 15 10 	lsl	r10,r9,0x10
80002068:	ee c7 fc 19 	sub	r7,r7,-999
8000206c:	f5 e9 10 8c 	or	r12,r10,r9<<0x8
80002070:	ee 0e 06 46 	mulu.d	r6,r7,lr
80002074:	12 4c       	or	r12,r9
80002076:	0e 9b       	mov	r11,r7
80002078:	f9 e9 11 8c 	or	r12,r12,r9<<0x18
8000207c:	a7 8b       	lsr	r11,0x6
8000207e:	91 5c       	st.w	r8[0x14],r12
80002080:	12 3b       	cp.w	r11,r9
80002082:	f6 09 17 20 	movhs	r9,r11
80002086:	12 4a       	or	r10,r9
80002088:	e0 69 10 03 	mov	r9,4099
8000208c:	91 6a       	st.w	r8[0x18],r10
8000208e:	91 79       	st.w	r8[0x1c],r9
80002090:	31 29       	mov	r9,18
80002092:	33 08       	mov	r8,48
80002094:	32 9b       	mov	r11,41
80002096:	b0 99       	st.b	r8[0x1],r9
80002098:	48 2c       	lddpc	r12,800020a0 <smc_init+0x90>
8000209a:	c9 7c       	rcall	800021c8 <gpio_enable_module>
8000209c:	e3 cd 80 c0 	ldm	sp++,r6-r7,pc
800020a0:	80 00       	ld.sh	r0,r0[0x0]
800020a2:	ae 00       	st.h	r7[0x0],r0

800020a4 <flashc_set_wait_state>:
800020a4:	fe 68 14 00 	mov	r8,-125952
800020a8:	70 09       	ld.w	r9,r8[0x0]
800020aa:	f3 dc d0 c1 	bfins	r9,r12,0x6,0x1
800020ae:	91 09       	st.w	r8[0x0],r9
800020b0:	5e fc       	retal	r12

800020b2 <flashc_set_bus_freq>:
800020b2:	e0 68 8a 3f 	mov	r8,35391
800020b6:	ea 18 01 f7 	orh	r8,0x1f7
800020ba:	10 3c       	cp.w	r12,r8
800020bc:	e0 8b 00 0a 	brhi	800020d0 <flashc_set_bus_freq+0x1e>
800020c0:	fe 68 14 00 	mov	r8,-125952
800020c4:	30 0a       	mov	r10,0
800020c6:	70 09       	ld.w	r9,r8[0x0]
800020c8:	f3 da d0 c1 	bfins	r9,r10,0x6,0x1
800020cc:	91 09       	st.w	r8[0x0],r9
800020ce:	5e fc       	retal	r12
800020d0:	fe 68 14 00 	mov	r8,-125952
800020d4:	30 1a       	mov	r10,1
800020d6:	70 09       	ld.w	r9,r8[0x0]
800020d8:	f3 da d0 c1 	bfins	r9,r10,0x6,0x1
800020dc:	91 09       	st.w	r8[0x0],r9
800020de:	5e fc       	retal	r12

800020e0 <gpio_enable_pin_pull_up>:
800020e0:	30 18       	mov	r8,1
800020e2:	f0 0c 09 48 	lsl	r8,r8,r12
800020e6:	a5 9c       	lsr	r12,0x5
800020e8:	a9 6c       	lsl	r12,0x8
800020ea:	e0 2c f0 00 	sub	r12,61440
800020ee:	f9 48 00 74 	st.w	r12[116],r8
800020f2:	5e fc       	retal	r12

800020f4 <gpio_get_pin_value>:
800020f4:	f8 08 16 05 	lsr	r8,r12,0x5
800020f8:	a9 68       	lsl	r8,0x8
800020fa:	e0 28 f0 00 	sub	r8,61440
800020fe:	71 88       	ld.w	r8,r8[0x60]
80002100:	f0 0c 0a 4c 	lsr	r12,r8,r12
80002104:	f9 dc c0 01 	bfextu	r12,r12,0x0,0x1
80002108:	5e fc       	retal	r12

8000210a <gpio_set_gpio_pin>:
8000210a:	30 18       	mov	r8,1
8000210c:	f0 0c 09 48 	lsl	r8,r8,r12
80002110:	a5 9c       	lsr	r12,0x5
80002112:	a9 6c       	lsl	r12,0x8
80002114:	e0 2c f0 00 	sub	r12,61440
80002118:	f9 48 00 54 	st.w	r12[84],r8
8000211c:	f9 48 00 44 	st.w	r12[68],r8
80002120:	99 18       	st.w	r12[0x4],r8
80002122:	5e fc       	retal	r12

80002124 <gpio_clr_gpio_pin>:
80002124:	30 18       	mov	r8,1
80002126:	f0 0c 09 48 	lsl	r8,r8,r12
8000212a:	a5 9c       	lsr	r12,0x5
8000212c:	a9 6c       	lsl	r12,0x8
8000212e:	e0 2c f0 00 	sub	r12,61440
80002132:	f9 48 00 58 	st.w	r12[88],r8
80002136:	f9 48 00 44 	st.w	r12[68],r8
8000213a:	99 18       	st.w	r12[0x4],r8
8000213c:	5e fc       	retal	r12

8000213e <gpio_enable_pin_glitch_filter>:
8000213e:	30 18       	mov	r8,1
80002140:	f0 0c 09 48 	lsl	r8,r8,r12
80002144:	a5 9c       	lsr	r12,0x5
80002146:	a9 6c       	lsl	r12,0x8
80002148:	e0 2c f0 00 	sub	r12,61440
8000214c:	f9 48 00 c4 	st.w	r12[196],r8
80002150:	5e fc       	retal	r12

80002152 <gpio_enable_pin_interrupt>:
80002152:	30 1a       	mov	r10,1
80002154:	f8 08 16 05 	lsr	r8,r12,0x5
80002158:	f4 0c 09 49 	lsl	r9,r10,r12
8000215c:	a9 68       	lsl	r8,0x8
8000215e:	e0 28 f0 00 	sub	r8,61440
80002162:	f1 49 00 c4 	st.w	r8[196],r9
80002166:	14 3b       	cp.w	r11,r10
80002168:	c0 c0       	breq	80002180 <gpio_enable_pin_interrupt+0x2e>
8000216a:	c0 82       	brcc	8000217a <gpio_enable_pin_interrupt+0x28>
8000216c:	f1 49 00 a8 	st.w	r8[168],r9
80002170:	f1 49 00 b8 	st.w	r8[184],r9
80002174:	f1 49 00 94 	st.w	r8[148],r9
80002178:	5e fd       	retal	0
8000217a:	58 2b       	cp.w	r11,2
8000217c:	c0 90       	breq	8000218e <gpio_enable_pin_interrupt+0x3c>
8000217e:	5e fa       	retal	r10
80002180:	f1 49 00 a4 	st.w	r8[164],r9
80002184:	f1 49 00 b8 	st.w	r8[184],r9
80002188:	f1 49 00 94 	st.w	r8[148],r9
8000218c:	5e fd       	retal	0
8000218e:	f1 49 00 a8 	st.w	r8[168],r9
80002192:	f1 49 00 b4 	st.w	r8[180],r9
80002196:	f1 49 00 94 	st.w	r8[148],r9
8000219a:	5e fd       	retal	0

8000219c <gpio_get_pin_interrupt_flag>:
8000219c:	f8 08 16 05 	lsr	r8,r12,0x5
800021a0:	a9 68       	lsl	r8,0x8
800021a2:	e0 28 f0 00 	sub	r8,61440
800021a6:	f0 f8 00 d0 	ld.w	r8,r8[208]
800021aa:	f0 0c 0a 4c 	lsr	r12,r8,r12
800021ae:	f9 dc c0 01 	bfextu	r12,r12,0x0,0x1
800021b2:	5e fc       	retal	r12

800021b4 <gpio_clear_pin_interrupt_flag>:
800021b4:	30 18       	mov	r8,1
800021b6:	f0 0c 09 48 	lsl	r8,r8,r12
800021ba:	a5 9c       	lsr	r12,0x5
800021bc:	a9 6c       	lsl	r12,0x8
800021be:	e0 2c f0 00 	sub	r12,61440
800021c2:	f9 48 00 d8 	st.w	r12[216],r8
800021c6:	5e fc       	retal	r12

800021c8 <gpio_enable_module>:
800021c8:	eb cd 40 c0 	pushm	r6-r7,lr
800021cc:	18 98       	mov	r8,r12
800021ce:	58 0b       	cp.w	r11,0
800021d0:	c3 60       	breq	8000223c <gpio_enable_module+0x74>
800021d2:	30 0e       	mov	lr,0
800021d4:	30 16       	mov	r6,1
800021d6:	1c 9c       	mov	r12,lr
800021d8:	c0 d8       	rjmp	800021f2 <gpio_enable_module+0x2a>
800021da:	ec 07 09 4a 	lsl	r10,r6,r7
800021de:	93 6a       	st.w	r9[0x18],r10
800021e0:	93 aa       	st.w	r9[0x28],r10
800021e2:	93 2a       	st.w	r9[0x8],r10
800021e4:	2f fe       	sub	lr,-1
800021e6:	30 09       	mov	r9,0
800021e8:	12 4c       	or	r12,r9
800021ea:	1c 3b       	cp.w	r11,lr
800021ec:	e0 88 00 17 	brls	8000221a <gpio_enable_module+0x52>
800021f0:	2f 88       	sub	r8,-8
800021f2:	70 07       	ld.w	r7,r8[0x0]
800021f4:	70 1a       	ld.w	r10,r8[0x4]
800021f6:	ee 09 16 05 	lsr	r9,r7,0x5
800021fa:	a9 69       	lsl	r9,0x8
800021fc:	e0 29 f0 00 	sub	r9,61440
80002200:	58 1a       	cp.w	r10,1
80002202:	c0 e0       	breq	8000221e <gpio_enable_module+0x56>
80002204:	ce b3       	brcs	800021da <gpio_enable_module+0x12>
80002206:	58 2a       	cp.w	r10,2
80002208:	c1 50       	breq	80002232 <gpio_enable_module+0x6a>
8000220a:	58 3a       	cp.w	r10,3
8000220c:	c0 e0       	breq	80002228 <gpio_enable_module+0x60>
8000220e:	30 19       	mov	r9,1
80002210:	2f fe       	sub	lr,-1
80002212:	12 4c       	or	r12,r9
80002214:	1c 3b       	cp.w	r11,lr
80002216:	fe 9b ff ed 	brhi	800021f0 <gpio_enable_module+0x28>
8000221a:	e3 cd 80 c0 	ldm	sp++,r6-r7,pc
8000221e:	f4 07 09 4a 	lsl	r10,r10,r7
80002222:	93 5a       	st.w	r9[0x14],r10
80002224:	93 aa       	st.w	r9[0x28],r10
80002226:	cd eb       	rjmp	800021e2 <gpio_enable_module+0x1a>
80002228:	ec 07 09 4a 	lsl	r10,r6,r7
8000222c:	93 5a       	st.w	r9[0x14],r10
8000222e:	93 9a       	st.w	r9[0x24],r10
80002230:	cd 9b       	rjmp	800021e2 <gpio_enable_module+0x1a>
80002232:	ec 07 09 4a 	lsl	r10,r6,r7
80002236:	93 6a       	st.w	r9[0x18],r10
80002238:	93 9a       	st.w	r9[0x24],r10
8000223a:	cd 4b       	rjmp	800021e2 <gpio_enable_module+0x1a>
8000223c:	16 9c       	mov	r12,r11
8000223e:	ce eb       	rjmp	8000221a <gpio_enable_module+0x52>

80002240 <_unhandled_interrupt>:
80002240:	c0 08       	rjmp	80002240 <_unhandled_interrupt>
80002242:	d7 03       	nop

80002244 <INTC_register_interrupt>:
80002244:	f3 db c0 05 	bfextu	r9,r11,0x0,0x5
80002248:	49 b8       	lddpc	r8,800022b4 <INTC_register_interrupt+0x70>
8000224a:	a5 9b       	lsr	r11,0x5
8000224c:	f0 0b 00 38 	add	r8,r8,r11<<0x3
80002250:	70 18       	ld.w	r8,r8[0x4]
80002252:	f0 09 09 2c 	st.w	r8[r9<<0x2],r12
80002256:	58 0a       	cp.w	r10,0
80002258:	c1 00       	breq	80002278 <INTC_register_interrupt+0x34>
8000225a:	58 1a       	cp.w	r10,1
8000225c:	c1 70       	breq	8000228a <INTC_register_interrupt+0x46>
8000225e:	58 2a       	cp.w	r10,2
80002260:	c1 f0       	breq	8000229e <INTC_register_interrupt+0x5a>
80002262:	49 69       	lddpc	r9,800022b8 <INTC_register_interrupt+0x74>
80002264:	49 68       	lddpc	r8,800022bc <INTC_register_interrupt+0x78>
80002266:	f2 08 01 08 	sub	r8,r9,r8
8000226a:	fe 79 08 00 	mov	r9,-63488
8000226e:	ea 18 c0 00 	orh	r8,0xc000
80002272:	f2 0b 09 28 	st.w	r9[r11<<0x2],r8
80002276:	5e fc       	retal	r12
80002278:	fe 78 08 00 	mov	r8,-63488
8000227c:	49 09       	lddpc	r9,800022bc <INTC_register_interrupt+0x78>
8000227e:	49 1a       	lddpc	r10,800022c0 <INTC_register_interrupt+0x7c>
80002280:	f4 09 01 09 	sub	r9,r10,r9
80002284:	f0 0b 09 29 	st.w	r8[r11<<0x2],r9
80002288:	5e fc       	retal	r12
8000228a:	48 f9       	lddpc	r9,800022c4 <INTC_register_interrupt+0x80>
8000228c:	48 c8       	lddpc	r8,800022bc <INTC_register_interrupt+0x78>
8000228e:	f2 08 01 08 	sub	r8,r9,r8
80002292:	fe 79 08 00 	mov	r9,-63488
80002296:	bf a8       	sbr	r8,0x1e
80002298:	f2 0b 09 28 	st.w	r9[r11<<0x2],r8
8000229c:	5e fc       	retal	r12
8000229e:	48 b9       	lddpc	r9,800022c8 <INTC_register_interrupt+0x84>
800022a0:	48 78       	lddpc	r8,800022bc <INTC_register_interrupt+0x78>
800022a2:	f2 08 01 08 	sub	r8,r9,r8
800022a6:	fe 79 08 00 	mov	r9,-63488
800022aa:	bf b8       	sbr	r8,0x1f
800022ac:	f2 0b 09 28 	st.w	r9[r11<<0x2],r8
800022b0:	5e fc       	retal	r12
800022b2:	d7 03       	nop
800022b4:	80 00       	ld.sh	r0,r0[0x0]
800022b6:	af 48       	asr	r8,0xe
800022b8:	80 00       	ld.sh	r0,r0[0x0]
800022ba:	ad 2e       	st.d	r6++,lr
800022bc:	80 00       	ld.sh	r0,r0[0x0]
800022be:	ac 00       	st.h	r6[0x0],r0
800022c0:	80 00       	ld.sh	r0,r0[0x0]
800022c2:	ad 04       	ld.d	r4,r6
800022c4:	80 00       	ld.sh	r0,r0[0x0]
800022c6:	ad 12       	ld.d	r2,--r6
800022c8:	80 00       	ld.sh	r0,r0[0x0]
800022ca:	ad 20       	st.d	r6++,r0

800022cc <INTC_init_interrupts>:
800022cc:	eb cd 40 e0 	pushm	r5-r7,lr
800022d0:	48 f8       	lddpc	r8,8000230c <INTC_init_interrupts+0x40>
800022d2:	e3 b8 00 01 	mtsr	0x4,r8
800022d6:	48 f5       	lddpc	r5,80002310 <INTC_init_interrupts+0x44>
800022d8:	48 f7       	lddpc	r7,80002314 <INTC_init_interrupts+0x48>
800022da:	10 15       	sub	r5,r8
800022dc:	30 0e       	mov	lr,0
800022de:	fe cc 00 9e 	sub	r12,pc,158
800022e2:	fe 76 08 00 	mov	r6,-63488
800022e6:	6e 0a       	ld.w	r10,r7[0x0]
800022e8:	58 0a       	cp.w	r10,0
800022ea:	c0 90       	breq	800022fc <INTC_init_interrupts+0x30>
800022ec:	30 08       	mov	r8,0
800022ee:	6e 1b       	ld.w	r11,r7[0x4]
800022f0:	f6 08 09 2c 	st.w	r11[r8<<0x2],r12
800022f4:	2f f8       	sub	r8,-1
800022f6:	10 3a       	cp.w	r10,r8
800022f8:	fe 9b ff fc 	brhi	800022f0 <INTC_init_interrupts+0x24>
800022fc:	ec 0e 09 25 	st.w	r6[lr<<0x2],r5
80002300:	2f 87       	sub	r7,-8
80002302:	2f fe       	sub	lr,-1
80002304:	59 4e       	cp.w	lr,20
80002306:	cf 01       	brne	800022e6 <INTC_init_interrupts+0x1a>
80002308:	e3 cd 80 e0 	ldm	sp++,r5-r7,pc
8000230c:	80 00       	ld.sh	r0,r0[0x0]
8000230e:	ac 00       	st.h	r6[0x0],r0
80002310:	80 00       	ld.sh	r0,r0[0x0]
80002312:	ad 04       	ld.d	r4,r6
80002314:	80 00       	ld.sh	r0,r0[0x0]
80002316:	af 48       	asr	r8,0xe

80002318 <_get_interrupt_handler>:
80002318:	e0 68 00 83 	mov	r8,131
8000231c:	f0 0c 01 0c 	sub	r12,r8,r12
80002320:	fe 78 08 00 	mov	r8,-63488
80002324:	f0 0c 03 29 	ld.w	r9,r8[r12<<0x2]
80002328:	f2 ca ff c0 	sub	r10,r9,-64
8000232c:	f0 0a 03 2c 	ld.w	r12,r8[r10<<0x2]
80002330:	58 0c       	cp.w	r12,0
80002332:	5e 0c       	reteq	r12
80002334:	48 68       	lddpc	r8,8000234c <_get_interrupt_handler+0x34>
80002336:	f8 0c 12 00 	clz	r12,r12
8000233a:	f0 09 00 39 	add	r9,r8,r9<<0x3
8000233e:	f8 0c 11 1f 	rsub	r12,r12,31
80002342:	72 18       	ld.w	r8,r9[0x4]
80002344:	f0 0c 03 2c 	ld.w	r12,r8[r12<<0x2]
80002348:	5e fc       	retal	r12
8000234a:	d7 03       	nop
8000234c:	80 00       	ld.sh	r0,r0[0x0]
8000234e:	af 48       	asr	r8,0xe

80002350 <pdca_get_handler>:
80002350:	30 e8       	mov	r8,14
80002352:	f0 0c 18 00 	cp.b	r12,r8
80002356:	e0 8b 00 06 	brhi	80002362 <pdca_get_handler+0x12>
8000235a:	a7 6c       	lsl	r12,0x6
8000235c:	e0 3c 00 00 	sub	r12,65536
80002360:	5e fc       	retal	r12
80002362:	5e fe       	retal	-1

80002364 <pdca_disable>:
80002364:	30 e8       	mov	r8,14
80002366:	f0 0c 18 00 	cp.b	r12,r8
8000236a:	e0 8b 00 08 	brhi	8000237a <pdca_disable+0x16>
8000236e:	a7 6c       	lsl	r12,0x6
80002370:	30 28       	mov	r8,2
80002372:	e0 3c 00 00 	sub	r12,65536
80002376:	99 58       	st.w	r12[0x14],r8
80002378:	5e fc       	retal	r12
8000237a:	3f fc       	mov	r12,-1
8000237c:	30 28       	mov	r8,2
8000237e:	99 58       	st.w	r12[0x14],r8
80002380:	5e fc       	retal	r12

80002382 <pdca_enable_interrupt_transfer_complete>:
80002382:	30 e8       	mov	r8,14
80002384:	f0 0c 18 00 	cp.b	r12,r8
80002388:	e0 8b 00 08 	brhi	80002398 <pdca_enable_interrupt_transfer_complete+0x16>
8000238c:	a7 6c       	lsl	r12,0x6
8000238e:	30 28       	mov	r8,2
80002390:	e0 3c 00 00 	sub	r12,65536
80002394:	99 88       	st.w	r12[0x20],r8
80002396:	5e fc       	retal	r12
80002398:	3f fc       	mov	r12,-1
8000239a:	30 28       	mov	r8,2
8000239c:	99 88       	st.w	r12[0x20],r8
8000239e:	5e fc       	retal	r12

800023a0 <pdca_disable_interrupt_transfer_complete>:
800023a0:	30 e8       	mov	r8,14
800023a2:	f0 0c 18 00 	cp.b	r12,r8
800023a6:	e0 88 00 0e 	brls	800023c2 <pdca_disable_interrupt_transfer_complete+0x22>
800023aa:	3f fc       	mov	r12,-1
800023ac:	e1 b8 00 00 	mfsr	r8,0x0
800023b0:	d3 03       	ssrf	0x10
800023b2:	30 29       	mov	r9,2
800023b4:	99 99       	st.w	r12[0x24],r9
800023b6:	78 b9       	ld.w	r9,r12[0x2c]
800023b8:	ed b8 00 10 	bld	r8,0x10
800023bc:	c0 20       	breq	800023c0 <pdca_disable_interrupt_transfer_complete+0x20>
800023be:	d5 03       	csrf	0x10
800023c0:	5e fc       	retal	r12
800023c2:	a7 6c       	lsl	r12,0x6
800023c4:	e0 3c 00 00 	sub	r12,65536
800023c8:	cf 2b       	rjmp	800023ac <pdca_disable_interrupt_transfer_complete+0xc>

800023ca <pdca_load_channel>:
800023ca:	30 e8       	mov	r8,14
800023cc:	f0 0c 18 00 	cp.b	r12,r8
800023d0:	e0 88 00 11 	brls	800023f2 <pdca_load_channel+0x28>
800023d4:	3f fc       	mov	r12,-1
800023d6:	e1 b8 00 00 	mfsr	r8,0x0
800023da:	d3 03       	ssrf	0x10
800023dc:	99 0b       	st.w	r12[0x0],r11
800023de:	99 2a       	st.w	r12[0x8],r10
800023e0:	e0 69 01 00 	mov	r9,256
800023e4:	99 59       	st.w	r12[0x14],r9
800023e6:	78 b9       	ld.w	r9,r12[0x2c]
800023e8:	ed b8 00 10 	bld	r8,0x10
800023ec:	c0 20       	breq	800023f0 <pdca_load_channel+0x26>
800023ee:	d5 03       	csrf	0x10
800023f0:	5e fc       	retal	r12
800023f2:	a7 6c       	lsl	r12,0x6
800023f4:	e0 3c 00 00 	sub	r12,65536
800023f8:	ce fb       	rjmp	800023d6 <pdca_load_channel+0xc>

800023fa <pdca_init_channel>:
800023fa:	eb cd 40 80 	pushm	r7,lr
800023fe:	30 e8       	mov	r8,14
80002400:	f8 09 15 06 	lsl	r9,r12,0x6
80002404:	e0 39 00 00 	sub	r9,65536
80002408:	f0 0c 18 00 	cp.b	r12,r8
8000240c:	f9 b8 0b ff 	movhi	r8,-1
80002410:	f0 0e 17 b0 	movhi	lr,r8
80002414:	f2 08 17 80 	movls	r8,r9
80002418:	f2 0e 17 80 	movls	lr,r9
8000241c:	e1 ba 00 00 	mfsr	r10,0x0
80002420:	d3 03       	ssrf	0x10
80002422:	30 27       	mov	r7,2
80002424:	9d 97       	st.w	lr[0x24],r7
80002426:	7c be       	ld.w	lr,lr[0x2c]
80002428:	ed ba 00 10 	bld	r10,0x10
8000242c:	c0 20       	breq	80002430 <pdca_init_channel+0x36>
8000242e:	d5 03       	csrf	0x10
80002430:	30 ea       	mov	r10,14
80002432:	f8 0a 18 00 	cp.b	r10,r12
80002436:	f9 b9 03 ff 	movlo	r9,-1
8000243a:	e1 ba 00 00 	mfsr	r10,0x0
8000243e:	d3 03       	ssrf	0x10
80002440:	30 1c       	mov	r12,1
80002442:	93 9c       	st.w	r9[0x24],r12
80002444:	72 b9       	ld.w	r9,r9[0x2c]
80002446:	ed ba 00 10 	bld	r10,0x10
8000244a:	c0 20       	breq	8000244e <pdca_init_channel+0x54>
8000244c:	d5 03       	csrf	0x10
8000244e:	e1 b9 00 00 	mfsr	r9,0x0
80002452:	d3 03       	ssrf	0x10
80002454:	76 0a       	ld.w	r10,r11[0x0]
80002456:	91 0a       	st.w	r8[0x0],r10
80002458:	76 1a       	ld.w	r10,r11[0x4]
8000245a:	91 2a       	st.w	r8[0x8],r10
8000245c:	76 4a       	ld.w	r10,r11[0x10]
8000245e:	91 1a       	st.w	r8[0x4],r10
80002460:	76 2a       	ld.w	r10,r11[0x8]
80002462:	91 3a       	st.w	r8[0xc],r10
80002464:	76 3a       	ld.w	r10,r11[0xc]
80002466:	91 4a       	st.w	r8[0x10],r10
80002468:	76 5a       	ld.w	r10,r11[0x14]
8000246a:	91 6a       	st.w	r8[0x18],r10
8000246c:	e0 6a 01 00 	mov	r10,256
80002470:	91 5a       	st.w	r8[0x14],r10
80002472:	70 b8       	ld.w	r8,r8[0x2c]
80002474:	ed b9 00 10 	bld	r9,0x10
80002478:	c0 20       	breq	8000247c <pdca_init_channel+0x82>
8000247a:	d5 03       	csrf	0x10
8000247c:	e3 cf 80 80 	ldm	sp++,r7,pc,r12=0

80002480 <getBaudDiv>:
80002480:	f8 c8 00 01 	sub	r8,r12,1
80002484:	f0 0b 00 0b 	add	r11,r8,r11
80002488:	f6 0c 0d 0a 	divu	r10,r11,r12
8000248c:	14 9c       	mov	r12,r10
8000248e:	f4 c8 00 01 	sub	r8,r10,1
80002492:	e0 48 00 fe 	cp.w	r8,254
80002496:	e0 8b 00 04 	brhi	8000249e <getBaudDiv+0x1e>
8000249a:	5c 8c       	casts.h	r12
8000249c:	5e fc       	retal	r12
8000249e:	5e fe       	retal	-1

800024a0 <spi_initMaster>:
800024a0:	d4 01       	pushm	lr
800024a2:	30 18       	mov	r8,1
800024a4:	18 99       	mov	r9,r12
800024a6:	f7 3a 00 0d 	ld.ub	r10,r11[13]
800024aa:	f0 0a 18 00 	cp.b	r10,r8
800024ae:	e0 88 00 04 	brls	800024b6 <spi_initMaster+0x16>
800024b2:	30 2c       	mov	r12,2
800024b4:	d8 02       	popm	pc
800024b6:	30 0a       	mov	r10,0
800024b8:	e0 68 00 80 	mov	r8,128
800024bc:	99 08       	st.w	r12[0x0],r8
800024be:	30 1e       	mov	lr,1
800024c0:	78 18       	ld.w	r8,r12[0x4]
800024c2:	f7 3b 00 0d 	ld.ub	r11,r11[13]
800024c6:	14 9c       	mov	r12,r10
800024c8:	f1 de d0 01 	bfins	r8,lr,0x0,0x1
800024cc:	f1 db d0 81 	bfins	r8,r11,0x4,0x1
800024d0:	f1 da d0 e1 	bfins	r8,r10,0x7,0x1
800024d4:	30 fa       	mov	r10,15
800024d6:	f1 da d2 04 	bfins	r8,r10,0x10,0x4
800024da:	93 18       	st.w	r9[0x4],r8
800024dc:	d8 02       	popm	pc

800024de <spi_selectionMode>:
800024de:	d4 01       	pushm	lr
800024e0:	30 18       	mov	r8,1
800024e2:	f0 0b 18 00 	cp.b	r11,r8
800024e6:	5f be       	srhi	lr
800024e8:	f0 0a 18 00 	cp.b	r10,r8
800024ec:	5f b8       	srhi	r8
800024ee:	1c 48       	or	r8,lr
800024f0:	c0 a1       	brne	80002504 <spi_selectionMode+0x26>
800024f2:	78 18       	ld.w	r8,r12[0x4]
800024f4:	f1 db d0 21 	bfins	r8,r11,0x1,0x1
800024f8:	f1 da d0 41 	bfins	r8,r10,0x2,0x1
800024fc:	f1 d9 d3 08 	bfins	r8,r9,0x18,0x8
80002500:	99 18       	st.w	r12[0x4],r8
80002502:	d8 0a       	popm	pc,r12=0
80002504:	30 2c       	mov	r12,2
80002506:	d8 02       	popm	pc

80002508 <spi_selectChip>:
80002508:	78 19       	ld.w	r9,r12[0x4]
8000250a:	18 98       	mov	r8,r12
8000250c:	ea 19 00 0f 	orh	r9,0xf
80002510:	99 19       	st.w	r12[0x4],r9
80002512:	78 1c       	ld.w	r12,r12[0x4]
80002514:	e2 1c 00 04 	andl	r12,0x4,COH
80002518:	c0 80       	breq	80002528 <spi_selectChip+0x20>
8000251a:	30 e9       	mov	r9,14
8000251c:	f2 0b 18 00 	cp.b	r11,r9
80002520:	e0 88 00 12 	brls	80002544 <spi_selectChip+0x3c>
80002524:	30 2c       	mov	r12,2
80002526:	5e fc       	retal	r12
80002528:	30 39       	mov	r9,3
8000252a:	f2 0b 18 00 	cp.b	r11,r9
8000252e:	fe 9b ff fb 	brhi	80002524 <spi_selectChip+0x1c>
80002532:	70 19       	ld.w	r9,r8[0x4]
80002534:	2f 0b       	sub	r11,-16
80002536:	30 1a       	mov	r10,1
80002538:	f4 0b 09 4b 	lsl	r11,r10,r11
8000253c:	5c db       	com	r11
8000253e:	12 6b       	and	r11,r9
80002540:	91 1b       	st.w	r8[0x4],r11
80002542:	5e fc       	retal	r12
80002544:	70 19       	ld.w	r9,r8[0x4]
80002546:	b1 6b       	lsl	r11,0x10
80002548:	30 0c       	mov	r12,0
8000254a:	ea 1b ff f0 	orh	r11,0xfff0
8000254e:	e8 1b ff ff 	orl	r11,0xffff
80002552:	12 6b       	and	r11,r9
80002554:	91 1b       	st.w	r8[0x4],r11
80002556:	5e fc       	retal	r12

80002558 <spi_unselectChip>:
80002558:	30 09       	mov	r9,0
8000255a:	c0 58       	rjmp	80002564 <spi_unselectChip+0xc>
8000255c:	2f f9       	sub	r9,-1
8000255e:	e0 49 3a 99 	cp.w	r9,15001
80002562:	c0 d0       	breq	8000257c <spi_unselectChip+0x24>
80002564:	78 48       	ld.w	r8,r12[0x10]
80002566:	ed b8 00 09 	bld	r8,0x9
8000256a:	cf 91       	brne	8000255c <spi_unselectChip+0x4>
8000256c:	78 18       	ld.w	r8,r12[0x4]
8000256e:	ea 18 00 0f 	orh	r8,0xf
80002572:	99 18       	st.w	r12[0x4],r8
80002574:	fc 18 01 00 	movh	r8,0x100
80002578:	99 08       	st.w	r12[0x0],r8
8000257a:	5e fd       	retal	0
8000257c:	5e ff       	retal	1
8000257e:	d7 03       	nop

80002580 <spi_setupChipReg>:
80002580:	eb cd 40 fe 	pushm	r1-r7,lr
80002584:	30 34       	mov	r4,3
80002586:	16 97       	mov	r7,r11
80002588:	18 96       	mov	r6,r12
8000258a:	f7 35 00 0c 	ld.ub	r5,r11[12]
8000258e:	e8 05 18 00 	cp.b	r5,r4
80002592:	e0 8b 00 09 	brhi	800025a4 <spi_setupChipReg+0x24>
80002596:	f7 32 00 0b 	ld.ub	r2,r11[11]
8000259a:	30 13       	mov	r3,1
8000259c:	e6 02 18 00 	cp.b	r2,r3
800025a0:	e0 88 00 05 	brls	800025aa <spi_setupChipReg+0x2a>
800025a4:	30 2c       	mov	r12,2
800025a6:	e3 cd 80 fe 	ldm	sp++,r1-r7,pc
800025aa:	f7 31 00 08 	ld.ub	r1,r11[8]
800025ae:	30 78       	mov	r8,7
800025b0:	f0 01 18 00 	cp.b	r1,r8
800025b4:	fe 98 ff f8 	brls	800025a4 <spi_setupChipReg+0x24>
800025b8:	31 08       	mov	r8,16
800025ba:	f0 01 18 00 	cp.b	r1,r8
800025be:	fe 9b ff f3 	brhi	800025a4 <spi_setupChipReg+0x24>
800025c2:	14 9b       	mov	r11,r10
800025c4:	6e 1c       	ld.w	r12,r7[0x4]
800025c6:	c5 df       	rcall	80002480 <getBaudDiv>
800025c8:	ce e5       	brlt	800025a4 <spi_setupChipReg+0x24>
800025ca:	0a 9a       	mov	r10,r5
800025cc:	ec 1a 00 01 	eorl	r10,0x1
800025d0:	30 08       	mov	r8,0
800025d2:	a1 95       	lsr	r5,0x1
800025d4:	f1 d5 d0 01 	bfins	r8,r5,0x0,0x1
800025d8:	f1 da d0 21 	bfins	r8,r10,0x1,0x1
800025dc:	ef 3a 00 09 	ld.ub	r10,r7[9]
800025e0:	20 81       	sub	r1,8
800025e2:	f1 d2 d0 61 	bfins	r8,r2,0x3,0x1
800025e6:	0f 89       	ld.ub	r9,r7[0x0]
800025e8:	f1 d1 d0 84 	bfins	r8,r1,0x4,0x4
800025ec:	f1 dc d1 08 	bfins	r8,r12,0x8,0x8
800025f0:	f1 da d2 08 	bfins	r8,r10,0x10,0x8
800025f4:	ef 3a 00 0a 	ld.ub	r10,r7[10]
800025f8:	f1 da d3 08 	bfins	r8,r10,0x18,0x8
800025fc:	e6 09 18 00 	cp.b	r9,r3
80002600:	c0 f0       	breq	8000261e <spi_setupChipReg+0x9e>
80002602:	c0 b3       	brcs	80002618 <spi_setupChipReg+0x98>
80002604:	30 2a       	mov	r10,2
80002606:	f4 09 18 00 	cp.b	r9,r10
8000260a:	c0 d0       	breq	80002624 <spi_setupChipReg+0xa4>
8000260c:	e8 09 18 00 	cp.b	r9,r4
80002610:	cc a1       	brne	800025a4 <spi_setupChipReg+0x24>
80002612:	8d f8       	st.w	r6[0x3c],r8
80002614:	e3 cf 80 fe 	ldm	sp++,r1-r7,pc,r12=0
80002618:	8d c8       	st.w	r6[0x30],r8
8000261a:	e3 cf 80 fe 	ldm	sp++,r1-r7,pc,r12=0
8000261e:	8d d8       	st.w	r6[0x34],r8
80002620:	e3 cf 80 fe 	ldm	sp++,r1-r7,pc,r12=0
80002624:	8d e8       	st.w	r6[0x38],r8
80002626:	e3 cf 80 fe 	ldm	sp++,r1-r7,pc,r12=0
8000262a:	d7 03       	nop

8000262c <spi_enable>:
8000262c:	30 18       	mov	r8,1
8000262e:	99 08       	st.w	r12[0x0],r8
80002630:	5e fc       	retal	r12

80002632 <spi_write>:
80002632:	30 09       	mov	r9,0
80002634:	c0 58       	rjmp	8000263e <spi_write+0xc>
80002636:	2f f9       	sub	r9,-1
80002638:	e0 49 3a 99 	cp.w	r9,15001
8000263c:	c0 80       	breq	8000264c <spi_write+0x1a>
8000263e:	78 48       	ld.w	r8,r12[0x10]
80002640:	ed b8 00 01 	bld	r8,0x1
80002644:	cf 91       	brne	80002636 <spi_write+0x4>
80002646:	5c 7b       	castu.h	r11
80002648:	99 3b       	st.w	r12[0xc],r11
8000264a:	5e fd       	retal	0
8000264c:	5e ff       	retal	1

8000264e <spi_read>:
8000264e:	30 09       	mov	r9,0
80002650:	c0 58       	rjmp	8000265a <spi_read+0xc>
80002652:	2f f9       	sub	r9,-1
80002654:	e0 49 3a 99 	cp.w	r9,15001
80002658:	c0 b0       	breq	8000266e <spi_read+0x20>
8000265a:	78 48       	ld.w	r8,r12[0x10]
8000265c:	e2 18 02 01 	andl	r8,0x201,COH
80002660:	e0 48 02 01 	cp.w	r8,513
80002664:	cf 71       	brne	80002652 <spi_read+0x4>
80002666:	78 28       	ld.w	r8,r12[0x8]
80002668:	30 0c       	mov	r12,0
8000266a:	b6 08       	st.h	r11[0x0],r8
8000266c:	5e fc       	retal	r12
8000266e:	5e ff       	retal	1

80002670 <tc_init_waveform>:
80002670:	d4 01       	pushm	lr
80002672:	76 09       	ld.w	r9,r11[0x0]
80002674:	58 29       	cp.w	r9,2
80002676:	e0 8b 00 4b 	brhi	8000270c <tc_init_waveform+0x9c>
8000267a:	76 18       	ld.w	r8,r11[0x4]
8000267c:	10 9e       	mov	lr,r8
8000267e:	e6 1e c0 00 	andh	lr,0xc000,COH
80002682:	f5 d8 c0 03 	bfextu	r10,r8,0x0,0x3
80002686:	af ba       	sbr	r10,0xf
80002688:	1c 4a       	or	r10,lr
8000268a:	10 9e       	mov	lr,r8
8000268c:	e6 1e 30 00 	andh	lr,0x3000,COH
80002690:	1c 4a       	or	r10,lr
80002692:	10 9e       	mov	lr,r8
80002694:	e6 1e 0c 00 	andh	lr,0xc00,COH
80002698:	1c 4a       	or	r10,lr
8000269a:	10 9e       	mov	lr,r8
8000269c:	e6 1e 03 00 	andh	lr,0x300,COH
800026a0:	1c 4a       	or	r10,lr
800026a2:	10 9e       	mov	lr,r8
800026a4:	e6 1e 00 c0 	andh	lr,0xc0,COH
800026a8:	1c 4a       	or	r10,lr
800026aa:	10 9e       	mov	lr,r8
800026ac:	e6 1e 00 30 	andh	lr,0x30,COH
800026b0:	1c 4a       	or	r10,lr
800026b2:	10 9e       	mov	lr,r8
800026b4:	e6 1e 00 0c 	andh	lr,0xc,COH
800026b8:	1c 4a       	or	r10,lr
800026ba:	10 9e       	mov	lr,r8
800026bc:	e6 1e 00 03 	andh	lr,0x3,COH
800026c0:	1c 4a       	or	r10,lr
800026c2:	10 9e       	mov	lr,r8
800026c4:	e2 1e 60 00 	andl	lr,0x6000,COH
800026c8:	1c 4a       	or	r10,lr
800026ca:	10 9e       	mov	lr,r8
800026cc:	e2 1e 10 00 	andl	lr,0x1000,COH
800026d0:	1c 4a       	or	r10,lr
800026d2:	10 9e       	mov	lr,r8
800026d4:	e2 1e 0c 00 	andl	lr,0xc00,COH
800026d8:	1c 4a       	or	r10,lr
800026da:	10 9e       	mov	lr,r8
800026dc:	e2 1e 03 00 	andl	lr,0x300,COH
800026e0:	1c 4a       	or	r10,lr
800026e2:	10 9e       	mov	lr,r8
800026e4:	e2 1e 00 80 	andl	lr,0x80,COH
800026e8:	10 9b       	mov	r11,r8
800026ea:	1c 4a       	or	r10,lr
800026ec:	e2 1b 00 08 	andl	r11,0x8,COH
800026f0:	10 9e       	mov	lr,r8
800026f2:	a5 69       	lsl	r9,0x4
800026f4:	e2 1e 00 40 	andl	lr,0x40,COH
800026f8:	2f f9       	sub	r9,-1
800026fa:	1c 4a       	or	r10,lr
800026fc:	e2 18 00 30 	andl	r8,0x30,COH
80002700:	f5 e8 10 08 	or	r8,r10,r8
80002704:	16 48       	or	r8,r11
80002706:	f8 09 09 28 	st.w	r12[r9<<0x2],r8
8000270a:	d8 0a       	popm	pc,r12=0
8000270c:	dc 0a       	popm	pc,r12=-1

8000270e <tc_start>:
8000270e:	58 2b       	cp.w	r11,2
80002710:	e0 8b 00 07 	brhi	8000271e <tc_start+0x10>
80002714:	a7 6b       	lsl	r11,0x6
80002716:	16 0c       	add	r12,r11
80002718:	30 58       	mov	r8,5
8000271a:	99 08       	st.w	r12[0x0],r8
8000271c:	5e fd       	retal	0
8000271e:	5e fe       	retal	-1

80002720 <tc_read_sr>:
80002720:	58 2b       	cp.w	r11,2
80002722:	e0 8b 00 07 	brhi	80002730 <tc_read_sr+0x10>
80002726:	a7 6b       	lsl	r11,0x6
80002728:	2e 0b       	sub	r11,-32
8000272a:	16 0c       	add	r12,r11
8000272c:	78 0c       	ld.w	r12,r12[0x0]
8000272e:	5e fc       	retal	r12
80002730:	5e fe       	retal	-1

80002732 <tc_write_rc>:
80002732:	58 2b       	cp.w	r11,2
80002734:	e0 8b 00 1a 	brhi	80002768 <tc_write_rc+0x36>
80002738:	f6 08 15 04 	lsl	r8,r11,0x4
8000273c:	2f f8       	sub	r8,-1
8000273e:	f8 08 03 28 	ld.w	r8,r12[r8<<0x2]
80002742:	ed b8 00 0f 	bld	r8,0xf
80002746:	c0 e1       	brne	80002762 <tc_write_rc+0x30>
80002748:	a7 6b       	lsl	r11,0x6
8000274a:	f8 0b 00 0b 	add	r11,r12,r11
8000274e:	f9 da c0 10 	bfextu	r12,r10,0x0,0x10
80002752:	2e 4b       	sub	r11,-28
80002754:	76 08       	ld.w	r8,r11[0x0]
80002756:	e0 18 00 00 	andl	r8,0x0
8000275a:	f9 e8 10 08 	or	r8,r12,r8
8000275e:	97 08       	st.w	r11[0x0],r8
80002760:	5e fc       	retal	r12
80002762:	f9 da c0 10 	bfextu	r12,r10,0x0,0x10
80002766:	5e fc       	retal	r12
80002768:	5e fe       	retal	-1

8000276a <tc_configure_interrupts>:
8000276a:	eb cd 40 80 	pushm	r7,lr
8000276e:	e1 be 00 00 	mfsr	lr,0x0
80002772:	58 2b       	cp.w	r11,2
80002774:	e0 8b 00 5f 	brhi	80002832 <tc_configure_interrupts+0xc8>
80002778:	74 08       	ld.w	r8,r10[0x0]
8000277a:	10 99       	mov	r9,r8
8000277c:	e2 19 00 02 	andl	r9,0x2,COH
80002780:	e2 18 00 fd 	andl	r8,0xfd,COH
80002784:	12 48       	or	r8,r9
80002786:	f6 09 15 06 	lsl	r9,r11,0x6
8000278a:	f8 09 00 07 	add	r7,r12,r9
8000278e:	2d c7       	sub	r7,-36
80002790:	8f 08       	st.w	r7[0x0],r8
80002792:	ee 1e 00 01 	eorh	lr,0x1
80002796:	fd de c2 01 	bfextu	lr,lr,0x10,0x1
8000279a:	c4 e1       	brne	80002836 <tc_configure_interrupts+0xcc>
8000279c:	a7 6b       	lsl	r11,0x6
8000279e:	2e 0b       	sub	r11,-32
800027a0:	74 08       	ld.w	r8,r10[0x0]
800027a2:	f8 09 00 0a 	add	r10,r12,r9
800027a6:	ef d8 c0 e1 	bfextu	r7,r8,0x7,0x1
800027aa:	16 0c       	add	r12,r11
800027ac:	e0 6b 00 80 	mov	r11,128
800027b0:	58 07       	cp.w	r7,0
800027b2:	f9 bb 01 00 	movne	r11,0
800027b6:	f3 d8 c0 01 	bfextu	r9,r8,0x0,0x1
800027ba:	ec 19 00 01 	eorl	r9,0x1
800027be:	f7 e9 10 09 	or	r9,r11,r9
800027c2:	f7 d8 c0 c1 	bfextu	r11,r8,0x6,0x1
800027c6:	f9 bb 00 40 	moveq	r11,64
800027ca:	f9 bb 01 00 	movne	r11,0
800027ce:	16 49       	or	r9,r11
800027d0:	f7 d8 c0 a1 	bfextu	r11,r8,0x5,0x1
800027d4:	f9 bb 00 20 	moveq	r11,32
800027d8:	f9 bb 01 00 	movne	r11,0
800027dc:	16 49       	or	r9,r11
800027de:	f7 d8 c0 81 	bfextu	r11,r8,0x4,0x1
800027e2:	f9 bb 00 10 	moveq	r11,16
800027e6:	f9 bb 01 00 	movne	r11,0
800027ea:	16 49       	or	r9,r11
800027ec:	f7 d8 c0 61 	bfextu	r11,r8,0x3,0x1
800027f0:	f9 bb 00 08 	moveq	r11,8
800027f4:	f9 bb 01 00 	movne	r11,0
800027f8:	16 49       	or	r9,r11
800027fa:	f7 d8 c0 41 	bfextu	r11,r8,0x2,0x1
800027fe:	f1 d8 c0 21 	bfextu	r8,r8,0x1,0x1
80002802:	58 0b       	cp.w	r11,0
80002804:	f9 bb 00 04 	moveq	r11,4
80002808:	f9 bb 01 00 	movne	r11,0
8000280c:	58 08       	cp.w	r8,0
8000280e:	f9 b8 00 02 	moveq	r8,2
80002812:	f9 b8 01 00 	movne	r8,0
80002816:	16 49       	or	r9,r11
80002818:	f3 e8 10 08 	or	r8,r9,r8
8000281c:	2d 8a       	sub	r10,-40
8000281e:	95 08       	st.w	r10[0x0],r8
80002820:	78 08       	ld.w	r8,r12[0x0]
80002822:	58 0e       	cp.w	lr,0
80002824:	c0 41       	brne	8000282c <tc_configure_interrupts+0xc2>
80002826:	1c 9c       	mov	r12,lr
80002828:	e3 cd 80 80 	ldm	sp++,r7,pc
8000282c:	d5 03       	csrf	0x10
8000282e:	e3 cf 80 80 	ldm	sp++,r7,pc,r12=0
80002832:	e3 cf c0 80 	ldm	sp++,r7,pc,r12=-1
80002836:	d3 03       	ssrf	0x10
80002838:	cb 2b       	rjmp	8000279c <tc_configure_interrupts+0x32>

8000283a <usart_set_async_baudrate>:
8000283a:	d4 01       	pushm	lr
8000283c:	f6 08 15 04 	lsl	r8,r11,0x4
80002840:	14 38       	cp.w	r8,r10
80002842:	e0 8b 00 26 	brhi	8000288e <usart_set_async_baudrate+0x54>
80002846:	31 0e       	mov	lr,16
80002848:	f0 09 16 01 	lsr	r9,r8,0x1
8000284c:	f2 0a 00 39 	add	r9,r9,r10<<0x3
80002850:	f2 08 0d 08 	divu	r8,r9,r8
80002854:	10 99       	mov	r9,r8
80002856:	a3 98       	lsr	r8,0x3
80002858:	f0 cb 00 01 	sub	r11,r8,1
8000285c:	e0 4b ff fe 	cp.w	r11,65534
80002860:	e0 8b 00 1b 	brhi	80002896 <usart_set_async_baudrate+0x5c>
80002864:	78 1a       	ld.w	r10,r12[0x4]
80002866:	e8 6b 00 00 	mov	r11,524288
8000286a:	e4 1a ff f7 	andh	r10,0xfff7
8000286e:	e0 1a fe cf 	andl	r10,0xfecf
80002872:	59 0e       	cp.w	lr,16
80002874:	f6 0e 17 10 	movne	lr,r11
80002878:	f9 be 00 00 	moveq	lr,0
8000287c:	fd ea 10 0a 	or	r10,lr,r10
80002880:	99 1a       	st.w	r12[0x4],r10
80002882:	f3 d9 c0 03 	bfextu	r9,r9,0x0,0x3
80002886:	f1 e9 11 08 	or	r8,r8,r9<<0x10
8000288a:	99 88       	st.w	r12[0x20],r8
8000288c:	d8 0a       	popm	pc,r12=0
8000288e:	f6 08 15 03 	lsl	r8,r11,0x3
80002892:	30 8e       	mov	lr,8
80002894:	cd ab       	rjmp	80002848 <usart_set_async_baudrate+0xe>
80002896:	da 0a       	popm	pc,r12=1

80002898 <usart_write_line>:
80002898:	17 8a       	ld.ub	r10,r11[0x0]
8000289a:	58 0a       	cp.w	r10,0
8000289c:	5e 0c       	reteq	r12
8000289e:	30 09       	mov	r9,0
800028a0:	78 58       	ld.w	r8,r12[0x14]
800028a2:	ed b8 00 01 	bld	r8,0x1
800028a6:	c0 91       	brne	800028b8 <usart_write_line+0x20>
800028a8:	f1 da c0 09 	bfextu	r8,r10,0x0,0x9
800028ac:	2f fb       	sub	r11,-1
800028ae:	99 78       	st.w	r12[0x1c],r8
800028b0:	17 8a       	ld.ub	r10,r11[0x0]
800028b2:	58 0a       	cp.w	r10,0
800028b4:	cf 51       	brne	8000289e <usart_write_line+0x6>
800028b6:	5e fc       	retal	r12
800028b8:	2f f9       	sub	r9,-1
800028ba:	e0 49 27 10 	cp.w	r9,10000
800028be:	cf 11       	brne	800028a0 <usart_write_line+0x8>
800028c0:	2f fb       	sub	r11,-1
800028c2:	cf 7b       	rjmp	800028b0 <usart_write_line+0x18>

800028c4 <usart_init_rs232>:
800028c4:	eb cd 40 e0 	pushm	r5-r7,lr
800028c8:	18 97       	mov	r7,r12
800028ca:	16 96       	mov	r6,r11
800028cc:	e1 b8 00 00 	mfsr	r8,0x0
800028d0:	ed b8 00 10 	bld	r8,0x10
800028d4:	c2 e1       	brne	80002930 <usart_init_rs232+0x6c>
800028d6:	3f f8       	mov	r8,-1
800028d8:	99 38       	st.w	r12[0xc],r8
800028da:	78 58       	ld.w	r8,r12[0x14]
800028dc:	30 08       	mov	r8,0
800028de:	8f 18       	st.w	r7[0x4],r8
800028e0:	8f 98       	st.w	r7[0x24],r8
800028e2:	8f a8       	st.w	r7[0x28],r8
800028e4:	ea 68 61 0c 	mov	r8,680204
800028e8:	8f 08       	st.w	r7[0x0],r8
800028ea:	58 06       	cp.w	r6,0
800028ec:	c2 00       	breq	8000292c <usart_init_rs232+0x68>
800028ee:	0d c8       	ld.ub	r8,r6[0x4]
800028f0:	30 49       	mov	r9,4
800028f2:	f2 08 18 00 	cp.b	r8,r9
800028f6:	e0 88 00 1b 	brls	8000292c <usart_init_rs232+0x68>
800028fa:	30 95       	mov	r5,9
800028fc:	ea 08 18 00 	cp.b	r8,r5
80002900:	e0 8b 00 16 	brhi	8000292c <usart_init_rs232+0x68>
80002904:	0d d9       	ld.ub	r9,r6[0x5]
80002906:	30 78       	mov	r8,7
80002908:	f0 09 18 00 	cp.b	r9,r8
8000290c:	e0 8b 00 10 	brhi	8000292c <usart_init_rs232+0x68>
80002910:	8c 39       	ld.sh	r9,r6[0x6]
80002912:	e0 68 01 01 	mov	r8,257
80002916:	f0 09 19 00 	cp.h	r9,r8
8000291a:	e0 8b 00 09 	brhi	8000292c <usart_init_rs232+0x68>
8000291e:	ed 39 00 08 	ld.ub	r9,r6[8]
80002922:	30 38       	mov	r8,3
80002924:	f0 09 18 00 	cp.b	r9,r8
80002928:	e0 88 00 0a 	brls	8000293c <usart_init_rs232+0x78>
8000292c:	e3 cf 90 e0 	ldm	sp++,r5-r7,pc,r12=1
80002930:	d3 03       	ssrf	0x10
80002932:	3f f8       	mov	r8,-1
80002934:	99 38       	st.w	r12[0xc],r8
80002936:	78 58       	ld.w	r8,r12[0x14]
80002938:	d5 03       	csrf	0x10
8000293a:	cd 1b       	rjmp	800028dc <usart_init_rs232+0x18>
8000293c:	6c 0b       	ld.w	r11,r6[0x0]
8000293e:	0e 9c       	mov	r12,r7
80002940:	c7 df       	rcall	8000283a <usart_set_async_baudrate>
80002942:	58 1c       	cp.w	r12,1
80002944:	cf 40       	breq	8000292c <usart_init_rs232+0x68>
80002946:	0d c8       	ld.ub	r8,r6[0x4]
80002948:	ea 08 18 00 	cp.b	r8,r5
8000294c:	c2 a0       	breq	800029a0 <usart_init_rs232+0xdc>
8000294e:	6e 19       	ld.w	r9,r7[0x4]
80002950:	20 58       	sub	r8,5
80002952:	f3 e8 10 68 	or	r8,r9,r8<<0x6
80002956:	8f 18       	st.w	r7[0x4],r8
80002958:	6e 19       	ld.w	r9,r7[0x4]
8000295a:	ed 3a 00 08 	ld.ub	r10,r6[8]
8000295e:	0d d8       	ld.ub	r8,r6[0x5]
80002960:	a9 78       	lsl	r8,0x9
80002962:	f1 ea 10 e8 	or	r8,r8,r10<<0xe
80002966:	12 48       	or	r8,r9
80002968:	8f 18       	st.w	r7[0x4],r8
8000296a:	30 29       	mov	r9,2
8000296c:	8c 38       	ld.sh	r8,r6[0x6]
8000296e:	f2 08 19 00 	cp.h	r8,r9
80002972:	e0 88 00 11 	brls	80002994 <usart_init_rs232+0xd0>
80002976:	6e 18       	ld.w	r8,r7[0x4]
80002978:	ad b8       	sbr	r8,0xd
8000297a:	8f 18       	st.w	r7[0x4],r8
8000297c:	8c b8       	ld.uh	r8,r6[0x6]
8000297e:	20 28       	sub	r8,2
80002980:	8f a8       	st.w	r7[0x28],r8
80002982:	6e 18       	ld.w	r8,r7[0x4]
80002984:	e0 18 ff f0 	andl	r8,0xfff0
80002988:	8f 18       	st.w	r7[0x4],r8
8000298a:	30 0c       	mov	r12,0
8000298c:	35 08       	mov	r8,80
8000298e:	8f 08       	st.w	r7[0x0],r8
80002990:	e3 cd 80 e0 	ldm	sp++,r5-r7,pc
80002994:	6e 19       	ld.w	r9,r7[0x4]
80002996:	5c 78       	castu.h	r8
80002998:	f3 e8 10 c8 	or	r8,r9,r8<<0xc
8000299c:	8f 18       	st.w	r7[0x4],r8
8000299e:	cf 2b       	rjmp	80002982 <usart_init_rs232+0xbe>
800029a0:	6e 18       	ld.w	r8,r7[0x4]
800029a2:	b1 b8       	sbr	r8,0x11
800029a4:	8f 18       	st.w	r7[0x4],r8
800029a6:	cd 9b       	rjmp	80002958 <usart_init_rs232+0x94>

800029a8 <print_dbg_hex>:
800029a8:	d4 01       	pushm	lr
800029aa:	20 3d       	sub	sp,12
800029ac:	49 98       	lddpc	r8,80002a10 <print_dbg_hex+0x68>
800029ae:	f8 09 16 1c 	lsr	r9,r12,0x1c
800029b2:	f0 09 07 09 	ld.ub	r9,r8[r9]
800029b6:	ba 89       	st.b	sp[0x0],r9
800029b8:	30 09       	mov	r9,0
800029ba:	fb 69 00 08 	st.b	sp[8],r9
800029be:	f3 dc c0 04 	bfextu	r9,r12,0x0,0x4
800029c2:	f0 09 07 09 	ld.ub	r9,r8[r9]
800029c6:	ba f9       	st.b	sp[0x7],r9
800029c8:	f3 dc c0 84 	bfextu	r9,r12,0x4,0x4
800029cc:	f0 09 07 09 	ld.ub	r9,r8[r9]
800029d0:	ba e9       	st.b	sp[0x6],r9
800029d2:	f3 dc c1 04 	bfextu	r9,r12,0x8,0x4
800029d6:	f0 09 07 09 	ld.ub	r9,r8[r9]
800029da:	ba d9       	st.b	sp[0x5],r9
800029dc:	f3 dc c1 84 	bfextu	r9,r12,0xc,0x4
800029e0:	f0 09 07 09 	ld.ub	r9,r8[r9]
800029e4:	ba c9       	st.b	sp[0x4],r9
800029e6:	f3 dc c2 04 	bfextu	r9,r12,0x10,0x4
800029ea:	f0 09 07 09 	ld.ub	r9,r8[r9]
800029ee:	ba b9       	st.b	sp[0x3],r9
800029f0:	f3 dc c2 84 	bfextu	r9,r12,0x14,0x4
800029f4:	f9 dc c3 04 	bfextu	r12,r12,0x18,0x4
800029f8:	f0 09 07 09 	ld.ub	r9,r8[r9]
800029fc:	f0 0c 07 08 	ld.ub	r8,r8[r12]
80002a00:	ba a9       	st.b	sp[0x2],r9
80002a02:	ba 98       	st.b	sp[0x1],r8
80002a04:	1a 9b       	mov	r11,sp
80002a06:	fe 7c 14 00 	mov	r12,-60416
80002a0a:	c4 7f       	rcall	80002898 <usart_write_line>
80002a0c:	2f dd       	sub	sp,-12
80002a0e:	d8 02       	popm	pc
80002a10:	80 00       	ld.sh	r0,r0[0x0]
80002a12:	af e8       	*unknown*

80002a14 <print_dbg_ulong>:
80002a14:	eb cd 40 c0 	pushm	r6-r7,lr
80002a18:	20 3d       	sub	sp,12
80002a1a:	30 08       	mov	r8,0
80002a1c:	30 a9       	mov	r9,10
80002a1e:	fb 68 00 0a 	st.b	sp[10],r8
80002a22:	1a 9b       	mov	r11,sp
80002a24:	e0 6e cc cd 	mov	lr,52429
80002a28:	ea 1e cc cc 	orh	lr,0xcccc
80002a2c:	f8 0e 06 46 	mulu.d	r6,r12,lr
80002a30:	20 19       	sub	r9,1
80002a32:	0e 98       	mov	r8,r7
80002a34:	a3 98       	lsr	r8,0x3
80002a36:	f0 08 00 2a 	add	r10,r8,r8<<0x2
80002a3a:	f8 0a 01 1c 	sub	r12,r12,r10<<0x1
80002a3e:	2d 0c       	sub	r12,-48
80002a40:	f6 09 0b 0c 	st.b	r11[r9],r12
80002a44:	10 9c       	mov	r12,r8
80002a46:	58 08       	cp.w	r8,0
80002a48:	cf 21       	brne	80002a2c <print_dbg_ulong+0x18>
80002a4a:	12 0b       	add	r11,r9
80002a4c:	fe 7c 14 00 	mov	r12,-60416
80002a50:	c2 4f       	rcall	80002898 <usart_write_line>
80002a52:	2f dd       	sub	sp,-12
80002a54:	e3 cd 80 c0 	ldm	sp++,r6-r7,pc

80002a58 <print_dbg>:
80002a58:	d4 01       	pushm	lr
80002a5a:	18 9b       	mov	r11,r12
80002a5c:	fe 7c 14 00 	mov	r12,-60416
80002a60:	c1 cf       	rcall	80002898 <usart_write_line>
80002a62:	d8 02       	popm	pc

80002a64 <sd_mmc_spi_get_capacity>:
80002a64:	eb cd 40 c0 	pushm	r6-r7,lr
80002a68:	e0 69 22 2e 	mov	r9,8750
80002a6c:	e0 68 22 30 	mov	r8,8752
80002a70:	13 8b       	ld.ub	r11,r9[0x0]
80002a72:	11 dc       	ld.ub	r12,r8[0x5]
80002a74:	30 39       	mov	r9,3
80002a76:	f2 0b 18 00 	cp.b	r11,r9
80002a7a:	c4 60       	breq	80002b06 <sd_mmc_spi_get_capacity+0xa2>
80002a7c:	11 fe       	ld.ub	lr,r8[0x7]
80002a7e:	f1 37 00 08 	ld.ub	r7,r8[8]
80002a82:	a7 87       	lsr	r7,0x6
80002a84:	ee 0e 00 27 	add	r7,r7,lr<<0x2
80002a88:	11 ee       	ld.ub	lr,r8[0x6]
80002a8a:	fd de c0 02 	bfextu	lr,lr,0x0,0x2
80002a8e:	ab 6e       	lsl	lr,0xa
80002a90:	f1 39 00 0a 	ld.ub	r9,r8[10]
80002a94:	1c 07       	add	r7,lr
80002a96:	f2 06 16 07 	lsr	r6,r9,0x7
80002a9a:	2f f7       	sub	r7,-1
80002a9c:	f1 3e 00 09 	ld.ub	lr,r8[9]
80002aa0:	fd de c0 02 	bfextu	lr,lr,0x0,0x2
80002aa4:	ec 0e 00 1e 	add	lr,r6,lr<<0x1
80002aa8:	2f ee       	sub	lr,-2
80002aaa:	ee 0e 09 4e 	lsl	lr,r7,lr
80002aae:	20 1e       	sub	lr,1
80002ab0:	e0 6a 22 28 	mov	r10,8744
80002ab4:	f9 dc c0 04 	bfextu	r12,r12,0x0,0x4
80002ab8:	95 0e       	st.w	r10[0x0],lr
80002aba:	74 0e       	ld.w	lr,r10[0x0]
80002abc:	2f fe       	sub	lr,-1
80002abe:	fc 0c 09 4e 	lsl	lr,lr,r12
80002ac2:	1c 96       	mov	r6,lr
80002ac4:	30 0e       	mov	lr,0
80002ac6:	1c 97       	mov	r7,lr
80002ac8:	e0 6e 22 1c 	mov	lr,8732
80002acc:	fc e7 00 00 	st.d	lr[0],r6
80002ad0:	e0 67 22 24 	mov	r7,8740
80002ad4:	30 0e       	mov	lr,0
80002ad6:	ae 0e       	st.h	r7[0x0],lr
80002ad8:	30 97       	mov	r7,9
80002ada:	ee 0c 18 00 	cp.b	r12,r7
80002ade:	e0 88 00 07 	brls	80002aec <sd_mmc_spi_get_capacity+0x88>
80002ae2:	74 0e       	ld.w	lr,r10[0x0]
80002ae4:	20 9c       	sub	r12,9
80002ae6:	fc 0c 09 4c 	lsl	r12,lr,r12
80002aea:	95 0c       	st.w	r10[0x0],r12
80002aec:	58 0b       	cp.w	r11,0
80002aee:	c3 51       	brne	80002b58 <sd_mmc_spi_get_capacity+0xf4>
80002af0:	f5 d9 c0 02 	bfextu	r10,r9,0x0,0x2
80002af4:	f1 38 00 0b 	ld.ub	r8,r8[11]
80002af8:	f3 d9 c0 45 	bfextu	r9,r9,0x2,0x5
80002afc:	a5 98       	lsr	r8,0x5
80002afe:	f1 ea 10 38 	or	r8,r8,r10<<0x3
80002b02:	2f f8       	sub	r8,-1
80002b04:	c3 28       	rjmp	80002b68 <sd_mmc_spi_get_capacity+0x104>
80002b06:	f1 3e 00 08 	ld.ub	lr,r8[8]
80002b0a:	f1 39 00 09 	ld.ub	r9,r8[9]
80002b0e:	f3 ee 10 89 	or	r9,r9,lr<<0x8
80002b12:	11 fe       	ld.ub	lr,r8[0x7]
80002b14:	fd de c0 06 	bfextu	lr,lr,0x0,0x6
80002b18:	f3 ee 11 0e 	or	lr,r9,lr<<0x10
80002b1c:	2f fe       	sub	lr,-1
80002b1e:	fc 09 16 0d 	lsr	r9,lr,0xd
80002b22:	fc 0a 15 13 	lsl	r10,lr,0x13
80002b26:	e0 6c 22 1c 	mov	r12,8732
80002b2a:	12 9b       	mov	r11,r9
80002b2c:	f8 eb 00 00 	st.d	r12[0],r10
80002b30:	f5 d9 c0 09 	bfextu	r10,r9,0x0,0x9
80002b34:	e0 69 22 24 	mov	r9,8740
80002b38:	b2 0a       	st.h	r9[0x0],r10
80002b3a:	f8 ea 00 00 	ld.d	r10,r12[0]
80002b3e:	92 0c       	ld.sh	r12,r9[0x0]
80002b40:	f4 09 16 09 	lsr	r9,r10,0x9
80002b44:	b7 7c       	lsl	r12,0x17
80002b46:	f3 eb 11 79 	or	r9,r9,r11<<0x17
80002b4a:	20 19       	sub	r9,1
80002b4c:	18 09       	add	r9,r12
80002b4e:	e0 6a 22 28 	mov	r10,8744
80002b52:	95 09       	st.w	r10[0x0],r9
80002b54:	f1 39 00 0a 	ld.ub	r9,r8[10]
80002b58:	f1 38 00 0b 	ld.ub	r8,r8[11]
80002b5c:	a7 98       	lsr	r8,0x7
80002b5e:	f3 d9 c0 06 	bfextu	r9,r9,0x0,0x6
80002b62:	f0 09 00 19 	add	r9,r8,r9<<0x1
80002b66:	30 18       	mov	r8,1
80002b68:	2f f9       	sub	r9,-1
80002b6a:	b1 39       	mul	r9,r8
80002b6c:	e0 68 22 26 	mov	r8,8742
80002b70:	b0 09       	st.h	r8[0x0],r9
80002b72:	e3 cd 80 c0 	ldm	sp++,r6-r7,pc
80002b76:	d7 03       	nop

80002b78 <sd_mmc_spi_write_close>:
80002b78:	5e fc       	retal	r12
80002b7a:	d7 03       	nop

80002b7c <sd_mmc_spi_read_close_PDCA>:
80002b7c:	d4 01       	pushm	lr
80002b7e:	e0 6b 00 ff 	mov	r11,255
80002b82:	fe 7c 28 00 	mov	r12,-55296
80002b86:	fe b0 fd 56 	rcall	80002632 <spi_write>
80002b8a:	e0 6b 00 ff 	mov	r11,255
80002b8e:	fe 7c 28 00 	mov	r12,-55296
80002b92:	fe b0 fd 50 	rcall	80002632 <spi_write>
80002b96:	e0 6b 00 ff 	mov	r11,255
80002b9a:	fe 7c 28 00 	mov	r12,-55296
80002b9e:	fe b0 fd 4a 	rcall	80002632 <spi_write>
80002ba2:	e0 6b 00 ff 	mov	r11,255
80002ba6:	fe 7c 28 00 	mov	r12,-55296
80002baa:	fe b0 fd 44 	rcall	80002632 <spi_write>
80002bae:	30 2b       	mov	r11,2
80002bb0:	fe 7c 28 00 	mov	r12,-55296
80002bb4:	fe b0 fc d2 	rcall	80002558 <spi_unselectChip>
80002bb8:	d8 02       	popm	pc
80002bba:	d7 03       	nop

80002bbc <sd_mmc_spi_wait_not_busy>:
80002bbc:	d4 21       	pushm	r4-r7,lr
80002bbe:	20 1d       	sub	sp,4
80002bc0:	30 2b       	mov	r11,2
80002bc2:	fe 7c 28 00 	mov	r12,-55296
80002bc6:	fa c6 ff fe 	sub	r6,sp,-2
80002bca:	fe b0 fc 9f 	rcall	80002508 <spi_selectChip>
80002bce:	e0 65 22 40 	mov	r5,8768
80002bd2:	30 07       	mov	r7,0
80002bd4:	3f f4       	mov	r4,-1
80002bd6:	c0 98       	rjmp	80002be8 <sd_mmc_spi_wait_not_busy+0x2c>
80002bd8:	1b b8       	ld.ub	r8,sp[0x3]
80002bda:	aa 88       	st.b	r5[0x0],r8
80002bdc:	e8 08 18 00 	cp.b	r8,r4
80002be0:	c1 40       	breq	80002c08 <sd_mmc_spi_wait_not_busy+0x4c>
80002be2:	e2 57 0d 40 	cp.w	r7,200000
80002be6:	c1 80       	breq	80002c16 <sd_mmc_spi_wait_not_busy+0x5a>
80002be8:	e0 6b 00 ff 	mov	r11,255
80002bec:	fe 7c 28 00 	mov	r12,-55296
80002bf0:	fe b0 fd 21 	rcall	80002632 <spi_write>
80002bf4:	0c 9b       	mov	r11,r6
80002bf6:	2f f7       	sub	r7,-1
80002bf8:	fe 7c 28 00 	mov	r12,-55296
80002bfc:	fe b0 fd 29 	rcall	8000264e <spi_read>
80002c00:	58 1c       	cp.w	r12,1
80002c02:	ce b1       	brne	80002bd8 <sd_mmc_spi_wait_not_busy+0x1c>
80002c04:	3f f8       	mov	r8,-1
80002c06:	aa 88       	st.b	r5[0x0],r8
80002c08:	30 2b       	mov	r11,2
80002c0a:	fe 7c 28 00 	mov	r12,-55296
80002c0e:	fe b0 fc a5 	rcall	80002558 <spi_unselectChip>
80002c12:	2f fd       	sub	sp,-4
80002c14:	da 2a       	popm	r4-r7,pc,r12=1
80002c16:	30 2b       	mov	r11,2
80002c18:	fe 7c 28 00 	mov	r12,-55296
80002c1c:	fe b0 fc 9e 	rcall	80002558 <spi_unselectChip>
80002c20:	2f fd       	sub	sp,-4
80002c22:	d8 2a       	popm	r4-r7,pc,r12=0

80002c24 <sd_mmc_spi_write_open>:
80002c24:	d4 01       	pushm	lr
80002c26:	e0 68 01 24 	mov	r8,292
80002c2a:	a9 7c       	lsl	r12,0x9
80002c2c:	91 0c       	st.w	r8[0x0],r12
80002c2e:	cc 7f       	rcall	80002bbc <sd_mmc_spi_wait_not_busy>
80002c30:	d8 02       	popm	pc
80002c32:	d7 03       	nop

80002c34 <sd_mmc_spi_command>:
80002c34:	eb cd 40 e0 	pushm	r5-r7,lr
80002c38:	20 1d       	sub	sp,4
80002c3a:	16 97       	mov	r7,r11
80002c3c:	18 96       	mov	r6,r12
80002c3e:	e0 6b 00 ff 	mov	r11,255
80002c42:	fe 7c 28 00 	mov	r12,-55296
80002c46:	fe b0 fc f6 	rcall	80002632 <spi_write>
80002c4a:	fe 7c 28 00 	mov	r12,-55296
80002c4e:	0c 9b       	mov	r11,r6
80002c50:	a7 ab       	sbr	r11,0x6
80002c52:	5c 5b       	castu.b	r11
80002c54:	fe b0 fc ef 	rcall	80002632 <spi_write>
80002c58:	ee 0b 16 18 	lsr	r11,r7,0x18
80002c5c:	fe 7c 28 00 	mov	r12,-55296
80002c60:	fe b0 fc e9 	rcall	80002632 <spi_write>
80002c64:	ee 0b 16 10 	lsr	r11,r7,0x10
80002c68:	fe 7c 28 00 	mov	r12,-55296
80002c6c:	fe b0 fc e3 	rcall	80002632 <spi_write>
80002c70:	f7 d7 c1 10 	bfextu	r11,r7,0x8,0x10
80002c74:	fe 7c 28 00 	mov	r12,-55296
80002c78:	fe b0 fc dd 	rcall	80002632 <spi_write>
80002c7c:	0e 9b       	mov	r11,r7
80002c7e:	fe 7c 28 00 	mov	r12,-55296
80002c82:	5c 7b       	castu.h	r11
80002c84:	fe b0 fc d7 	rcall	80002632 <spi_write>
80002c88:	30 08       	mov	r8,0
80002c8a:	f0 06 18 00 	cp.b	r6,r8
80002c8e:	e0 80 00 ec 	breq	80002e66 <sd_mmc_spi_command+0x232>
80002c92:	30 88       	mov	r8,8
80002c94:	f0 06 18 00 	cp.b	r6,r8
80002c98:	e0 80 00 ee 	breq	80002e74 <sd_mmc_spi_command+0x240>
80002c9c:	e0 6b 00 ff 	mov	r11,255
80002ca0:	fe 7c 28 00 	mov	r12,-55296
80002ca4:	fe b0 fc c7 	rcall	80002632 <spi_write>
80002ca8:	e0 6b 00 ff 	mov	r11,255
80002cac:	e0 67 22 40 	mov	r7,8768
80002cb0:	3f f5       	mov	r5,-1
80002cb2:	fe 7c 28 00 	mov	r12,-55296
80002cb6:	ae 85       	st.b	r7[0x0],r5
80002cb8:	fe b0 fc bd 	rcall	80002632 <spi_write>
80002cbc:	fa c6 ff fe 	sub	r6,sp,-2
80002cc0:	fe 7c 28 00 	mov	r12,-55296
80002cc4:	0c 9b       	mov	r11,r6
80002cc6:	fe b0 fc c4 	rcall	8000264e <spi_read>
80002cca:	58 1c       	cp.w	r12,1
80002ccc:	e0 80 00 db 	breq	80002e82 <sd_mmc_spi_command+0x24e>
80002cd0:	1b bc       	ld.ub	r12,sp[0x3]
80002cd2:	ae 8c       	st.b	r7[0x0],r12
80002cd4:	ea 0c 18 00 	cp.b	r12,r5
80002cd8:	e0 81 00 c4 	brne	80002e60 <sd_mmc_spi_command+0x22c>
80002cdc:	e0 6b 00 ff 	mov	r11,255
80002ce0:	fe 7c 28 00 	mov	r12,-55296
80002ce4:	fe b0 fc a7 	rcall	80002632 <spi_write>
80002ce8:	0c 9b       	mov	r11,r6
80002cea:	fe 7c 28 00 	mov	r12,-55296
80002cee:	fe b0 fc b0 	rcall	8000264e <spi_read>
80002cf2:	58 1c       	cp.w	r12,1
80002cf4:	e0 80 00 c9 	breq	80002e86 <sd_mmc_spi_command+0x252>
80002cf8:	1b bc       	ld.ub	r12,sp[0x3]
80002cfa:	ae 8c       	st.b	r7[0x0],r12
80002cfc:	3f f8       	mov	r8,-1
80002cfe:	f0 0c 18 00 	cp.b	r12,r8
80002d02:	e0 81 00 af 	brne	80002e60 <sd_mmc_spi_command+0x22c>
80002d06:	e0 6b 00 ff 	mov	r11,255
80002d0a:	fe 7c 28 00 	mov	r12,-55296
80002d0e:	fe b0 fc 92 	rcall	80002632 <spi_write>
80002d12:	0c 9b       	mov	r11,r6
80002d14:	fe 7c 28 00 	mov	r12,-55296
80002d18:	fe b0 fc 9b 	rcall	8000264e <spi_read>
80002d1c:	58 1c       	cp.w	r12,1
80002d1e:	e0 80 00 b7 	breq	80002e8c <sd_mmc_spi_command+0x258>
80002d22:	1b bc       	ld.ub	r12,sp[0x3]
80002d24:	ae 8c       	st.b	r7[0x0],r12
80002d26:	3f f8       	mov	r8,-1
80002d28:	f0 0c 18 00 	cp.b	r12,r8
80002d2c:	e0 81 00 9a 	brne	80002e60 <sd_mmc_spi_command+0x22c>
80002d30:	e0 6b 00 ff 	mov	r11,255
80002d34:	fe 7c 28 00 	mov	r12,-55296
80002d38:	fe b0 fc 7d 	rcall	80002632 <spi_write>
80002d3c:	0c 9b       	mov	r11,r6
80002d3e:	fe 7c 28 00 	mov	r12,-55296
80002d42:	fe b0 fc 86 	rcall	8000264e <spi_read>
80002d46:	58 1c       	cp.w	r12,1
80002d48:	e0 80 00 a5 	breq	80002e92 <sd_mmc_spi_command+0x25e>
80002d4c:	1b bc       	ld.ub	r12,sp[0x3]
80002d4e:	ae 8c       	st.b	r7[0x0],r12
80002d50:	3f f8       	mov	r8,-1
80002d52:	f0 0c 18 00 	cp.b	r12,r8
80002d56:	e0 81 00 85 	brne	80002e60 <sd_mmc_spi_command+0x22c>
80002d5a:	e0 6b 00 ff 	mov	r11,255
80002d5e:	fe 7c 28 00 	mov	r12,-55296
80002d62:	fe b0 fc 68 	rcall	80002632 <spi_write>
80002d66:	0c 9b       	mov	r11,r6
80002d68:	fe 7c 28 00 	mov	r12,-55296
80002d6c:	fe b0 fc 71 	rcall	8000264e <spi_read>
80002d70:	58 1c       	cp.w	r12,1
80002d72:	e0 80 00 93 	breq	80002e98 <sd_mmc_spi_command+0x264>
80002d76:	1b bc       	ld.ub	r12,sp[0x3]
80002d78:	ae 8c       	st.b	r7[0x0],r12
80002d7a:	3f f8       	mov	r8,-1
80002d7c:	f0 0c 18 00 	cp.b	r12,r8
80002d80:	c7 01       	brne	80002e60 <sd_mmc_spi_command+0x22c>
80002d82:	e0 6b 00 ff 	mov	r11,255
80002d86:	fe 7c 28 00 	mov	r12,-55296
80002d8a:	fe b0 fc 54 	rcall	80002632 <spi_write>
80002d8e:	0c 9b       	mov	r11,r6
80002d90:	fe 7c 28 00 	mov	r12,-55296
80002d94:	fe b0 fc 5d 	rcall	8000264e <spi_read>
80002d98:	58 1c       	cp.w	r12,1
80002d9a:	e0 80 00 82 	breq	80002e9e <sd_mmc_spi_command+0x26a>
80002d9e:	1b bc       	ld.ub	r12,sp[0x3]
80002da0:	ae 8c       	st.b	r7[0x0],r12
80002da2:	3f f8       	mov	r8,-1
80002da4:	f0 0c 18 00 	cp.b	r12,r8
80002da8:	c5 c1       	brne	80002e60 <sd_mmc_spi_command+0x22c>
80002daa:	e0 6b 00 ff 	mov	r11,255
80002dae:	fe 7c 28 00 	mov	r12,-55296
80002db2:	fe b0 fc 40 	rcall	80002632 <spi_write>
80002db6:	0c 9b       	mov	r11,r6
80002db8:	fe 7c 28 00 	mov	r12,-55296
80002dbc:	fe b0 fc 49 	rcall	8000264e <spi_read>
80002dc0:	58 1c       	cp.w	r12,1
80002dc2:	c7 10       	breq	80002ea4 <sd_mmc_spi_command+0x270>
80002dc4:	1b bc       	ld.ub	r12,sp[0x3]
80002dc6:	ae 8c       	st.b	r7[0x0],r12
80002dc8:	3f f8       	mov	r8,-1
80002dca:	f0 0c 18 00 	cp.b	r12,r8
80002dce:	c4 91       	brne	80002e60 <sd_mmc_spi_command+0x22c>
80002dd0:	e0 6b 00 ff 	mov	r11,255
80002dd4:	fe 7c 28 00 	mov	r12,-55296
80002dd8:	fe b0 fc 2d 	rcall	80002632 <spi_write>
80002ddc:	0c 9b       	mov	r11,r6
80002dde:	fe 7c 28 00 	mov	r12,-55296
80002de2:	fe b0 fc 36 	rcall	8000264e <spi_read>
80002de6:	58 1c       	cp.w	r12,1
80002de8:	c6 10       	breq	80002eaa <sd_mmc_spi_command+0x276>
80002dea:	1b bc       	ld.ub	r12,sp[0x3]
80002dec:	ae 8c       	st.b	r7[0x0],r12
80002dee:	3f f8       	mov	r8,-1
80002df0:	f0 0c 18 00 	cp.b	r12,r8
80002df4:	c3 61       	brne	80002e60 <sd_mmc_spi_command+0x22c>
80002df6:	e0 6b 00 ff 	mov	r11,255
80002dfa:	fe 7c 28 00 	mov	r12,-55296
80002dfe:	fe b0 fc 1a 	rcall	80002632 <spi_write>
80002e02:	0c 9b       	mov	r11,r6
80002e04:	fe 7c 28 00 	mov	r12,-55296
80002e08:	fe b0 fc 23 	rcall	8000264e <spi_read>
80002e0c:	58 1c       	cp.w	r12,1
80002e0e:	c5 10       	breq	80002eb0 <sd_mmc_spi_command+0x27c>
80002e10:	1b bc       	ld.ub	r12,sp[0x3]
80002e12:	ae 8c       	st.b	r7[0x0],r12
80002e14:	3f f8       	mov	r8,-1
80002e16:	f0 0c 18 00 	cp.b	r12,r8
80002e1a:	c2 31       	brne	80002e60 <sd_mmc_spi_command+0x22c>
80002e1c:	e0 6b 00 ff 	mov	r11,255
80002e20:	fe 7c 28 00 	mov	r12,-55296
80002e24:	fe b0 fc 07 	rcall	80002632 <spi_write>
80002e28:	0c 9b       	mov	r11,r6
80002e2a:	fe 7c 28 00 	mov	r12,-55296
80002e2e:	fe b0 fc 10 	rcall	8000264e <spi_read>
80002e32:	58 1c       	cp.w	r12,1
80002e34:	c4 10       	breq	80002eb6 <sd_mmc_spi_command+0x282>
80002e36:	1b bc       	ld.ub	r12,sp[0x3]
80002e38:	ae 8c       	st.b	r7[0x0],r12
80002e3a:	3f f8       	mov	r8,-1
80002e3c:	f0 0c 18 00 	cp.b	r12,r8
80002e40:	c1 01       	brne	80002e60 <sd_mmc_spi_command+0x22c>
80002e42:	e0 6b 00 ff 	mov	r11,255
80002e46:	fe 7c 28 00 	mov	r12,-55296
80002e4a:	fe b0 fb f4 	rcall	80002632 <spi_write>
80002e4e:	0c 9b       	mov	r11,r6
80002e50:	fe 7c 28 00 	mov	r12,-55296
80002e54:	fe b0 fb fd 	rcall	8000264e <spi_read>
80002e58:	58 1c       	cp.w	r12,1
80002e5a:	c3 10       	breq	80002ebc <sd_mmc_spi_command+0x288>
80002e5c:	1b bc       	ld.ub	r12,sp[0x3]
80002e5e:	ae 8c       	st.b	r7[0x0],r12
80002e60:	2f fd       	sub	sp,-4
80002e62:	e3 cd 80 e0 	ldm	sp++,r5-r7,pc
80002e66:	e0 6b 00 95 	mov	r11,149
80002e6a:	fe 7c 28 00 	mov	r12,-55296
80002e6e:	fe b0 fb e2 	rcall	80002632 <spi_write>
80002e72:	c1 bb       	rjmp	80002ca8 <sd_mmc_spi_command+0x74>
80002e74:	e0 6b 00 87 	mov	r11,135
80002e78:	fe 7c 28 00 	mov	r12,-55296
80002e7c:	fe b0 fb db 	rcall	80002632 <spi_write>
80002e80:	c1 4b       	rjmp	80002ca8 <sd_mmc_spi_command+0x74>
80002e82:	ae 85       	st.b	r7[0x0],r5
80002e84:	c2 cb       	rjmp	80002cdc <sd_mmc_spi_command+0xa8>
80002e86:	3f f8       	mov	r8,-1
80002e88:	ae 88       	st.b	r7[0x0],r8
80002e8a:	c3 eb       	rjmp	80002d06 <sd_mmc_spi_command+0xd2>
80002e8c:	3f f8       	mov	r8,-1
80002e8e:	ae 88       	st.b	r7[0x0],r8
80002e90:	c5 0b       	rjmp	80002d30 <sd_mmc_spi_command+0xfc>
80002e92:	3f f8       	mov	r8,-1
80002e94:	ae 88       	st.b	r7[0x0],r8
80002e96:	c6 2b       	rjmp	80002d5a <sd_mmc_spi_command+0x126>
80002e98:	3f f8       	mov	r8,-1
80002e9a:	ae 88       	st.b	r7[0x0],r8
80002e9c:	c7 3b       	rjmp	80002d82 <sd_mmc_spi_command+0x14e>
80002e9e:	3f f8       	mov	r8,-1
80002ea0:	ae 88       	st.b	r7[0x0],r8
80002ea2:	c8 4b       	rjmp	80002daa <sd_mmc_spi_command+0x176>
80002ea4:	3f f8       	mov	r8,-1
80002ea6:	ae 88       	st.b	r7[0x0],r8
80002ea8:	c9 4b       	rjmp	80002dd0 <sd_mmc_spi_command+0x19c>
80002eaa:	3f f8       	mov	r8,-1
80002eac:	ae 88       	st.b	r7[0x0],r8
80002eae:	ca 4b       	rjmp	80002df6 <sd_mmc_spi_command+0x1c2>
80002eb0:	3f f8       	mov	r8,-1
80002eb2:	ae 88       	st.b	r7[0x0],r8
80002eb4:	cb 4b       	rjmp	80002e1c <sd_mmc_spi_command+0x1e8>
80002eb6:	3f f8       	mov	r8,-1
80002eb8:	ae 88       	st.b	r7[0x0],r8
80002eba:	cc 4b       	rjmp	80002e42 <sd_mmc_spi_command+0x20e>
80002ebc:	3f f8       	mov	r8,-1
80002ebe:	e0 6c 00 ff 	mov	r12,255
80002ec2:	ae 88       	st.b	r7[0x0],r8
80002ec4:	2f fd       	sub	sp,-4
80002ec6:	e3 cd 80 e0 	ldm	sp++,r5-r7,pc
80002eca:	d7 03       	nop

80002ecc <sd_mmc_spi_read_open_PDCA>:
80002ecc:	d4 21       	pushm	r4-r7,lr
80002ece:	20 1d       	sub	sp,4
80002ed0:	a9 7c       	lsl	r12,0x9
80002ed2:	e0 67 01 24 	mov	r7,292
80002ed6:	8f 0c       	st.w	r7[0x0],r12
80002ed8:	c7 2e       	rcall	80002bbc <sd_mmc_spi_wait_not_busy>
80002eda:	c0 31       	brne	80002ee0 <sd_mmc_spi_read_open_PDCA+0x14>
80002edc:	2f fd       	sub	sp,-4
80002ede:	d8 22       	popm	r4-r7,pc
80002ee0:	30 2b       	mov	r11,2
80002ee2:	fe 7c 28 00 	mov	r12,-55296
80002ee6:	fe b0 fb 11 	rcall	80002508 <spi_selectChip>
80002eea:	e0 68 22 2e 	mov	r8,8750
80002eee:	11 89       	ld.ub	r9,r8[0x0]
80002ef0:	30 38       	mov	r8,3
80002ef2:	f0 09 18 00 	cp.b	r9,r8
80002ef6:	c3 90       	breq	80002f68 <sd_mmc_spi_read_open_PDCA+0x9c>
80002ef8:	6e 0b       	ld.w	r11,r7[0x0]
80002efa:	31 1c       	mov	r12,17
80002efc:	e0 66 22 40 	mov	r6,8768
80002f00:	c9 ae       	rcall	80002c34 <sd_mmc_spi_command>
80002f02:	ac 8c       	st.b	r6[0x0],r12
80002f04:	58 0c       	cp.w	r12,0
80002f06:	c2 81       	brne	80002f56 <sd_mmc_spi_read_open_PDCA+0x8a>
80002f08:	18 97       	mov	r7,r12
80002f0a:	fa c5 ff fe 	sub	r5,sp,-2
80002f0e:	3f f4       	mov	r4,-1
80002f10:	c0 a8       	rjmp	80002f24 <sd_mmc_spi_read_open_PDCA+0x58>
80002f12:	1b b8       	ld.ub	r8,sp[0x3]
80002f14:	ac 88       	st.b	r6[0x0],r8
80002f16:	e8 08 18 00 	cp.b	r8,r4
80002f1a:	c1 41       	brne	80002f42 <sd_mmc_spi_read_open_PDCA+0x76>
80002f1c:	2f f7       	sub	r7,-1
80002f1e:	e0 47 75 30 	cp.w	r7,30000
80002f22:	c1 a0       	breq	80002f56 <sd_mmc_spi_read_open_PDCA+0x8a>
80002f24:	e0 6b 00 ff 	mov	r11,255
80002f28:	fe 7c 28 00 	mov	r12,-55296
80002f2c:	fe b0 fb 83 	rcall	80002632 <spi_write>
80002f30:	0a 9b       	mov	r11,r5
80002f32:	fe 7c 28 00 	mov	r12,-55296
80002f36:	fe b0 fb 8c 	rcall	8000264e <spi_read>
80002f3a:	58 1c       	cp.w	r12,1
80002f3c:	ce b1       	brne	80002f12 <sd_mmc_spi_read_open_PDCA+0x46>
80002f3e:	ac 84       	st.b	r6[0x0],r4
80002f40:	ce eb       	rjmp	80002f1c <sd_mmc_spi_read_open_PDCA+0x50>
80002f42:	3f e9       	mov	r9,-2
80002f44:	f2 08 18 00 	cp.b	r8,r9
80002f48:	c0 e0       	breq	80002f64 <sd_mmc_spi_read_open_PDCA+0x98>
80002f4a:	e0 6b 00 ff 	mov	r11,255
80002f4e:	fe 7c 28 00 	mov	r12,-55296
80002f52:	fe b0 fb 70 	rcall	80002632 <spi_write>
80002f56:	30 2b       	mov	r11,2
80002f58:	fe 7c 28 00 	mov	r12,-55296
80002f5c:	fe b0 fa fe 	rcall	80002558 <spi_unselectChip>
80002f60:	2f fd       	sub	sp,-4
80002f62:	d8 2a       	popm	r4-r7,pc,r12=0
80002f64:	30 1c       	mov	r12,1
80002f66:	cb bb       	rjmp	80002edc <sd_mmc_spi_read_open_PDCA+0x10>
80002f68:	6e 0b       	ld.w	r11,r7[0x0]
80002f6a:	31 1c       	mov	r12,17
80002f6c:	a9 9b       	lsr	r11,0x9
80002f6e:	e0 66 22 40 	mov	r6,8768
80002f72:	c6 1e       	rcall	80002c34 <sd_mmc_spi_command>
80002f74:	ac 8c       	st.b	r6[0x0],r12
80002f76:	cc 7b       	rjmp	80002f04 <sd_mmc_spi_read_open_PDCA+0x38>

80002f78 <sd_mmc_spi_check_hc>:
80002f78:	eb cd 40 e0 	pushm	r5-r7,lr
80002f7c:	20 1d       	sub	sp,4
80002f7e:	c1 fe       	rcall	80002bbc <sd_mmc_spi_wait_not_busy>
80002f80:	c0 61       	brne	80002f8c <sd_mmc_spi_check_hc+0x14>
80002f82:	3f f7       	mov	r7,-1
80002f84:	0e 9c       	mov	r12,r7
80002f86:	2f fd       	sub	sp,-4
80002f88:	e3 cd 80 e0 	ldm	sp++,r5-r7,pc
80002f8c:	30 2b       	mov	r11,2
80002f8e:	fe 7c 28 00 	mov	r12,-55296
80002f92:	fe b0 fa bb 	rcall	80002508 <spi_selectChip>
80002f96:	30 0b       	mov	r11,0
80002f98:	33 ac       	mov	r12,58
80002f9a:	e0 66 22 40 	mov	r6,8768
80002f9e:	c4 be       	rcall	80002c34 <sd_mmc_spi_command>
80002fa0:	ac 8c       	st.b	r6[0x0],r12
80002fa2:	c5 41       	brne	8000304a <sd_mmc_spi_check_hc+0xd2>
80002fa4:	e0 6b 00 ff 	mov	r11,255
80002fa8:	fe 7c 28 00 	mov	r12,-55296
80002fac:	fe b0 fb 43 	rcall	80002632 <spi_write>
80002fb0:	fa c5 ff fe 	sub	r5,sp,-2
80002fb4:	fe 7c 28 00 	mov	r12,-55296
80002fb8:	0a 9b       	mov	r11,r5
80002fba:	fe b0 fb 4a 	rcall	8000264e <spi_read>
80002fbe:	58 1c       	cp.w	r12,1
80002fc0:	c3 a0       	breq	80003034 <sd_mmc_spi_check_hc+0xbc>
80002fc2:	1b b7       	ld.ub	r7,sp[0x3]
80002fc4:	ef d7 c0 c1 	bfextu	r7,r7,0x6,0x1
80002fc8:	e0 6b 00 ff 	mov	r11,255
80002fcc:	fe 7c 28 00 	mov	r12,-55296
80002fd0:	fe b0 fb 31 	rcall	80002632 <spi_write>
80002fd4:	0a 9b       	mov	r11,r5
80002fd6:	fe 7c 28 00 	mov	r12,-55296
80002fda:	fe b0 fb 3a 	rcall	8000264e <spi_read>
80002fde:	58 1c       	cp.w	r12,1
80002fe0:	c3 20       	breq	80003044 <sd_mmc_spi_check_hc+0xcc>
80002fe2:	1b b8       	ld.ub	r8,sp[0x3]
80002fe4:	e0 6b 00 ff 	mov	r11,255
80002fe8:	ac 88       	st.b	r6[0x0],r8
80002fea:	fe 7c 28 00 	mov	r12,-55296
80002fee:	fe b0 fb 22 	rcall	80002632 <spi_write>
80002ff2:	0a 9b       	mov	r11,r5
80002ff4:	fe 7c 28 00 	mov	r12,-55296
80002ff8:	fe b0 fb 2b 	rcall	8000264e <spi_read>
80002ffc:	58 1c       	cp.w	r12,1
80002ffe:	c2 00       	breq	8000303e <sd_mmc_spi_check_hc+0xc6>
80003000:	1b b8       	ld.ub	r8,sp[0x3]
80003002:	e0 6b 00 ff 	mov	r11,255
80003006:	ac 88       	st.b	r6[0x0],r8
80003008:	fe 7c 28 00 	mov	r12,-55296
8000300c:	fe b0 fb 13 	rcall	80002632 <spi_write>
80003010:	0a 9b       	mov	r11,r5
80003012:	fe 7c 28 00 	mov	r12,-55296
80003016:	fe b0 fb 1c 	rcall	8000264e <spi_read>
8000301a:	58 1c       	cp.w	r12,1
8000301c:	c0 e0       	breq	80003038 <sd_mmc_spi_check_hc+0xc0>
8000301e:	1b b8       	ld.ub	r8,sp[0x3]
80003020:	ac 88       	st.b	r6[0x0],r8
80003022:	30 2b       	mov	r11,2
80003024:	fe 7c 28 00 	mov	r12,-55296
80003028:	fe b0 fa 98 	rcall	80002558 <spi_unselectChip>
8000302c:	0e 9c       	mov	r12,r7
8000302e:	2f fd       	sub	sp,-4
80003030:	e3 cd 80 e0 	ldm	sp++,r5-r7,pc
80003034:	18 97       	mov	r7,r12
80003036:	cc 9b       	rjmp	80002fc8 <sd_mmc_spi_check_hc+0x50>
80003038:	e0 68 00 ff 	mov	r8,255
8000303c:	cf 2b       	rjmp	80003020 <sd_mmc_spi_check_hc+0xa8>
8000303e:	e0 68 00 ff 	mov	r8,255
80003042:	ce 0b       	rjmp	80003002 <sd_mmc_spi_check_hc+0x8a>
80003044:	e0 68 00 ff 	mov	r8,255
80003048:	cc eb       	rjmp	80002fe4 <sd_mmc_spi_check_hc+0x6c>
8000304a:	30 2b       	mov	r11,2
8000304c:	fe 7c 28 00 	mov	r12,-55296
80003050:	fe b0 fa 84 	rcall	80002558 <spi_unselectChip>
80003054:	c9 7b       	rjmp	80002f82 <sd_mmc_spi_check_hc+0xa>
80003056:	d7 03       	nop

80003058 <sd_mmc_spi_write_sector_from_ram>:
80003058:	d4 21       	pushm	r4-r7,lr
8000305a:	20 1d       	sub	sp,4
8000305c:	18 97       	mov	r7,r12
8000305e:	fe b0 fd af 	rcall	80002bbc <sd_mmc_spi_wait_not_busy>
80003062:	c0 31       	brne	80003068 <sd_mmc_spi_write_sector_from_ram+0x10>
80003064:	2f fd       	sub	sp,-4
80003066:	d8 22       	popm	r4-r7,pc
80003068:	30 2b       	mov	r11,2
8000306a:	fe 7c 28 00 	mov	r12,-55296
8000306e:	fe b0 fa 4d 	rcall	80002508 <spi_selectChip>
80003072:	e0 68 22 2e 	mov	r8,8750
80003076:	11 89       	ld.ub	r9,r8[0x0]
80003078:	30 38       	mov	r8,3
8000307a:	f0 09 18 00 	cp.b	r9,r8
8000307e:	c5 40       	breq	80003126 <sd_mmc_spi_write_sector_from_ram+0xce>
80003080:	e0 64 01 24 	mov	r4,292
80003084:	31 8c       	mov	r12,24
80003086:	68 0b       	ld.w	r11,r4[0x0]
80003088:	e0 65 22 40 	mov	r5,8768
8000308c:	fe b0 fd d4 	rcall	80002c34 <sd_mmc_spi_command>
80003090:	aa 8c       	st.b	r5[0x0],r12
80003092:	58 0c       	cp.w	r12,0
80003094:	c4 21       	brne	80003118 <sd_mmc_spi_write_sector_from_ram+0xc0>
80003096:	e0 6b 00 ff 	mov	r11,255
8000309a:	fe 7c 28 00 	mov	r12,-55296
8000309e:	fe b0 fa ca 	rcall	80002632 <spi_write>
800030a2:	e0 6b 00 fe 	mov	r11,254
800030a6:	fe 7c 28 00 	mov	r12,-55296
800030aa:	ee c6 fe 00 	sub	r6,r7,-512
800030ae:	fe b0 fa c2 	rcall	80002632 <spi_write>
800030b2:	0f 3b       	ld.ub	r11,r7++
800030b4:	fe 7c 28 00 	mov	r12,-55296
800030b8:	fe b0 fa bd 	rcall	80002632 <spi_write>
800030bc:	0c 37       	cp.w	r7,r6
800030be:	cf a1       	brne	800030b2 <sd_mmc_spi_write_sector_from_ram+0x5a>
800030c0:	e0 6b 00 ff 	mov	r11,255
800030c4:	fe 7c 28 00 	mov	r12,-55296
800030c8:	fe b0 fa b5 	rcall	80002632 <spi_write>
800030cc:	e0 6b 00 ff 	mov	r11,255
800030d0:	fe 7c 28 00 	mov	r12,-55296
800030d4:	fe b0 fa af 	rcall	80002632 <spi_write>
800030d8:	e0 6b 00 ff 	mov	r11,255
800030dc:	fe 7c 28 00 	mov	r12,-55296
800030e0:	fe b0 fa a9 	rcall	80002632 <spi_write>
800030e4:	fa cb ff fe 	sub	r11,sp,-2
800030e8:	fe 7c 28 00 	mov	r12,-55296
800030ec:	fe b0 fa b1 	rcall	8000264e <spi_read>
800030f0:	58 1c       	cp.w	r12,1
800030f2:	c5 80       	breq	800031a2 <sd_mmc_spi_write_sector_from_ram+0x14a>
800030f4:	1b b8       	ld.ub	r8,sp[0x3]
800030f6:	aa 88       	st.b	r5[0x0],r8
800030f8:	f1 d8 c0 05 	bfextu	r8,r8,0x0,0x5
800030fc:	58 58       	cp.w	r8,5
800030fe:	c1 f0       	breq	8000313c <sd_mmc_spi_write_sector_from_ram+0xe4>
80003100:	e0 6b 00 ff 	mov	r11,255
80003104:	fe 7c 28 00 	mov	r12,-55296
80003108:	fe b0 fa 95 	rcall	80002632 <spi_write>
8000310c:	e0 6b 00 ff 	mov	r11,255
80003110:	fe 7c 28 00 	mov	r12,-55296
80003114:	fe b0 fa 8f 	rcall	80002632 <spi_write>
80003118:	30 2b       	mov	r11,2
8000311a:	fe 7c 28 00 	mov	r12,-55296
8000311e:	fe b0 fa 1d 	rcall	80002558 <spi_unselectChip>
80003122:	2f fd       	sub	sp,-4
80003124:	d8 2a       	popm	r4-r7,pc,r12=0
80003126:	e0 64 01 24 	mov	r4,292
8000312a:	31 8c       	mov	r12,24
8000312c:	68 0b       	ld.w	r11,r4[0x0]
8000312e:	e0 65 22 40 	mov	r5,8768
80003132:	a9 9b       	lsr	r11,0x9
80003134:	fe b0 fd 80 	rcall	80002c34 <sd_mmc_spi_command>
80003138:	aa 8c       	st.b	r5[0x0],r12
8000313a:	ca cb       	rjmp	80003092 <sd_mmc_spi_write_sector_from_ram+0x3a>
8000313c:	e0 6b 00 ff 	mov	r11,255
80003140:	fe 7c 28 00 	mov	r12,-55296
80003144:	fe b0 fa 77 	rcall	80002632 <spi_write>
80003148:	e0 6b 00 ff 	mov	r11,255
8000314c:	fe 7c 28 00 	mov	r12,-55296
80003150:	fe b0 fa 71 	rcall	80002632 <spi_write>
80003154:	30 2b       	mov	r11,2
80003156:	fe 7c 28 00 	mov	r12,-55296
8000315a:	fe b0 f9 ff 	rcall	80002558 <spi_unselectChip>
8000315e:	68 08       	ld.w	r8,r4[0x0]
80003160:	f0 c8 fe 00 	sub	r8,r8,-512
80003164:	89 08       	st.w	r4[0x0],r8
80003166:	fe b0 fd 2b 	rcall	80002bbc <sd_mmc_spi_wait_not_busy>
8000316a:	c1 f1       	brne	800031a8 <sd_mmc_spi_write_sector_from_ram+0x150>
8000316c:	fe b0 fd 28 	rcall	80002bbc <sd_mmc_spi_wait_not_busy>
80003170:	c1 c1       	brne	800031a8 <sd_mmc_spi_write_sector_from_ram+0x150>
80003172:	fe b0 fd 25 	rcall	80002bbc <sd_mmc_spi_wait_not_busy>
80003176:	c1 91       	brne	800031a8 <sd_mmc_spi_write_sector_from_ram+0x150>
80003178:	fe b0 fd 22 	rcall	80002bbc <sd_mmc_spi_wait_not_busy>
8000317c:	c1 61       	brne	800031a8 <sd_mmc_spi_write_sector_from_ram+0x150>
8000317e:	fe b0 fd 1f 	rcall	80002bbc <sd_mmc_spi_wait_not_busy>
80003182:	c1 31       	brne	800031a8 <sd_mmc_spi_write_sector_from_ram+0x150>
80003184:	fe b0 fd 1c 	rcall	80002bbc <sd_mmc_spi_wait_not_busy>
80003188:	c1 01       	brne	800031a8 <sd_mmc_spi_write_sector_from_ram+0x150>
8000318a:	fe b0 fd 19 	rcall	80002bbc <sd_mmc_spi_wait_not_busy>
8000318e:	c0 d1       	brne	800031a8 <sd_mmc_spi_write_sector_from_ram+0x150>
80003190:	fe b0 fd 16 	rcall	80002bbc <sd_mmc_spi_wait_not_busy>
80003194:	c0 a1       	brne	800031a8 <sd_mmc_spi_write_sector_from_ram+0x150>
80003196:	fe b0 fd 13 	rcall	80002bbc <sd_mmc_spi_wait_not_busy>
8000319a:	c0 71       	brne	800031a8 <sd_mmc_spi_write_sector_from_ram+0x150>
8000319c:	fe b0 fd 10 	rcall	80002bbc <sd_mmc_spi_wait_not_busy>
800031a0:	c6 2b       	rjmp	80003064 <sd_mmc_spi_write_sector_from_ram+0xc>
800031a2:	3f f8       	mov	r8,-1
800031a4:	aa 88       	st.b	r5[0x0],r8
800031a6:	ca db       	rjmp	80003100 <sd_mmc_spi_write_sector_from_ram+0xa8>
800031a8:	30 1c       	mov	r12,1
800031aa:	c5 db       	rjmp	80003064 <sd_mmc_spi_write_sector_from_ram+0xc>

800031ac <sd_mmc_spi_get_if>:
800031ac:	eb cd 40 e0 	pushm	r5-r7,lr
800031b0:	20 1d       	sub	sp,4
800031b2:	fe b0 fd 05 	rcall	80002bbc <sd_mmc_spi_wait_not_busy>
800031b6:	c0 51       	brne	800031c0 <sd_mmc_spi_get_if+0x14>
800031b8:	3f fc       	mov	r12,-1
800031ba:	2f fd       	sub	sp,-4
800031bc:	e3 cd 80 e0 	ldm	sp++,r5-r7,pc
800031c0:	30 2b       	mov	r11,2
800031c2:	fe 7c 28 00 	mov	r12,-55296
800031c6:	fe b0 f9 a1 	rcall	80002508 <spi_selectChip>
800031ca:	e0 6b 01 aa 	mov	r11,426
800031ce:	e0 67 22 40 	mov	r7,8768
800031d2:	30 8c       	mov	r12,8
800031d4:	fe b0 fd 30 	rcall	80002c34 <sd_mmc_spi_command>
800031d8:	ae 8c       	st.b	r7[0x0],r12
800031da:	ed bc 00 02 	bld	r12,0x2
800031de:	c5 00       	breq	8000327e <sd_mmc_spi_get_if+0xd2>
800031e0:	e0 6b 00 ff 	mov	r11,255
800031e4:	fe 7c 28 00 	mov	r12,-55296
800031e8:	fe b0 fa 25 	rcall	80002632 <spi_write>
800031ec:	fa c6 ff fe 	sub	r6,sp,-2
800031f0:	fe 7c 28 00 	mov	r12,-55296
800031f4:	0c 9b       	mov	r11,r6
800031f6:	fe b0 fa 2c 	rcall	8000264e <spi_read>
800031fa:	58 1c       	cp.w	r12,1
800031fc:	c4 90       	breq	8000328e <sd_mmc_spi_get_if+0xe2>
800031fe:	1b b8       	ld.ub	r8,sp[0x3]
80003200:	e0 6b 00 ff 	mov	r11,255
80003204:	ae 88       	st.b	r7[0x0],r8
80003206:	fe 7c 28 00 	mov	r12,-55296
8000320a:	fe b0 fa 14 	rcall	80002632 <spi_write>
8000320e:	0c 9b       	mov	r11,r6
80003210:	fe 7c 28 00 	mov	r12,-55296
80003214:	fe b0 fa 1d 	rcall	8000264e <spi_read>
80003218:	58 1c       	cp.w	r12,1
8000321a:	c4 00       	breq	8000329a <sd_mmc_spi_get_if+0xee>
8000321c:	1b b8       	ld.ub	r8,sp[0x3]
8000321e:	e0 6b 00 ff 	mov	r11,255
80003222:	ae 88       	st.b	r7[0x0],r8
80003224:	fe 7c 28 00 	mov	r12,-55296
80003228:	fe b0 fa 05 	rcall	80002632 <spi_write>
8000322c:	0c 9b       	mov	r11,r6
8000322e:	fe 7c 28 00 	mov	r12,-55296
80003232:	e0 65 22 40 	mov	r5,8768
80003236:	fe b0 fa 0c 	rcall	8000264e <spi_read>
8000323a:	58 1c       	cp.w	r12,1
8000323c:	c2 c0       	breq	80003294 <sd_mmc_spi_get_if+0xe8>
8000323e:	1b b8       	ld.ub	r8,sp[0x3]
80003240:	aa 88       	st.b	r5[0x0],r8
80003242:	ed b8 00 00 	bld	r8,0x0
80003246:	c3 61       	brne	800032b2 <sd_mmc_spi_get_if+0x106>
80003248:	e0 6b 00 ff 	mov	r11,255
8000324c:	fe 7c 28 00 	mov	r12,-55296
80003250:	fe b0 f9 f1 	rcall	80002632 <spi_write>
80003254:	0c 9b       	mov	r11,r6
80003256:	fe 7c 28 00 	mov	r12,-55296
8000325a:	fe b0 f9 fa 	rcall	8000264e <spi_read>
8000325e:	58 1c       	cp.w	r12,1
80003260:	c2 00       	breq	800032a0 <sd_mmc_spi_get_if+0xf4>
80003262:	1b b8       	ld.ub	r8,sp[0x3]
80003264:	ae 88       	st.b	r7[0x0],r8
80003266:	3a a9       	mov	r9,-86
80003268:	f2 08 18 00 	cp.b	r8,r9
8000326c:	c1 c1       	brne	800032a4 <sd_mmc_spi_get_if+0xf8>
8000326e:	30 2b       	mov	r11,2
80003270:	fe 7c 28 00 	mov	r12,-55296
80003274:	fe b0 f9 72 	rcall	80002558 <spi_unselectChip>
80003278:	2f fd       	sub	sp,-4
8000327a:	e3 cf 90 e0 	ldm	sp++,r5-r7,pc,r12=1
8000327e:	30 2b       	mov	r11,2
80003280:	fe 7c 28 00 	mov	r12,-55296
80003284:	fe b0 f9 6a 	rcall	80002558 <spi_unselectChip>
80003288:	2f fd       	sub	sp,-4
8000328a:	e3 cf 80 e0 	ldm	sp++,r5-r7,pc,r12=0
8000328e:	e0 68 00 ff 	mov	r8,255
80003292:	cb 7b       	rjmp	80003200 <sd_mmc_spi_get_if+0x54>
80003294:	3f f8       	mov	r8,-1
80003296:	aa 88       	st.b	r5[0x0],r8
80003298:	cd 8b       	rjmp	80003248 <sd_mmc_spi_get_if+0x9c>
8000329a:	e0 68 00 ff 	mov	r8,255
8000329e:	cc 0b       	rjmp	8000321e <sd_mmc_spi_get_if+0x72>
800032a0:	3f f8       	mov	r8,-1
800032a2:	ae 88       	st.b	r7[0x0],r8
800032a4:	30 2b       	mov	r11,2
800032a6:	fe 7c 28 00 	mov	r12,-55296
800032aa:	fe b0 f9 57 	rcall	80002558 <spi_unselectChip>
800032ae:	3f fc       	mov	r12,-1
800032b0:	c8 5b       	rjmp	800031ba <sd_mmc_spi_get_if+0xe>
800032b2:	30 2b       	mov	r11,2
800032b4:	fe 7c 28 00 	mov	r12,-55296
800032b8:	fe b0 f9 50 	rcall	80002558 <spi_unselectChip>
800032bc:	c7 eb       	rjmp	800031b8 <sd_mmc_spi_get_if+0xc>
800032be:	d7 03       	nop

800032c0 <sd_mmc_spi_internal_init>:
800032c0:	d4 31       	pushm	r0-r7,lr
800032c2:	20 1d       	sub	sp,4
800032c4:	e6 68 1a 80 	mov	r8,400000
800032c8:	e0 69 01 38 	mov	r9,312
800032cc:	e0 67 01 28 	mov	r7,296
800032d0:	72 0a       	ld.w	r10,r9[0x0]
800032d2:	8f 18       	st.w	r7[0x4],r8
800032d4:	0e 9b       	mov	r11,r7
800032d6:	fe 7c 28 00 	mov	r12,-55296
800032da:	fe b0 f9 53 	rcall	80002580 <spi_setupChipReg>
800032de:	30 2b       	mov	r11,2
800032e0:	fe 7c 28 00 	mov	r12,-55296
800032e4:	fe b0 f9 12 	rcall	80002508 <spi_selectChip>
800032e8:	e0 6b 00 ff 	mov	r11,255
800032ec:	fe 7c 28 00 	mov	r12,-55296
800032f0:	fe b0 f9 a1 	rcall	80002632 <spi_write>
800032f4:	e0 6b 00 ff 	mov	r11,255
800032f8:	fe 7c 28 00 	mov	r12,-55296
800032fc:	fe b0 f9 9b 	rcall	80002632 <spi_write>
80003300:	e0 6b 00 ff 	mov	r11,255
80003304:	fe 7c 28 00 	mov	r12,-55296
80003308:	fe b0 f9 95 	rcall	80002632 <spi_write>
8000330c:	e0 6b 00 ff 	mov	r11,255
80003310:	fe 7c 28 00 	mov	r12,-55296
80003314:	fe b0 f9 8f 	rcall	80002632 <spi_write>
80003318:	e0 6b 00 ff 	mov	r11,255
8000331c:	fe 7c 28 00 	mov	r12,-55296
80003320:	fe b0 f9 89 	rcall	80002632 <spi_write>
80003324:	e0 6b 00 ff 	mov	r11,255
80003328:	fe 7c 28 00 	mov	r12,-55296
8000332c:	fe b0 f9 83 	rcall	80002632 <spi_write>
80003330:	e0 6b 00 ff 	mov	r11,255
80003334:	fe 7c 28 00 	mov	r12,-55296
80003338:	fe b0 f9 7d 	rcall	80002632 <spi_write>
8000333c:	e0 6b 00 ff 	mov	r11,255
80003340:	fe 7c 28 00 	mov	r12,-55296
80003344:	fe b0 f9 77 	rcall	80002632 <spi_write>
80003348:	e0 6b 00 ff 	mov	r11,255
8000334c:	fe 7c 28 00 	mov	r12,-55296
80003350:	fe b0 f9 71 	rcall	80002632 <spi_write>
80003354:	e0 6b 00 ff 	mov	r11,255
80003358:	fe 7c 28 00 	mov	r12,-55296
8000335c:	fe b0 f9 6b 	rcall	80002632 <spi_write>
80003360:	30 2b       	mov	r11,2
80003362:	fe 7c 28 00 	mov	r12,-55296
80003366:	fe b0 f8 f9 	rcall	80002558 <spi_unselectChip>
8000336a:	30 08       	mov	r8,0
8000336c:	e0 69 01 3c 	mov	r9,316
80003370:	30 2b       	mov	r11,2
80003372:	b2 88       	st.b	r9[0x0],r8
80003374:	e0 61 22 2e 	mov	r1,8750
80003378:	fe 7c 28 00 	mov	r12,-55296
8000337c:	a2 88       	st.b	r1[0x0],r8
8000337e:	fe b0 f8 c5 	rcall	80002508 <spi_selectChip>
80003382:	30 0b       	mov	r11,0
80003384:	16 9c       	mov	r12,r11
80003386:	fe b0 fc 57 	rcall	80002c34 <sd_mmc_spi_command>
8000338a:	e0 66 22 40 	mov	r6,8768
8000338e:	30 2b       	mov	r11,2
80003390:	ac 8c       	st.b	r6[0x0],r12
80003392:	fe 7c 28 00 	mov	r12,-55296
80003396:	fe b0 f8 e1 	rcall	80002558 <spi_unselectChip>
8000339a:	e0 6b 00 ff 	mov	r11,255
8000339e:	fe 7c 28 00 	mov	r12,-55296
800033a2:	30 05       	mov	r5,0
800033a4:	fe b0 f9 47 	rcall	80002632 <spi_write>
800033a8:	0c 90       	mov	r0,r6
800033aa:	30 12       	mov	r2,1
800033ac:	c1 78       	rjmp	800033da <sd_mmc_spi_internal_init+0x11a>
800033ae:	fe b0 f8 ad 	rcall	80002508 <spi_selectChip>
800033b2:	30 0b       	mov	r11,0
800033b4:	16 9c       	mov	r12,r11
800033b6:	fe b0 fc 3f 	rcall	80002c34 <sd_mmc_spi_command>
800033ba:	30 2b       	mov	r11,2
800033bc:	a0 8c       	st.b	r0[0x0],r12
800033be:	fe 7c 28 00 	mov	r12,-55296
800033c2:	fe b0 f8 cb 	rcall	80002558 <spi_unselectChip>
800033c6:	e0 6b 00 ff 	mov	r11,255
800033ca:	fe 7c 28 00 	mov	r12,-55296
800033ce:	fe b0 f9 32 	rcall	80002632 <spi_write>
800033d2:	e0 45 00 64 	cp.w	r5,100
800033d6:	e0 80 00 b4 	breq	8000353e <sd_mmc_spi_internal_init+0x27e>
800033da:	30 2b       	mov	r11,2
800033dc:	fe 7c 28 00 	mov	r12,-55296
800033e0:	2f f5       	sub	r5,-1
800033e2:	0d 84       	ld.ub	r4,r6[0x0]
800033e4:	e0 63 22 40 	mov	r3,8768
800033e8:	e4 04 18 00 	cp.b	r4,r2
800033ec:	ce 11       	brne	800033ae <sd_mmc_spi_internal_init+0xee>
800033ee:	cd fe       	rcall	800031ac <sd_mmc_spi_get_if>
800033f0:	5b fc       	cp.w	r12,-1
800033f2:	e0 80 00 a6 	breq	8000353e <sd_mmc_spi_internal_init+0x27e>
800033f6:	58 1c       	cp.w	r12,1
800033f8:	e0 80 00 a6 	breq	80003544 <sd_mmc_spi_internal_init+0x284>
800033fc:	30 2b       	mov	r11,2
800033fe:	fe 7c 28 00 	mov	r12,-55296
80003402:	fe b0 f8 83 	rcall	80002508 <spi_selectChip>
80003406:	30 0b       	mov	r11,0
80003408:	33 7c       	mov	r12,55
8000340a:	fe b0 fc 15 	rcall	80002c34 <sd_mmc_spi_command>
8000340e:	30 2b       	mov	r11,2
80003410:	a6 8c       	st.b	r3[0x0],r12
80003412:	fe 7c 28 00 	mov	r12,-55296
80003416:	fe b0 f8 a1 	rcall	80002558 <spi_unselectChip>
8000341a:	e0 6b 00 ff 	mov	r11,255
8000341e:	fe 7c 28 00 	mov	r12,-55296
80003422:	fe b0 f9 08 	rcall	80002632 <spi_write>
80003426:	30 2b       	mov	r11,2
80003428:	fe 7c 28 00 	mov	r12,-55296
8000342c:	fe b0 f8 6e 	rcall	80002508 <spi_selectChip>
80003430:	30 0b       	mov	r11,0
80003432:	32 9c       	mov	r12,41
80003434:	fe b0 fc 00 	rcall	80002c34 <sd_mmc_spi_command>
80003438:	30 2b       	mov	r11,2
8000343a:	a6 8c       	st.b	r3[0x0],r12
8000343c:	fe 7c 28 00 	mov	r12,-55296
80003440:	fe b0 f8 8c 	rcall	80002558 <spi_unselectChip>
80003444:	e0 6b 00 ff 	mov	r11,255
80003448:	fe 7c 28 00 	mov	r12,-55296
8000344c:	fe b0 f8 f3 	rcall	80002632 <spi_write>
80003450:	07 88       	ld.ub	r8,r3[0x0]
80003452:	e2 18 00 fe 	andl	r8,0xfe,COH
80003456:	e0 80 00 d3 	breq	800035fc <sd_mmc_spi_internal_init+0x33c>
8000345a:	30 08       	mov	r8,0
8000345c:	30 2b       	mov	r11,2
8000345e:	a2 88       	st.b	r1[0x0],r8
80003460:	fe 7c 28 00 	mov	r12,-55296
80003464:	fe b0 f8 52 	rcall	80002508 <spi_selectChip>
80003468:	30 0b       	mov	r11,0
8000346a:	16 9c       	mov	r12,r11
8000346c:	fe b0 fb e4 	rcall	80002c34 <sd_mmc_spi_command>
80003470:	30 2b       	mov	r11,2
80003472:	a6 8c       	st.b	r3[0x0],r12
80003474:	fe 7c 28 00 	mov	r12,-55296
80003478:	fe b0 f8 70 	rcall	80002558 <spi_unselectChip>
8000347c:	e0 6b 00 ff 	mov	r11,255
80003480:	fe 7c 28 00 	mov	r12,-55296
80003484:	30 05       	mov	r5,0
80003486:	fe b0 f8 d6 	rcall	80002632 <spi_write>
8000348a:	30 14       	mov	r4,1
8000348c:	c1 68       	rjmp	800034b8 <sd_mmc_spi_internal_init+0x1f8>
8000348e:	fe b0 f8 3d 	rcall	80002508 <spi_selectChip>
80003492:	30 0b       	mov	r11,0
80003494:	16 9c       	mov	r12,r11
80003496:	fe b0 fb cf 	rcall	80002c34 <sd_mmc_spi_command>
8000349a:	30 2b       	mov	r11,2
8000349c:	a6 8c       	st.b	r3[0x0],r12
8000349e:	fe 7c 28 00 	mov	r12,-55296
800034a2:	fe b0 f8 5b 	rcall	80002558 <spi_unselectChip>
800034a6:	e0 6b 00 ff 	mov	r11,255
800034aa:	fe 7c 28 00 	mov	r12,-55296
800034ae:	fe b0 f8 c2 	rcall	80002632 <spi_write>
800034b2:	e0 45 00 64 	cp.w	r5,100
800034b6:	c4 40       	breq	8000353e <sd_mmc_spi_internal_init+0x27e>
800034b8:	30 2b       	mov	r11,2
800034ba:	fe 7c 28 00 	mov	r12,-55296
800034be:	2f f5       	sub	r5,-1
800034c0:	0d 88       	ld.ub	r8,r6[0x0]
800034c2:	e8 08 18 00 	cp.b	r8,r4
800034c6:	ce 41       	brne	8000348e <sd_mmc_spi_internal_init+0x1ce>
800034c8:	03 88       	ld.ub	r8,r1[0x0]
800034ca:	c4 08       	rjmp	8000354a <sd_mmc_spi_internal_init+0x28a>
800034cc:	03 89       	ld.ub	r9,r1[0x0]
800034ce:	30 28       	mov	r8,2
800034d0:	f0 09 18 00 	cp.b	r9,r8
800034d4:	e0 80 01 77 	breq	800037c2 <sd_mmc_spi_internal_init+0x502>
800034d8:	30 2b       	mov	r11,2
800034da:	fe 7c 28 00 	mov	r12,-55296
800034de:	fe b0 f8 15 	rcall	80002508 <spi_selectChip>
800034e2:	30 0b       	mov	r11,0
800034e4:	33 bc       	mov	r12,59
800034e6:	fe b0 fb a7 	rcall	80002c34 <sd_mmc_spi_command>
800034ea:	30 2b       	mov	r11,2
800034ec:	ac 8c       	st.b	r6[0x0],r12
800034ee:	fe 7c 28 00 	mov	r12,-55296
800034f2:	fe b0 f8 33 	rcall	80002558 <spi_unselectChip>
800034f6:	e0 6b 00 ff 	mov	r11,255
800034fa:	fe 7c 28 00 	mov	r12,-55296
800034fe:	fe b0 f8 9a 	rcall	80002632 <spi_write>
80003502:	30 2b       	mov	r11,2
80003504:	fe 7c 28 00 	mov	r12,-55296
80003508:	fe b0 f8 00 	rcall	80002508 <spi_selectChip>
8000350c:	e0 6b 02 00 	mov	r11,512
80003510:	31 0c       	mov	r12,16
80003512:	fe b0 fb 91 	rcall	80002c34 <sd_mmc_spi_command>
80003516:	30 2b       	mov	r11,2
80003518:	ac 8c       	st.b	r6[0x0],r12
8000351a:	fe 7c 28 00 	mov	r12,-55296
8000351e:	fe b0 f8 1d 	rcall	80002558 <spi_unselectChip>
80003522:	e0 6b 00 ff 	mov	r11,255
80003526:	fe 7c 28 00 	mov	r12,-55296
8000352a:	e0 64 22 40 	mov	r4,8768
8000352e:	fe b0 f8 82 	rcall	80002632 <spi_write>
80003532:	0d 85       	ld.ub	r5,r6[0x0]
80003534:	58 05       	cp.w	r5,0
80003536:	c0 41       	brne	8000353e <sd_mmc_spi_internal_init+0x27e>
80003538:	fe b0 fb 42 	rcall	80002bbc <sd_mmc_spi_wait_not_busy>
8000353c:	c6 31       	brne	80003602 <sd_mmc_spi_internal_init+0x342>
8000353e:	30 0c       	mov	r12,0
80003540:	2f fd       	sub	sp,-4
80003542:	d8 32       	popm	r0-r7,pc
80003544:	30 28       	mov	r8,2
80003546:	a2 88       	st.b	r1[0x0],r8
80003548:	30 28       	mov	r8,2
8000354a:	30 05       	mov	r5,0
8000354c:	30 14       	mov	r4,1
8000354e:	30 23       	mov	r3,2
80003550:	c1 d8       	rjmp	8000358a <sd_mmc_spi_internal_init+0x2ca>
80003552:	fe b0 f7 db 	rcall	80002508 <spi_selectChip>
80003556:	30 0b       	mov	r11,0
80003558:	30 1c       	mov	r12,1
8000355a:	fe b0 fb 6d 	rcall	80002c34 <sd_mmc_spi_command>
8000355e:	30 2b       	mov	r11,2
80003560:	ac 8c       	st.b	r6[0x0],r12
80003562:	fe 7c 28 00 	mov	r12,-55296
80003566:	fe b0 f7 f9 	rcall	80002558 <spi_unselectChip>
8000356a:	e0 6b 00 ff 	mov	r11,255
8000356e:	fe 7c 28 00 	mov	r12,-55296
80003572:	fe b0 f8 60 	rcall	80002632 <spi_write>
80003576:	e0 45 c3 4f 	cp.w	r5,49999
8000357a:	ce 20       	breq	8000353e <sd_mmc_spi_internal_init+0x27e>
8000357c:	2f f5       	sub	r5,-1
8000357e:	0d 89       	ld.ub	r9,r6[0x0]
80003580:	30 08       	mov	r8,0
80003582:	f0 09 18 00 	cp.b	r9,r8
80003586:	ca 30       	breq	800034cc <sd_mmc_spi_internal_init+0x20c>
80003588:	03 88       	ld.ub	r8,r1[0x0]
8000358a:	e8 08 18 00 	cp.b	r8,r4
8000358e:	c2 00       	breq	800035ce <sd_mmc_spi_internal_init+0x30e>
80003590:	30 2b       	mov	r11,2
80003592:	fe 7c 28 00 	mov	r12,-55296
80003596:	cd e3       	brcs	80003552 <sd_mmc_spi_internal_init+0x292>
80003598:	e6 08 18 00 	cp.b	r8,r3
8000359c:	ce d1       	brne	80003576 <sd_mmc_spi_internal_init+0x2b6>
8000359e:	30 2b       	mov	r11,2
800035a0:	fe 7c 28 00 	mov	r12,-55296
800035a4:	fe b0 f7 b2 	rcall	80002508 <spi_selectChip>
800035a8:	30 0b       	mov	r11,0
800035aa:	33 7c       	mov	r12,55
800035ac:	fe b0 fb 44 	rcall	80002c34 <sd_mmc_spi_command>
800035b0:	30 2b       	mov	r11,2
800035b2:	ac 8c       	st.b	r6[0x0],r12
800035b4:	fe 7c 28 00 	mov	r12,-55296
800035b8:	fe b0 f7 d0 	rcall	80002558 <spi_unselectChip>
800035bc:	30 2b       	mov	r11,2
800035be:	fe 7c 28 00 	mov	r12,-55296
800035c2:	fe b0 f7 a3 	rcall	80002508 <spi_selectChip>
800035c6:	fc 1b 40 00 	movh	r11,0x4000
800035ca:	32 9c       	mov	r12,41
800035cc:	cc 7b       	rjmp	8000355a <sd_mmc_spi_internal_init+0x29a>
800035ce:	30 2b       	mov	r11,2
800035d0:	fe 7c 28 00 	mov	r12,-55296
800035d4:	fe b0 f7 9a 	rcall	80002508 <spi_selectChip>
800035d8:	30 0b       	mov	r11,0
800035da:	33 7c       	mov	r12,55
800035dc:	fe b0 fb 2c 	rcall	80002c34 <sd_mmc_spi_command>
800035e0:	30 2b       	mov	r11,2
800035e2:	ac 8c       	st.b	r6[0x0],r12
800035e4:	fe 7c 28 00 	mov	r12,-55296
800035e8:	fe b0 f7 b8 	rcall	80002558 <spi_unselectChip>
800035ec:	30 2b       	mov	r11,2
800035ee:	fe 7c 28 00 	mov	r12,-55296
800035f2:	fe b0 f7 8b 	rcall	80002508 <spi_selectChip>
800035f6:	30 0b       	mov	r11,0
800035f8:	32 9c       	mov	r12,41
800035fa:	cb 0b       	rjmp	8000355a <sd_mmc_spi_internal_init+0x29a>
800035fc:	a2 84       	st.b	r1[0x0],r4
800035fe:	30 18       	mov	r8,1
80003600:	ca 5b       	rjmp	8000354a <sd_mmc_spi_internal_init+0x28a>
80003602:	30 2b       	mov	r11,2
80003604:	fe 7c 28 00 	mov	r12,-55296
80003608:	fe b0 f7 80 	rcall	80002508 <spi_selectChip>
8000360c:	30 0b       	mov	r11,0
8000360e:	30 9c       	mov	r12,9
80003610:	fe b0 fb 12 	rcall	80002c34 <sd_mmc_spi_command>
80003614:	a8 8c       	st.b	r4[0x0],r12
80003616:	e0 81 01 f1 	brne	800039f8 <sd_mmc_spi_internal_init+0x738>
8000361a:	e0 6b 00 ff 	mov	r11,255
8000361e:	fe 7c 28 00 	mov	r12,-55296
80003622:	fe b0 f8 08 	rcall	80002632 <spi_write>
80003626:	1a 95       	mov	r5,sp
80003628:	fe 7c 28 00 	mov	r12,-55296
8000362c:	1a 9b       	mov	r11,sp
8000362e:	fe b0 f8 10 	rcall	8000264e <spi_read>
80003632:	58 1c       	cp.w	r12,1
80003634:	e0 80 01 ed 	breq	80003a0e <sd_mmc_spi_internal_init+0x74e>
80003638:	1b 98       	ld.ub	r8,sp[0x1]
8000363a:	a8 88       	st.b	r4[0x0],r8
8000363c:	3f e9       	mov	r9,-2
8000363e:	f2 08 18 00 	cp.b	r8,r9
80003642:	e0 80 00 d1 	breq	800037e4 <sd_mmc_spi_internal_init+0x524>
80003646:	e0 6b 00 ff 	mov	r11,255
8000364a:	fe 7c 28 00 	mov	r12,-55296
8000364e:	fe b0 f7 f2 	rcall	80002632 <spi_write>
80003652:	1a 9b       	mov	r11,sp
80003654:	fe 7c 28 00 	mov	r12,-55296
80003658:	fe b0 f7 fb 	rcall	8000264e <spi_read>
8000365c:	58 1c       	cp.w	r12,1
8000365e:	e0 80 00 c0 	breq	800037de <sd_mmc_spi_internal_init+0x51e>
80003662:	1b 98       	ld.ub	r8,sp[0x1]
80003664:	ac 88       	st.b	r6[0x0],r8
80003666:	3f e9       	mov	r9,-2
80003668:	f2 08 18 00 	cp.b	r8,r9
8000366c:	e0 80 00 bc 	breq	800037e4 <sd_mmc_spi_internal_init+0x524>
80003670:	e0 6b 00 ff 	mov	r11,255
80003674:	fe 7c 28 00 	mov	r12,-55296
80003678:	fe b0 f7 dd 	rcall	80002632 <spi_write>
8000367c:	1a 9b       	mov	r11,sp
8000367e:	fe 7c 28 00 	mov	r12,-55296
80003682:	fe b0 f7 e6 	rcall	8000264e <spi_read>
80003686:	58 1c       	cp.w	r12,1
80003688:	e0 80 01 cb 	breq	80003a1e <sd_mmc_spi_internal_init+0x75e>
8000368c:	1b 98       	ld.ub	r8,sp[0x1]
8000368e:	ac 88       	st.b	r6[0x0],r8
80003690:	3f e9       	mov	r9,-2
80003692:	f2 08 18 00 	cp.b	r8,r9
80003696:	e0 80 00 a7 	breq	800037e4 <sd_mmc_spi_internal_init+0x524>
8000369a:	e0 6b 00 ff 	mov	r11,255
8000369e:	fe 7c 28 00 	mov	r12,-55296
800036a2:	fe b0 f7 c8 	rcall	80002632 <spi_write>
800036a6:	1a 9b       	mov	r11,sp
800036a8:	fe 7c 28 00 	mov	r12,-55296
800036ac:	fe b0 f7 d1 	rcall	8000264e <spi_read>
800036b0:	58 1c       	cp.w	r12,1
800036b2:	e0 80 01 b2 	breq	80003a16 <sd_mmc_spi_internal_init+0x756>
800036b6:	1b 98       	ld.ub	r8,sp[0x1]
800036b8:	ac 88       	st.b	r6[0x0],r8
800036ba:	3f e9       	mov	r9,-2
800036bc:	f2 08 18 00 	cp.b	r8,r9
800036c0:	e0 80 00 92 	breq	800037e4 <sd_mmc_spi_internal_init+0x524>
800036c4:	e0 6b 00 ff 	mov	r11,255
800036c8:	fe 7c 28 00 	mov	r12,-55296
800036cc:	fe b0 f7 b3 	rcall	80002632 <spi_write>
800036d0:	1a 9b       	mov	r11,sp
800036d2:	fe 7c 28 00 	mov	r12,-55296
800036d6:	fe b0 f7 bc 	rcall	8000264e <spi_read>
800036da:	58 1c       	cp.w	r12,1
800036dc:	e0 80 01 a9 	breq	80003a2e <sd_mmc_spi_internal_init+0x76e>
800036e0:	1b 98       	ld.ub	r8,sp[0x1]
800036e2:	ac 88       	st.b	r6[0x0],r8
800036e4:	3f e9       	mov	r9,-2
800036e6:	f2 08 18 00 	cp.b	r8,r9
800036ea:	c7 d0       	breq	800037e4 <sd_mmc_spi_internal_init+0x524>
800036ec:	e0 6b 00 ff 	mov	r11,255
800036f0:	fe 7c 28 00 	mov	r12,-55296
800036f4:	fe b0 f7 9f 	rcall	80002632 <spi_write>
800036f8:	1a 9b       	mov	r11,sp
800036fa:	fe 7c 28 00 	mov	r12,-55296
800036fe:	fe b0 f7 a8 	rcall	8000264e <spi_read>
80003702:	58 1c       	cp.w	r12,1
80003704:	e0 80 01 91 	breq	80003a26 <sd_mmc_spi_internal_init+0x766>
80003708:	1b 98       	ld.ub	r8,sp[0x1]
8000370a:	ac 88       	st.b	r6[0x0],r8
8000370c:	3f e9       	mov	r9,-2
8000370e:	f2 08 18 00 	cp.b	r8,r9
80003712:	c6 90       	breq	800037e4 <sd_mmc_spi_internal_init+0x524>
80003714:	e0 6b 00 ff 	mov	r11,255
80003718:	fe 7c 28 00 	mov	r12,-55296
8000371c:	fe b0 f7 8b 	rcall	80002632 <spi_write>
80003720:	1a 9b       	mov	r11,sp
80003722:	fe 7c 28 00 	mov	r12,-55296
80003726:	fe b0 f7 94 	rcall	8000264e <spi_read>
8000372a:	58 1c       	cp.w	r12,1
8000372c:	e0 80 01 85 	breq	80003a36 <sd_mmc_spi_internal_init+0x776>
80003730:	1b 98       	ld.ub	r8,sp[0x1]
80003732:	ac 88       	st.b	r6[0x0],r8
80003734:	3f e9       	mov	r9,-2
80003736:	f2 08 18 00 	cp.b	r8,r9
8000373a:	c5 50       	breq	800037e4 <sd_mmc_spi_internal_init+0x524>
8000373c:	e0 6b 00 ff 	mov	r11,255
80003740:	fe 7c 28 00 	mov	r12,-55296
80003744:	fe b0 f7 77 	rcall	80002632 <spi_write>
80003748:	1a 9b       	mov	r11,sp
8000374a:	fe 7c 28 00 	mov	r12,-55296
8000374e:	fe b0 f7 80 	rcall	8000264e <spi_read>
80003752:	58 1c       	cp.w	r12,1
80003754:	e0 80 01 75 	breq	80003a3e <sd_mmc_spi_internal_init+0x77e>
80003758:	1b 98       	ld.ub	r8,sp[0x1]
8000375a:	ac 88       	st.b	r6[0x0],r8
8000375c:	3f e9       	mov	r9,-2
8000375e:	f2 08 18 00 	cp.b	r8,r9
80003762:	c4 10       	breq	800037e4 <sd_mmc_spi_internal_init+0x524>
80003764:	e0 6b 00 ff 	mov	r11,255
80003768:	fe 7c 28 00 	mov	r12,-55296
8000376c:	fe b0 f7 63 	rcall	80002632 <spi_write>
80003770:	1a 9b       	mov	r11,sp
80003772:	fe 7c 28 00 	mov	r12,-55296
80003776:	fe b0 f7 6c 	rcall	8000264e <spi_read>
8000377a:	58 1c       	cp.w	r12,1
8000377c:	e0 80 01 68 	breq	80003a4c <sd_mmc_spi_internal_init+0x78c>
80003780:	1b 98       	ld.ub	r8,sp[0x1]
80003782:	ac 88       	st.b	r6[0x0],r8
80003784:	3f e9       	mov	r9,-2
80003786:	f2 08 18 00 	cp.b	r8,r9
8000378a:	c2 d0       	breq	800037e4 <sd_mmc_spi_internal_init+0x524>
8000378c:	e0 6b 00 ff 	mov	r11,255
80003790:	fe 7c 28 00 	mov	r12,-55296
80003794:	fe b0 f7 4f 	rcall	80002632 <spi_write>
80003798:	1a 9b       	mov	r11,sp
8000379a:	fe 7c 28 00 	mov	r12,-55296
8000379e:	fe b0 f7 58 	rcall	8000264e <spi_read>
800037a2:	58 1c       	cp.w	r12,1
800037a4:	e0 80 01 51 	breq	80003a46 <sd_mmc_spi_internal_init+0x786>
800037a8:	1b 98       	ld.ub	r8,sp[0x1]
800037aa:	ac 88       	st.b	r6[0x0],r8
800037ac:	3f e9       	mov	r9,-2
800037ae:	f2 08 18 00 	cp.b	r8,r9
800037b2:	c1 90       	breq	800037e4 <sd_mmc_spi_internal_init+0x524>
800037b4:	30 2b       	mov	r11,2
800037b6:	fe 7c 28 00 	mov	r12,-55296
800037ba:	fe b0 f6 cf 	rcall	80002558 <spi_unselectChip>
800037be:	30 0c       	mov	r12,0
800037c0:	cc 0a       	rjmp	80003540 <sd_mmc_spi_internal_init+0x280>
800037c2:	fe b0 fb db 	rcall	80002f78 <sd_mmc_spi_check_hc>
800037c6:	5b fc       	cp.w	r12,-1
800037c8:	fe 90 fe bb 	breq	8000353e <sd_mmc_spi_internal_init+0x27e>
800037cc:	58 1c       	cp.w	r12,1
800037ce:	fe 91 fe 85 	brne	800034d8 <sd_mmc_spi_internal_init+0x218>
800037d2:	30 39       	mov	r9,3
800037d4:	e0 68 22 2e 	mov	r8,8750
800037d8:	b0 89       	st.b	r8[0x0],r9
800037da:	fe 9f fe 7f 	bral	800034d8 <sd_mmc_spi_internal_init+0x218>
800037de:	3f f8       	mov	r8,-1
800037e0:	ac 88       	st.b	r6[0x0],r8
800037e2:	c4 7b       	rjmp	80003670 <sd_mmc_spi_internal_init+0x3b0>
800037e4:	e0 6b 00 ff 	mov	r11,255
800037e8:	fe 7c 28 00 	mov	r12,-55296
800037ec:	fe b0 f7 23 	rcall	80002632 <spi_write>
800037f0:	fa c5 ff fe 	sub	r5,sp,-2
800037f4:	fe 7c 28 00 	mov	r12,-55296
800037f8:	0a 9b       	mov	r11,r5
800037fa:	fe b0 f7 2a 	rcall	8000264e <spi_read>
800037fe:	9a 18       	ld.sh	r8,sp[0x2]
80003800:	e0 66 22 30 	mov	r6,8752
80003804:	e0 6b 00 ff 	mov	r11,255
80003808:	ac 88       	st.b	r6[0x0],r8
8000380a:	fe 7c 28 00 	mov	r12,-55296
8000380e:	fe b0 f7 12 	rcall	80002632 <spi_write>
80003812:	0a 9b       	mov	r11,r5
80003814:	fe 7c 28 00 	mov	r12,-55296
80003818:	fe b0 f7 1b 	rcall	8000264e <spi_read>
8000381c:	9a 18       	ld.sh	r8,sp[0x2]
8000381e:	e0 6b 00 ff 	mov	r11,255
80003822:	ac 98       	st.b	r6[0x1],r8
80003824:	fe 7c 28 00 	mov	r12,-55296
80003828:	fe b0 f7 05 	rcall	80002632 <spi_write>
8000382c:	0a 9b       	mov	r11,r5
8000382e:	fe 7c 28 00 	mov	r12,-55296
80003832:	fe b0 f7 0e 	rcall	8000264e <spi_read>
80003836:	9a 18       	ld.sh	r8,sp[0x2]
80003838:	e0 6b 00 ff 	mov	r11,255
8000383c:	ac a8       	st.b	r6[0x2],r8
8000383e:	fe 7c 28 00 	mov	r12,-55296
80003842:	fe b0 f6 f8 	rcall	80002632 <spi_write>
80003846:	0a 9b       	mov	r11,r5
80003848:	fe 7c 28 00 	mov	r12,-55296
8000384c:	fe b0 f7 01 	rcall	8000264e <spi_read>
80003850:	9a 18       	ld.sh	r8,sp[0x2]
80003852:	e0 6b 00 ff 	mov	r11,255
80003856:	ac b8       	st.b	r6[0x3],r8
80003858:	fe 7c 28 00 	mov	r12,-55296
8000385c:	fe b0 f6 eb 	rcall	80002632 <spi_write>
80003860:	0a 9b       	mov	r11,r5
80003862:	fe 7c 28 00 	mov	r12,-55296
80003866:	fe b0 f6 f4 	rcall	8000264e <spi_read>
8000386a:	9a 18       	ld.sh	r8,sp[0x2]
8000386c:	e0 6b 00 ff 	mov	r11,255
80003870:	ac c8       	st.b	r6[0x4],r8
80003872:	fe 7c 28 00 	mov	r12,-55296
80003876:	fe b0 f6 de 	rcall	80002632 <spi_write>
8000387a:	0a 9b       	mov	r11,r5
8000387c:	fe 7c 28 00 	mov	r12,-55296
80003880:	fe b0 f6 e7 	rcall	8000264e <spi_read>
80003884:	9a 18       	ld.sh	r8,sp[0x2]
80003886:	e0 6b 00 ff 	mov	r11,255
8000388a:	ac d8       	st.b	r6[0x5],r8
8000388c:	fe 7c 28 00 	mov	r12,-55296
80003890:	fe b0 f6 d1 	rcall	80002632 <spi_write>
80003894:	0a 9b       	mov	r11,r5
80003896:	fe 7c 28 00 	mov	r12,-55296
8000389a:	fe b0 f6 da 	rcall	8000264e <spi_read>
8000389e:	9a 18       	ld.sh	r8,sp[0x2]
800038a0:	e0 6b 00 ff 	mov	r11,255
800038a4:	ac e8       	st.b	r6[0x6],r8
800038a6:	fe 7c 28 00 	mov	r12,-55296
800038aa:	fe b0 f6 c4 	rcall	80002632 <spi_write>
800038ae:	0a 9b       	mov	r11,r5
800038b0:	fe 7c 28 00 	mov	r12,-55296
800038b4:	fe b0 f6 cd 	rcall	8000264e <spi_read>
800038b8:	9a 18       	ld.sh	r8,sp[0x2]
800038ba:	e0 6b 00 ff 	mov	r11,255
800038be:	ac f8       	st.b	r6[0x7],r8
800038c0:	fe 7c 28 00 	mov	r12,-55296
800038c4:	fe b0 f6 b7 	rcall	80002632 <spi_write>
800038c8:	0a 9b       	mov	r11,r5
800038ca:	fe 7c 28 00 	mov	r12,-55296
800038ce:	fe b0 f6 c0 	rcall	8000264e <spi_read>
800038d2:	9a 18       	ld.sh	r8,sp[0x2]
800038d4:	e0 6b 00 ff 	mov	r11,255
800038d8:	ed 68 00 08 	st.b	r6[8],r8
800038dc:	fe 7c 28 00 	mov	r12,-55296
800038e0:	fe b0 f6 a9 	rcall	80002632 <spi_write>
800038e4:	0a 9b       	mov	r11,r5
800038e6:	fe 7c 28 00 	mov	r12,-55296
800038ea:	fe b0 f6 b2 	rcall	8000264e <spi_read>
800038ee:	9a 18       	ld.sh	r8,sp[0x2]
800038f0:	e0 6b 00 ff 	mov	r11,255
800038f4:	ed 68 00 09 	st.b	r6[9],r8
800038f8:	fe 7c 28 00 	mov	r12,-55296
800038fc:	fe b0 f6 9b 	rcall	80002632 <spi_write>
80003900:	0a 9b       	mov	r11,r5
80003902:	fe 7c 28 00 	mov	r12,-55296
80003906:	fe b0 f6 a4 	rcall	8000264e <spi_read>
8000390a:	9a 18       	ld.sh	r8,sp[0x2]
8000390c:	e0 6b 00 ff 	mov	r11,255
80003910:	ed 68 00 0a 	st.b	r6[10],r8
80003914:	fe 7c 28 00 	mov	r12,-55296
80003918:	fe b0 f6 8d 	rcall	80002632 <spi_write>
8000391c:	0a 9b       	mov	r11,r5
8000391e:	fe 7c 28 00 	mov	r12,-55296
80003922:	fe b0 f6 96 	rcall	8000264e <spi_read>
80003926:	9a 18       	ld.sh	r8,sp[0x2]
80003928:	e0 6b 00 ff 	mov	r11,255
8000392c:	ed 68 00 0b 	st.b	r6[11],r8
80003930:	fe 7c 28 00 	mov	r12,-55296
80003934:	fe b0 f6 7f 	rcall	80002632 <spi_write>
80003938:	0a 9b       	mov	r11,r5
8000393a:	fe 7c 28 00 	mov	r12,-55296
8000393e:	fe b0 f6 88 	rcall	8000264e <spi_read>
80003942:	9a 18       	ld.sh	r8,sp[0x2]
80003944:	e0 6b 00 ff 	mov	r11,255
80003948:	ed 68 00 0c 	st.b	r6[12],r8
8000394c:	fe 7c 28 00 	mov	r12,-55296
80003950:	fe b0 f6 71 	rcall	80002632 <spi_write>
80003954:	0a 9b       	mov	r11,r5
80003956:	fe 7c 28 00 	mov	r12,-55296
8000395a:	fe b0 f6 7a 	rcall	8000264e <spi_read>
8000395e:	9a 18       	ld.sh	r8,sp[0x2]
80003960:	e0 6b 00 ff 	mov	r11,255
80003964:	ed 68 00 0d 	st.b	r6[13],r8
80003968:	fe 7c 28 00 	mov	r12,-55296
8000396c:	fe b0 f6 63 	rcall	80002632 <spi_write>
80003970:	0a 9b       	mov	r11,r5
80003972:	fe 7c 28 00 	mov	r12,-55296
80003976:	fe b0 f6 6c 	rcall	8000264e <spi_read>
8000397a:	9a 18       	ld.sh	r8,sp[0x2]
8000397c:	e0 6b 00 ff 	mov	r11,255
80003980:	ed 68 00 0e 	st.b	r6[14],r8
80003984:	fe 7c 28 00 	mov	r12,-55296
80003988:	fe b0 f6 55 	rcall	80002632 <spi_write>
8000398c:	0a 9b       	mov	r11,r5
8000398e:	fe 7c 28 00 	mov	r12,-55296
80003992:	fe b0 f6 5e 	rcall	8000264e <spi_read>
80003996:	9a 18       	ld.sh	r8,sp[0x2]
80003998:	e0 6b 00 ff 	mov	r11,255
8000399c:	ed 68 00 0f 	st.b	r6[15],r8
800039a0:	fe 7c 28 00 	mov	r12,-55296
800039a4:	fe b0 f6 47 	rcall	80002632 <spi_write>
800039a8:	e0 6b 00 ff 	mov	r11,255
800039ac:	fe 7c 28 00 	mov	r12,-55296
800039b0:	fe b0 f6 41 	rcall	80002632 <spi_write>
800039b4:	e0 6b 00 ff 	mov	r11,255
800039b8:	fe 7c 28 00 	mov	r12,-55296
800039bc:	fe b0 f6 3b 	rcall	80002632 <spi_write>
800039c0:	30 2b       	mov	r11,2
800039c2:	fe 7c 28 00 	mov	r12,-55296
800039c6:	fe b0 f5 c9 	rcall	80002558 <spi_unselectChip>
800039ca:	fe b0 f8 4d 	rcall	80002a64 <sd_mmc_spi_get_capacity>
800039ce:	e0 69 01 38 	mov	r9,312
800039d2:	30 18       	mov	r8,1
800039d4:	72 0a       	ld.w	r10,r9[0x0]
800039d6:	e0 69 01 3c 	mov	r9,316
800039da:	b2 88       	st.b	r9[0x0],r8
800039dc:	e0 68 1b 00 	mov	r8,6912
800039e0:	ea 18 00 b7 	orh	r8,0xb7
800039e4:	e0 6b 01 28 	mov	r11,296
800039e8:	8f 18       	st.w	r7[0x4],r8
800039ea:	fe 7c 28 00 	mov	r12,-55296
800039ee:	fe b0 f5 c9 	rcall	80002580 <spi_setupChipReg>
800039f2:	30 1c       	mov	r12,1
800039f4:	fe 9f fd a6 	bral	80003540 <sd_mmc_spi_internal_init+0x280>
800039f8:	30 2b       	mov	r11,2
800039fa:	fe 7c 28 00 	mov	r12,-55296
800039fe:	fe b0 f5 ad 	rcall	80002558 <spi_unselectChip>
80003a02:	e0 68 01 3c 	mov	r8,316
80003a06:	30 0c       	mov	r12,0
80003a08:	b0 85       	st.b	r8[0x0],r5
80003a0a:	fe 9f fd 9b 	bral	80003540 <sd_mmc_spi_internal_init+0x280>
80003a0e:	3f f8       	mov	r8,-1
80003a10:	a8 88       	st.b	r4[0x0],r8
80003a12:	fe 9f fe 1a 	bral	80003646 <sd_mmc_spi_internal_init+0x386>
80003a16:	3f f8       	mov	r8,-1
80003a18:	ac 88       	st.b	r6[0x0],r8
80003a1a:	fe 9f fe 55 	bral	800036c4 <sd_mmc_spi_internal_init+0x404>
80003a1e:	3f f8       	mov	r8,-1
80003a20:	ac 88       	st.b	r6[0x0],r8
80003a22:	fe 9f fe 3c 	bral	8000369a <sd_mmc_spi_internal_init+0x3da>
80003a26:	3f f8       	mov	r8,-1
80003a28:	ac 88       	st.b	r6[0x0],r8
80003a2a:	fe 9f fe 75 	bral	80003714 <sd_mmc_spi_internal_init+0x454>
80003a2e:	3f f8       	mov	r8,-1
80003a30:	ac 88       	st.b	r6[0x0],r8
80003a32:	fe 9f fe 5d 	bral	800036ec <sd_mmc_spi_internal_init+0x42c>
80003a36:	3f f8       	mov	r8,-1
80003a38:	ac 88       	st.b	r6[0x0],r8
80003a3a:	fe 9f fe 81 	bral	8000373c <sd_mmc_spi_internal_init+0x47c>
80003a3e:	3f f8       	mov	r8,-1
80003a40:	ac 88       	st.b	r6[0x0],r8
80003a42:	fe 9f fe 91 	bral	80003764 <sd_mmc_spi_internal_init+0x4a4>
80003a46:	3f f8       	mov	r8,-1
80003a48:	ac 88       	st.b	r6[0x0],r8
80003a4a:	cb 5a       	rjmp	800037b4 <sd_mmc_spi_internal_init+0x4f4>
80003a4c:	3f f8       	mov	r8,-1
80003a4e:	ac 88       	st.b	r6[0x0],r8
80003a50:	fe 9f fe 9e 	bral	8000378c <sd_mmc_spi_internal_init+0x4cc>

80003a54 <sd_mmc_spi_init>:
80003a54:	eb cd 40 10 	pushm	r4,lr
80003a58:	e0 68 01 28 	mov	r8,296
80003a5c:	fa c4 ff f8 	sub	r4,sp,-8
80003a60:	e8 ea 00 08 	ld.d	r10,r4[8]
80003a64:	f0 eb 00 08 	st.d	r8[8],r10
80003a68:	e0 69 01 38 	mov	r9,312
80003a6c:	93 0c       	st.w	r9[0x0],r12
80003a6e:	e8 ea 00 00 	ld.d	r10,r4[0]
80003a72:	f0 eb 00 00 	st.d	r8[0],r10
80003a76:	fe b0 fc 25 	rcall	800032c0 <sd_mmc_spi_internal_init>
80003a7a:	e3 cd 80 10 	ldm	sp++,r4,pc
80003a7e:	d7 03       	nop

80003a80 <sd_mmc_spi_mem_check>:
80003a80:	eb cd 40 e0 	pushm	r5-r7,lr
80003a84:	e0 65 01 3c 	mov	r5,316
80003a88:	30 07       	mov	r7,0
80003a8a:	0b 88       	ld.ub	r8,r5[0x0]
80003a8c:	ee 08 18 00 	cp.b	r8,r7
80003a90:	e0 81 01 2c 	brne	80003ce8 <sd_mmc_spi_mem_check+0x268>
80003a94:	30 2b       	mov	r11,2
80003a96:	fe 7c 28 00 	mov	r12,-55296
80003a9a:	fe b0 f5 37 	rcall	80002508 <spi_selectChip>
80003a9e:	30 0b       	mov	r11,0
80003aa0:	16 9c       	mov	r12,r11
80003aa2:	fe b0 f8 c9 	rcall	80002c34 <sd_mmc_spi_command>
80003aa6:	30 2b       	mov	r11,2
80003aa8:	e0 67 22 40 	mov	r7,8768
80003aac:	ae 8c       	st.b	r7[0x0],r12
80003aae:	fe 7c 28 00 	mov	r12,-55296
80003ab2:	fe b0 f5 53 	rcall	80002558 <spi_unselectChip>
80003ab6:	0f 88       	ld.ub	r8,r7[0x0]
80003ab8:	ae 88       	st.b	r7[0x0],r8
80003aba:	30 16       	mov	r6,1
80003abc:	ec 08 18 00 	cp.b	r8,r6
80003ac0:	e0 80 01 29 	breq	80003d12 <sd_mmc_spi_mem_check+0x292>
80003ac4:	e0 6b 00 ff 	mov	r11,255
80003ac8:	fe 7c 28 00 	mov	r12,-55296
80003acc:	fe b0 f5 b3 	rcall	80002632 <spi_write>
80003ad0:	30 2b       	mov	r11,2
80003ad2:	fe 7c 28 00 	mov	r12,-55296
80003ad6:	fe b0 f5 19 	rcall	80002508 <spi_selectChip>
80003ada:	30 0b       	mov	r11,0
80003adc:	16 9c       	mov	r12,r11
80003ade:	fe b0 f8 ab 	rcall	80002c34 <sd_mmc_spi_command>
80003ae2:	30 2b       	mov	r11,2
80003ae4:	ae 8c       	st.b	r7[0x0],r12
80003ae6:	fe 7c 28 00 	mov	r12,-55296
80003aea:	fe b0 f5 37 	rcall	80002558 <spi_unselectChip>
80003aee:	0f 88       	ld.ub	r8,r7[0x0]
80003af0:	ae 88       	st.b	r7[0x0],r8
80003af2:	ec 08 18 00 	cp.b	r8,r6
80003af6:	e0 80 01 0e 	breq	80003d12 <sd_mmc_spi_mem_check+0x292>
80003afa:	e0 6b 00 ff 	mov	r11,255
80003afe:	fe 7c 28 00 	mov	r12,-55296
80003b02:	fe b0 f5 98 	rcall	80002632 <spi_write>
80003b06:	30 2b       	mov	r11,2
80003b08:	fe 7c 28 00 	mov	r12,-55296
80003b0c:	fe b0 f4 fe 	rcall	80002508 <spi_selectChip>
80003b10:	30 0b       	mov	r11,0
80003b12:	16 9c       	mov	r12,r11
80003b14:	fe b0 f8 90 	rcall	80002c34 <sd_mmc_spi_command>
80003b18:	30 2b       	mov	r11,2
80003b1a:	ae 8c       	st.b	r7[0x0],r12
80003b1c:	fe 7c 28 00 	mov	r12,-55296
80003b20:	fe b0 f5 1c 	rcall	80002558 <spi_unselectChip>
80003b24:	0f 88       	ld.ub	r8,r7[0x0]
80003b26:	ae 88       	st.b	r7[0x0],r8
80003b28:	ec 08 18 00 	cp.b	r8,r6
80003b2c:	e0 80 00 f3 	breq	80003d12 <sd_mmc_spi_mem_check+0x292>
80003b30:	e0 6b 00 ff 	mov	r11,255
80003b34:	fe 7c 28 00 	mov	r12,-55296
80003b38:	fe b0 f5 7d 	rcall	80002632 <spi_write>
80003b3c:	30 2b       	mov	r11,2
80003b3e:	fe 7c 28 00 	mov	r12,-55296
80003b42:	fe b0 f4 e3 	rcall	80002508 <spi_selectChip>
80003b46:	30 0b       	mov	r11,0
80003b48:	16 9c       	mov	r12,r11
80003b4a:	fe b0 f8 75 	rcall	80002c34 <sd_mmc_spi_command>
80003b4e:	30 2b       	mov	r11,2
80003b50:	ae 8c       	st.b	r7[0x0],r12
80003b52:	fe 7c 28 00 	mov	r12,-55296
80003b56:	fe b0 f5 01 	rcall	80002558 <spi_unselectChip>
80003b5a:	0f 88       	ld.ub	r8,r7[0x0]
80003b5c:	ae 88       	st.b	r7[0x0],r8
80003b5e:	ec 08 18 00 	cp.b	r8,r6
80003b62:	e0 80 00 d8 	breq	80003d12 <sd_mmc_spi_mem_check+0x292>
80003b66:	e0 6b 00 ff 	mov	r11,255
80003b6a:	fe 7c 28 00 	mov	r12,-55296
80003b6e:	fe b0 f5 62 	rcall	80002632 <spi_write>
80003b72:	30 2b       	mov	r11,2
80003b74:	fe 7c 28 00 	mov	r12,-55296
80003b78:	fe b0 f4 c8 	rcall	80002508 <spi_selectChip>
80003b7c:	30 0b       	mov	r11,0
80003b7e:	16 9c       	mov	r12,r11
80003b80:	fe b0 f8 5a 	rcall	80002c34 <sd_mmc_spi_command>
80003b84:	30 2b       	mov	r11,2
80003b86:	ae 8c       	st.b	r7[0x0],r12
80003b88:	fe 7c 28 00 	mov	r12,-55296
80003b8c:	fe b0 f4 e6 	rcall	80002558 <spi_unselectChip>
80003b90:	0f 88       	ld.ub	r8,r7[0x0]
80003b92:	ae 88       	st.b	r7[0x0],r8
80003b94:	ec 08 18 00 	cp.b	r8,r6
80003b98:	e0 80 00 bd 	breq	80003d12 <sd_mmc_spi_mem_check+0x292>
80003b9c:	e0 6b 00 ff 	mov	r11,255
80003ba0:	fe 7c 28 00 	mov	r12,-55296
80003ba4:	fe b0 f5 47 	rcall	80002632 <spi_write>
80003ba8:	30 2b       	mov	r11,2
80003baa:	fe 7c 28 00 	mov	r12,-55296
80003bae:	fe b0 f4 ad 	rcall	80002508 <spi_selectChip>
80003bb2:	30 0b       	mov	r11,0
80003bb4:	16 9c       	mov	r12,r11
80003bb6:	fe b0 f8 3f 	rcall	80002c34 <sd_mmc_spi_command>
80003bba:	30 2b       	mov	r11,2
80003bbc:	ae 8c       	st.b	r7[0x0],r12
80003bbe:	fe 7c 28 00 	mov	r12,-55296
80003bc2:	fe b0 f4 cb 	rcall	80002558 <spi_unselectChip>
80003bc6:	0f 88       	ld.ub	r8,r7[0x0]
80003bc8:	ae 88       	st.b	r7[0x0],r8
80003bca:	ec 08 18 00 	cp.b	r8,r6
80003bce:	e0 80 00 a2 	breq	80003d12 <sd_mmc_spi_mem_check+0x292>
80003bd2:	e0 6b 00 ff 	mov	r11,255
80003bd6:	fe 7c 28 00 	mov	r12,-55296
80003bda:	fe b0 f5 2c 	rcall	80002632 <spi_write>
80003bde:	30 2b       	mov	r11,2
80003be0:	fe 7c 28 00 	mov	r12,-55296
80003be4:	fe b0 f4 92 	rcall	80002508 <spi_selectChip>
80003be8:	30 0b       	mov	r11,0
80003bea:	16 9c       	mov	r12,r11
80003bec:	fe b0 f8 24 	rcall	80002c34 <sd_mmc_spi_command>
80003bf0:	30 2b       	mov	r11,2
80003bf2:	ae 8c       	st.b	r7[0x0],r12
80003bf4:	fe 7c 28 00 	mov	r12,-55296
80003bf8:	fe b0 f4 b0 	rcall	80002558 <spi_unselectChip>
80003bfc:	0f 88       	ld.ub	r8,r7[0x0]
80003bfe:	ae 88       	st.b	r7[0x0],r8
80003c00:	ec 08 18 00 	cp.b	r8,r6
80003c04:	e0 80 00 87 	breq	80003d12 <sd_mmc_spi_mem_check+0x292>
80003c08:	e0 6b 00 ff 	mov	r11,255
80003c0c:	fe 7c 28 00 	mov	r12,-55296
80003c10:	fe b0 f5 11 	rcall	80002632 <spi_write>
80003c14:	30 2b       	mov	r11,2
80003c16:	fe 7c 28 00 	mov	r12,-55296
80003c1a:	fe b0 f4 77 	rcall	80002508 <spi_selectChip>
80003c1e:	30 0b       	mov	r11,0
80003c20:	16 9c       	mov	r12,r11
80003c22:	fe b0 f8 09 	rcall	80002c34 <sd_mmc_spi_command>
80003c26:	30 2b       	mov	r11,2
80003c28:	ae 8c       	st.b	r7[0x0],r12
80003c2a:	fe 7c 28 00 	mov	r12,-55296
80003c2e:	fe b0 f4 95 	rcall	80002558 <spi_unselectChip>
80003c32:	0f 88       	ld.ub	r8,r7[0x0]
80003c34:	ae 88       	st.b	r7[0x0],r8
80003c36:	ec 08 18 00 	cp.b	r8,r6
80003c3a:	c6 c0       	breq	80003d12 <sd_mmc_spi_mem_check+0x292>
80003c3c:	e0 6b 00 ff 	mov	r11,255
80003c40:	fe 7c 28 00 	mov	r12,-55296
80003c44:	fe b0 f4 f7 	rcall	80002632 <spi_write>
80003c48:	30 2b       	mov	r11,2
80003c4a:	fe 7c 28 00 	mov	r12,-55296
80003c4e:	fe b0 f4 5d 	rcall	80002508 <spi_selectChip>
80003c52:	30 0b       	mov	r11,0
80003c54:	16 9c       	mov	r12,r11
80003c56:	fe b0 f7 ef 	rcall	80002c34 <sd_mmc_spi_command>
80003c5a:	30 2b       	mov	r11,2
80003c5c:	ae 8c       	st.b	r7[0x0],r12
80003c5e:	fe 7c 28 00 	mov	r12,-55296
80003c62:	fe b0 f4 7b 	rcall	80002558 <spi_unselectChip>
80003c66:	0f 88       	ld.ub	r8,r7[0x0]
80003c68:	ae 88       	st.b	r7[0x0],r8
80003c6a:	ec 08 18 00 	cp.b	r8,r6
80003c6e:	c5 20       	breq	80003d12 <sd_mmc_spi_mem_check+0x292>
80003c70:	e0 6b 00 ff 	mov	r11,255
80003c74:	fe 7c 28 00 	mov	r12,-55296
80003c78:	fe b0 f4 dd 	rcall	80002632 <spi_write>
80003c7c:	30 2b       	mov	r11,2
80003c7e:	fe 7c 28 00 	mov	r12,-55296
80003c82:	fe b0 f4 43 	rcall	80002508 <spi_selectChip>
80003c86:	30 0b       	mov	r11,0
80003c88:	16 9c       	mov	r12,r11
80003c8a:	fe b0 f7 d5 	rcall	80002c34 <sd_mmc_spi_command>
80003c8e:	30 2b       	mov	r11,2
80003c90:	ae 8c       	st.b	r7[0x0],r12
80003c92:	fe 7c 28 00 	mov	r12,-55296
80003c96:	fe b0 f4 61 	rcall	80002558 <spi_unselectChip>
80003c9a:	0f 88       	ld.ub	r8,r7[0x0]
80003c9c:	ae 88       	st.b	r7[0x0],r8
80003c9e:	ec 08 18 00 	cp.b	r8,r6
80003ca2:	c3 80       	breq	80003d12 <sd_mmc_spi_mem_check+0x292>
80003ca4:	e0 6b 00 ff 	mov	r11,255
80003ca8:	fe 7c 28 00 	mov	r12,-55296
80003cac:	fe b0 f4 c3 	rcall	80002632 <spi_write>
80003cb0:	30 2b       	mov	r11,2
80003cb2:	fe 7c 28 00 	mov	r12,-55296
80003cb6:	fe b0 f4 29 	rcall	80002508 <spi_selectChip>
80003cba:	30 0b       	mov	r11,0
80003cbc:	16 9c       	mov	r12,r11
80003cbe:	fe b0 f7 bb 	rcall	80002c34 <sd_mmc_spi_command>
80003cc2:	30 2b       	mov	r11,2
80003cc4:	ae 8c       	st.b	r7[0x0],r12
80003cc6:	fe 7c 28 00 	mov	r12,-55296
80003cca:	fe b0 f4 47 	rcall	80002558 <spi_unselectChip>
80003cce:	0f 88       	ld.ub	r8,r7[0x0]
80003cd0:	ae 88       	st.b	r7[0x0],r8
80003cd2:	ec 08 18 00 	cp.b	r8,r6
80003cd6:	c1 e0       	breq	80003d12 <sd_mmc_spi_mem_check+0x292>
80003cd8:	e0 6b 00 ff 	mov	r11,255
80003cdc:	fe 7c 28 00 	mov	r12,-55296
80003ce0:	fe b0 f4 a9 	rcall	80002632 <spi_write>
80003ce4:	e3 cf 80 e0 	ldm	sp++,r5-r7,pc,r12=0
80003ce8:	30 2b       	mov	r11,2
80003cea:	fe 7c 28 00 	mov	r12,-55296
80003cee:	fe b0 f4 0d 	rcall	80002508 <spi_selectChip>
80003cf2:	30 0b       	mov	r11,0
80003cf4:	33 bc       	mov	r12,59
80003cf6:	fe b0 f7 9f 	rcall	80002c34 <sd_mmc_spi_command>
80003cfa:	e0 66 22 40 	mov	r6,8768
80003cfe:	30 2b       	mov	r11,2
80003d00:	ac 8c       	st.b	r6[0x0],r12
80003d02:	fe 7c 28 00 	mov	r12,-55296
80003d06:	fe b0 f4 29 	rcall	80002558 <spi_unselectChip>
80003d0a:	0d 88       	ld.ub	r8,r6[0x0]
80003d0c:	ac 88       	st.b	r6[0x0],r8
80003d0e:	58 08       	cp.w	r8,0
80003d10:	c0 c1       	brne	80003d28 <sd_mmc_spi_mem_check+0x2a8>
80003d12:	0b 89       	ld.ub	r9,r5[0x0]
80003d14:	30 08       	mov	r8,0
80003d16:	f0 09 18 00 	cp.b	r9,r8
80003d1a:	c0 30       	breq	80003d20 <sd_mmc_spi_mem_check+0x2a0>
80003d1c:	e3 cf 90 e0 	ldm	sp++,r5-r7,pc,r12=1
80003d20:	fe b0 fa d0 	rcall	800032c0 <sd_mmc_spi_internal_init>
80003d24:	e3 cd 80 e0 	ldm	sp++,r5-r7,pc
80003d28:	aa 87       	st.b	r5[0x0],r7
80003d2a:	e3 cf 80 e0 	ldm	sp++,r5-r7,pc,r12=0
80003d2e:	d7 03       	nop

80003d30 <osc_enable>:
80003d30:	e1 b8 00 00 	mfsr	r8,0x0
80003d34:	d3 03       	ssrf	0x10
80003d36:	58 0c       	cp.w	r12,0
80003d38:	c0 f0       	breq	80003d56 <osc_enable+0x26>
80003d3a:	30 29       	mov	r9,2
80003d3c:	f2 0c 18 00 	cp.b	r12,r9
80003d40:	c0 61       	brne	80003d4c <osc_enable+0x1c>
80003d42:	e2 6a 01 01 	mov	r10,131329
80003d46:	fe 79 0c 00 	mov	r9,-62464
80003d4a:	93 ca       	st.w	r9[0x30],r10
80003d4c:	ed b8 00 10 	bld	r8,0x10
80003d50:	c0 20       	breq	80003d54 <osc_enable+0x24>
80003d52:	d5 03       	csrf	0x10
80003d54:	5e fc       	retal	r12
80003d56:	fe 79 0c 00 	mov	r9,-62464
80003d5a:	e0 6a 03 07 	mov	r10,775
80003d5e:	93 aa       	st.w	r9[0x28],r10
80003d60:	72 0a       	ld.w	r10,r9[0x0]
80003d62:	a3 aa       	sbr	r10,0x2
80003d64:	93 0a       	st.w	r9[0x0],r10
80003d66:	cf 3b       	rjmp	80003d4c <osc_enable+0x1c>

80003d68 <sysclk_enable_pbb_module>:
80003d68:	d4 01       	pushm	lr
80003d6a:	e1 bb 00 00 	mfsr	r11,0x0
80003d6e:	d3 03       	ssrf	0x10
80003d70:	e0 69 01 3d 	mov	r9,317
80003d74:	13 88       	ld.ub	r8,r9[0x0]
80003d76:	58 08       	cp.w	r8,0
80003d78:	c1 d0       	breq	80003db2 <sysclk_enable_pbb_module+0x4a>
80003d7a:	2f f8       	sub	r8,-1
80003d7c:	b2 88       	st.b	r9[0x0],r8
80003d7e:	ed bb 00 10 	bld	r11,0x10
80003d82:	c0 20       	breq	80003d86 <sysclk_enable_pbb_module+0x1e>
80003d84:	d5 03       	csrf	0x10
80003d86:	e1 ba 00 00 	mfsr	r10,0x0
80003d8a:	d3 03       	ssrf	0x10
80003d8c:	fe 79 0c 00 	mov	r9,-62464
80003d90:	73 58       	ld.w	r8,r9[0x54]
80003d92:	ed b8 00 06 	bld	r8,0x6
80003d96:	cf d1       	brne	80003d90 <sysclk_enable_pbb_module+0x28>
80003d98:	30 19       	mov	r9,1
80003d9a:	fe 78 0c 14 	mov	r8,-62444
80003d9e:	f2 0c 09 4c 	lsl	r12,r9,r12
80003da2:	70 09       	ld.w	r9,r8[0x0]
80003da4:	12 4c       	or	r12,r9
80003da6:	91 0c       	st.w	r8[0x0],r12
80003da8:	ed ba 00 10 	bld	r10,0x10
80003dac:	c0 20       	breq	80003db0 <sysclk_enable_pbb_module+0x48>
80003dae:	d5 03       	csrf	0x10
80003db0:	d8 02       	popm	pc
80003db2:	e1 be 00 00 	mfsr	lr,0x0
80003db6:	d3 03       	ssrf	0x10
80003db8:	fe 7a 0c 00 	mov	r10,-62464
80003dbc:	75 58       	ld.w	r8,r10[0x54]
80003dbe:	ed b8 00 06 	bld	r8,0x6
80003dc2:	cf d1       	brne	80003dbc <sysclk_enable_pbb_module+0x54>
80003dc4:	fe 7a 0c 0c 	mov	r10,-62452
80003dc8:	74 08       	ld.w	r8,r10[0x0]
80003dca:	a3 a8       	sbr	r8,0x2
80003dcc:	95 08       	st.w	r10[0x0],r8
80003dce:	ed be 00 10 	bld	lr,0x10
80003dd2:	c0 31       	brne	80003dd8 <sysclk_enable_pbb_module+0x70>
80003dd4:	13 88       	ld.ub	r8,r9[0x0]
80003dd6:	cd 2b       	rjmp	80003d7a <sysclk_enable_pbb_module+0x12>
80003dd8:	d5 03       	csrf	0x10
80003dda:	13 88       	ld.ub	r8,r9[0x0]
80003ddc:	cc fb       	rjmp	80003d7a <sysclk_enable_pbb_module+0x12>
80003dde:	d7 03       	nop

80003de0 <sysclk_init>:
80003de0:	eb cd 40 80 	pushm	r7,lr
80003de4:	fe 77 0c 00 	mov	r7,-62464
80003de8:	6f 58       	ld.w	r8,r7[0x54]
80003dea:	ed b8 00 00 	bld	r8,0x0
80003dee:	c1 10       	breq	80003e10 <sysclk_init+0x30>
80003df0:	6f 5c       	ld.w	r12,r7[0x54]
80003df2:	e2 1c 00 80 	andl	r12,0x80,COH
80003df6:	c2 c0       	breq	80003e4e <sysclk_init+0x6e>
80003df8:	fe 78 0c 00 	mov	r8,-62464
80003dfc:	e0 6a 02 05 	mov	r10,517
80003e00:	ea 1a 3f 0a 	orh	r10,0x3f0a
80003e04:	10 99       	mov	r9,r8
80003e06:	91 8a       	st.w	r8[0x20],r10
80003e08:	73 58       	ld.w	r8,r9[0x54]
80003e0a:	ed b8 00 00 	bld	r8,0x0
80003e0e:	cf d1       	brne	80003e08 <sysclk_init+0x28>
80003e10:	e0 6c 14 80 	mov	r12,5248
80003e14:	ea 1c 03 ef 	orh	r12,0x3ef
80003e18:	fe b0 f1 4d 	rcall	800020b2 <flashc_set_bus_freq>
80003e1c:	e1 b9 00 00 	mfsr	r9,0x0
80003e20:	d3 03       	ssrf	0x10
80003e22:	fe 7a 0c 00 	mov	r10,-62464
80003e26:	74 08       	ld.w	r8,r10[0x0]
80003e28:	e0 18 ff fc 	andl	r8,0xfffc
80003e2c:	a1 b8       	sbr	r8,0x1
80003e2e:	95 08       	st.w	r10[0x0],r8
80003e30:	ed b9 00 10 	bld	r9,0x10
80003e34:	c0 20       	breq	80003e38 <sysclk_init+0x58>
80003e36:	d5 03       	csrf	0x10
80003e38:	fe 78 0c 00 	mov	r8,-62464
80003e3c:	e0 69 43 6f 	mov	r9,17263
80003e40:	91 49       	st.w	r8[0x10],r9
80003e42:	31 59       	mov	r9,21
80003e44:	91 59       	st.w	r8[0x14],r9
80003e46:	36 39       	mov	r9,99
80003e48:	91 39       	st.w	r8[0xc],r9
80003e4a:	e3 cd 80 80 	ldm	sp++,r7,pc
80003e4e:	c7 1f       	rcall	80003d30 <osc_enable>
80003e50:	6f 58       	ld.w	r8,r7[0x54]
80003e52:	ed b8 00 07 	bld	r8,0x7
80003e56:	cf d1       	brne	80003e50 <sysclk_init+0x70>
80003e58:	cd 0b       	rjmp	80003df8 <sysclk_init+0x18>
80003e5a:	d7 03       	nop

80003e5c <init_app_timers>:
80003e5c:	d4 01       	pushm	lr
80003e5e:	30 18       	mov	r8,1
80003e60:	fe c9 ff 64 	sub	r9,pc,-156
80003e64:	31 ea       	mov	r10,30
80003e66:	30 0b       	mov	r11,0
80003e68:	e0 6c 01 40 	mov	r12,320
80003e6c:	e0 a0 10 f0 	rcall	8000604c <set_timer>
80003e70:	30 18       	mov	r8,1
80003e72:	fe c9 ff ee 	sub	r9,pc,-18
80003e76:	31 4a       	mov	r10,20
80003e78:	10 9b       	mov	r11,r8
80003e7a:	e0 6c 01 58 	mov	r12,344
80003e7e:	e0 a0 10 e7 	rcall	8000604c <set_timer>
80003e82:	d8 02       	popm	pc

80003e84 <enc_timer_callback>:
80003e84:	eb cd 40 fc 	pushm	r2-r7,lr
80003e88:	30 08       	mov	r8,0
80003e8a:	30 0b       	mov	r11,0
80003e8c:	e0 66 01 3e 	mov	r6,318
80003e90:	e0 67 22 44 	mov	r7,8772
80003e94:	ac 88       	st.b	r6[0x0],r8
80003e96:	e0 63 01 54 	mov	r3,340
80003e9a:	16 98       	mov	r8,r11
80003e9c:	e0 65 01 6c 	mov	r5,364
80003ea0:	16 92       	mov	r2,r11
80003ea2:	30 34       	mov	r4,3
80003ea4:	c0 28       	rjmp	80003ea8 <enc_timer_callback+0x24>
80003ea6:	10 9b       	mov	r11,r8
80003ea8:	f0 08 00 18 	add	r8,r8,r8<<0x1
80003eac:	f0 ca ff ff 	sub	r10,r8,-1
80003eb0:	ee 0a 04 29 	ld.sh	r9,r7[r10<<0x2]
80003eb4:	a6 09       	st.h	r3[0x0],r9
80003eb6:	ee 0a 00 2a 	add	r10,r7,r10<<0x2
80003eba:	94 1a       	ld.sh	r10,r10[0x2]
80003ebc:	f4 09 19 00 	cp.h	r9,r10
80003ec0:	e0 89 00 05 	brgt	80003eca <enc_timer_callback+0x46>
80003ec4:	5c 3a       	neg	r10
80003ec6:	14 39       	cp.w	r9,r10
80003ec8:	c0 f4       	brge	80003ee6 <enc_timer_callback+0x62>
80003eca:	8b 19       	st.w	r5[0x4],r9
80003ecc:	f0 c9 ff ff 	sub	r9,r8,-1
80003ed0:	ee 08 00 28 	add	r8,r7,r8<<0x2
80003ed4:	70 28       	ld.w	r8,r8[0x8]
80003ed6:	ee 09 0a 22 	st.h	r7[r9<<0x2],r2
80003eda:	8b 08       	st.w	r5[0x0],r8
80003edc:	e0 6c 01 6c 	mov	r12,364
80003ee0:	e0 a0 04 8a 	rcall	800047f4 <post_event>
80003ee4:	0d 8b       	ld.ub	r11,r6[0x0]
80003ee6:	f6 c8 ff ff 	sub	r8,r11,-1
80003eea:	5c 58       	castu.b	r8
80003eec:	ac 88       	st.b	r6[0x0],r8
80003eee:	e8 08 18 00 	cp.b	r8,r4
80003ef2:	fe 98 ff da 	brls	80003ea6 <enc_timer_callback+0x22>
80003ef6:	e3 cd 80 fc 	ldm	sp++,r2-r7,pc
80003efa:	d7 03       	nop

80003efc <screen_timer_callback>:
80003efc:	eb cd 40 80 	pushm	r7,lr
80003f00:	e0 67 02 7d 	mov	r7,637
80003f04:	0f 88       	ld.ub	r8,r7[0x0]
80003f06:	58 08       	cp.w	r8,0
80003f08:	c0 a0       	breq	80003f1c <screen_timer_callback+0x20>
80003f0a:	e0 68 01 6c 	mov	r8,364
80003f0e:	30 49       	mov	r9,4
80003f10:	10 9c       	mov	r12,r8
80003f12:	91 09       	st.w	r8[0x0],r9
80003f14:	e0 a0 04 70 	rcall	800047f4 <post_event>
80003f18:	30 08       	mov	r8,0
80003f1a:	ae 88       	st.b	r7[0x0],r8
80003f1c:	e3 cd 80 80 	ldm	sp++,r7,pc

80003f20 <bfin_get_param_desc>:
80003f20:	eb cd 40 e0 	pushm	r5-r7,lr
80003f24:	20 2d       	sub	sp,8
80003f26:	16 97       	mov	r7,r11
80003f28:	18 96       	mov	r6,r12
80003f2a:	30 0b       	mov	r11,0
80003f2c:	fe 7c 24 00 	mov	r12,-56320
80003f30:	fe b0 f2 ec 	rcall	80002508 <spi_selectChip>
80003f34:	30 3b       	mov	r11,3
80003f36:	fe 7c 24 00 	mov	r12,-56320
80003f3a:	fe b0 f3 7c 	rcall	80002632 <spi_write>
80003f3e:	30 0b       	mov	r11,0
80003f40:	fe 7c 24 00 	mov	r12,-56320
80003f44:	fe b0 f3 0a 	rcall	80002558 <spi_unselectChip>
80003f48:	30 0b       	mov	r11,0
80003f4a:	fe 7c 24 00 	mov	r12,-56320
80003f4e:	fe b0 f2 dd 	rcall	80002508 <spi_selectChip>
80003f52:	f7 d6 c0 10 	bfextu	r11,r6,0x0,0x10
80003f56:	fe 7c 24 00 	mov	r12,-56320
80003f5a:	fe b0 f3 6c 	rcall	80002632 <spi_write>
80003f5e:	30 0b       	mov	r11,0
80003f60:	fe 7c 24 00 	mov	r12,-56320
80003f64:	fe b0 f2 fa 	rcall	80002558 <spi_unselectChip>
80003f68:	30 0b       	mov	r11,0
80003f6a:	fe 7c 24 00 	mov	r12,-56320
80003f6e:	fe b0 f2 cd 	rcall	80002508 <spi_selectChip>
80003f72:	30 0b       	mov	r11,0
80003f74:	fe 7c 24 00 	mov	r12,-56320
80003f78:	fe b0 f3 5d 	rcall	80002632 <spi_write>
80003f7c:	fa c6 ff fa 	sub	r6,sp,-6
80003f80:	fe 7c 24 00 	mov	r12,-56320
80003f84:	0c 9b       	mov	r11,r6
80003f86:	fe b0 f3 64 	rcall	8000264e <spi_read>
80003f8a:	30 0b       	mov	r11,0
80003f8c:	fe 7c 24 00 	mov	r12,-56320
80003f90:	fe b0 f2 e4 	rcall	80002558 <spi_unselectChip>
80003f94:	1b f8       	ld.ub	r8,sp[0x7]
80003f96:	30 0b       	mov	r11,0
80003f98:	ae 88       	st.b	r7[0x0],r8
80003f9a:	fe 7c 24 00 	mov	r12,-56320
80003f9e:	fe b0 f2 b5 	rcall	80002508 <spi_selectChip>
80003fa2:	30 0b       	mov	r11,0
80003fa4:	fe 7c 24 00 	mov	r12,-56320
80003fa8:	fe b0 f3 45 	rcall	80002632 <spi_write>
80003fac:	0c 9b       	mov	r11,r6
80003fae:	fe 7c 24 00 	mov	r12,-56320
80003fb2:	fe b0 f3 4e 	rcall	8000264e <spi_read>
80003fb6:	30 0b       	mov	r11,0
80003fb8:	fe 7c 24 00 	mov	r12,-56320
80003fbc:	fe b0 f2 ce 	rcall	80002558 <spi_unselectChip>
80003fc0:	1b f8       	ld.ub	r8,sp[0x7]
80003fc2:	30 0b       	mov	r11,0
80003fc4:	ae 98       	st.b	r7[0x1],r8
80003fc6:	fe 7c 24 00 	mov	r12,-56320
80003fca:	fe b0 f2 9f 	rcall	80002508 <spi_selectChip>
80003fce:	30 0b       	mov	r11,0
80003fd0:	fe 7c 24 00 	mov	r12,-56320
80003fd4:	fe b0 f3 2f 	rcall	80002632 <spi_write>
80003fd8:	0c 9b       	mov	r11,r6
80003fda:	fe 7c 24 00 	mov	r12,-56320
80003fde:	fe b0 f3 38 	rcall	8000264e <spi_read>
80003fe2:	30 0b       	mov	r11,0
80003fe4:	fe 7c 24 00 	mov	r12,-56320
80003fe8:	fe b0 f2 b8 	rcall	80002558 <spi_unselectChip>
80003fec:	1b f8       	ld.ub	r8,sp[0x7]
80003fee:	30 0b       	mov	r11,0
80003ff0:	ae a8       	st.b	r7[0x2],r8
80003ff2:	fe 7c 24 00 	mov	r12,-56320
80003ff6:	fe b0 f2 89 	rcall	80002508 <spi_selectChip>
80003ffa:	30 0b       	mov	r11,0
80003ffc:	fe 7c 24 00 	mov	r12,-56320
80004000:	fe b0 f3 19 	rcall	80002632 <spi_write>
80004004:	0c 9b       	mov	r11,r6
80004006:	fe 7c 24 00 	mov	r12,-56320
8000400a:	fe b0 f3 22 	rcall	8000264e <spi_read>
8000400e:	30 0b       	mov	r11,0
80004010:	fe 7c 24 00 	mov	r12,-56320
80004014:	fe b0 f2 a2 	rcall	80002558 <spi_unselectChip>
80004018:	1b f8       	ld.ub	r8,sp[0x7]
8000401a:	30 0b       	mov	r11,0
8000401c:	ae b8       	st.b	r7[0x3],r8
8000401e:	fe 7c 24 00 	mov	r12,-56320
80004022:	fe b0 f2 73 	rcall	80002508 <spi_selectChip>
80004026:	30 0b       	mov	r11,0
80004028:	fe 7c 24 00 	mov	r12,-56320
8000402c:	fe b0 f3 03 	rcall	80002632 <spi_write>
80004030:	0c 9b       	mov	r11,r6
80004032:	fe 7c 24 00 	mov	r12,-56320
80004036:	fe b0 f3 0c 	rcall	8000264e <spi_read>
8000403a:	30 0b       	mov	r11,0
8000403c:	fe 7c 24 00 	mov	r12,-56320
80004040:	fe b0 f2 8c 	rcall	80002558 <spi_unselectChip>
80004044:	1b f8       	ld.ub	r8,sp[0x7]
80004046:	30 0b       	mov	r11,0
80004048:	ae c8       	st.b	r7[0x4],r8
8000404a:	fe 7c 24 00 	mov	r12,-56320
8000404e:	fe b0 f2 5d 	rcall	80002508 <spi_selectChip>
80004052:	30 0b       	mov	r11,0
80004054:	fe 7c 24 00 	mov	r12,-56320
80004058:	fe b0 f2 ed 	rcall	80002632 <spi_write>
8000405c:	0c 9b       	mov	r11,r6
8000405e:	fe 7c 24 00 	mov	r12,-56320
80004062:	fe b0 f2 f6 	rcall	8000264e <spi_read>
80004066:	30 0b       	mov	r11,0
80004068:	fe 7c 24 00 	mov	r12,-56320
8000406c:	fe b0 f2 76 	rcall	80002558 <spi_unselectChip>
80004070:	1b f8       	ld.ub	r8,sp[0x7]
80004072:	30 0b       	mov	r11,0
80004074:	ae d8       	st.b	r7[0x5],r8
80004076:	fe 7c 24 00 	mov	r12,-56320
8000407a:	fe b0 f2 47 	rcall	80002508 <spi_selectChip>
8000407e:	30 0b       	mov	r11,0
80004080:	fe 7c 24 00 	mov	r12,-56320
80004084:	fe b0 f2 d7 	rcall	80002632 <spi_write>
80004088:	0c 9b       	mov	r11,r6
8000408a:	fe 7c 24 00 	mov	r12,-56320
8000408e:	fe b0 f2 e0 	rcall	8000264e <spi_read>
80004092:	30 0b       	mov	r11,0
80004094:	fe 7c 24 00 	mov	r12,-56320
80004098:	fe b0 f2 60 	rcall	80002558 <spi_unselectChip>
8000409c:	1b f8       	ld.ub	r8,sp[0x7]
8000409e:	30 0b       	mov	r11,0
800040a0:	ae e8       	st.b	r7[0x6],r8
800040a2:	fe 7c 24 00 	mov	r12,-56320
800040a6:	fe b0 f2 31 	rcall	80002508 <spi_selectChip>
800040aa:	30 0b       	mov	r11,0
800040ac:	fe 7c 24 00 	mov	r12,-56320
800040b0:	fe b0 f2 c1 	rcall	80002632 <spi_write>
800040b4:	0c 9b       	mov	r11,r6
800040b6:	fe 7c 24 00 	mov	r12,-56320
800040ba:	fe b0 f2 ca 	rcall	8000264e <spi_read>
800040be:	30 0b       	mov	r11,0
800040c0:	fe 7c 24 00 	mov	r12,-56320
800040c4:	fe b0 f2 4a 	rcall	80002558 <spi_unselectChip>
800040c8:	1b f8       	ld.ub	r8,sp[0x7]
800040ca:	30 0b       	mov	r11,0
800040cc:	ae f8       	st.b	r7[0x7],r8
800040ce:	fe 7c 24 00 	mov	r12,-56320
800040d2:	fe b0 f2 1b 	rcall	80002508 <spi_selectChip>
800040d6:	30 0b       	mov	r11,0
800040d8:	fe 7c 24 00 	mov	r12,-56320
800040dc:	fe b0 f2 ab 	rcall	80002632 <spi_write>
800040e0:	0c 9b       	mov	r11,r6
800040e2:	fe 7c 24 00 	mov	r12,-56320
800040e6:	fe b0 f2 b4 	rcall	8000264e <spi_read>
800040ea:	30 0b       	mov	r11,0
800040ec:	fe 7c 24 00 	mov	r12,-56320
800040f0:	fe b0 f2 34 	rcall	80002558 <spi_unselectChip>
800040f4:	1b f8       	ld.ub	r8,sp[0x7]
800040f6:	30 0b       	mov	r11,0
800040f8:	ef 68 00 08 	st.b	r7[8],r8
800040fc:	fe 7c 24 00 	mov	r12,-56320
80004100:	fe b0 f2 04 	rcall	80002508 <spi_selectChip>
80004104:	30 0b       	mov	r11,0
80004106:	fe 7c 24 00 	mov	r12,-56320
8000410a:	fe b0 f2 94 	rcall	80002632 <spi_write>
8000410e:	0c 9b       	mov	r11,r6
80004110:	fe 7c 24 00 	mov	r12,-56320
80004114:	fe b0 f2 9d 	rcall	8000264e <spi_read>
80004118:	30 0b       	mov	r11,0
8000411a:	fe 7c 24 00 	mov	r12,-56320
8000411e:	fe b0 f2 1d 	rcall	80002558 <spi_unselectChip>
80004122:	1b f8       	ld.ub	r8,sp[0x7]
80004124:	30 0b       	mov	r11,0
80004126:	ef 68 00 09 	st.b	r7[9],r8
8000412a:	fe 7c 24 00 	mov	r12,-56320
8000412e:	fe b0 f1 ed 	rcall	80002508 <spi_selectChip>
80004132:	30 0b       	mov	r11,0
80004134:	fe 7c 24 00 	mov	r12,-56320
80004138:	fe b0 f2 7d 	rcall	80002632 <spi_write>
8000413c:	0c 9b       	mov	r11,r6
8000413e:	fe 7c 24 00 	mov	r12,-56320
80004142:	fe b0 f2 86 	rcall	8000264e <spi_read>
80004146:	30 0b       	mov	r11,0
80004148:	fe 7c 24 00 	mov	r12,-56320
8000414c:	fe b0 f2 06 	rcall	80002558 <spi_unselectChip>
80004150:	1b f8       	ld.ub	r8,sp[0x7]
80004152:	30 0b       	mov	r11,0
80004154:	ef 68 00 0a 	st.b	r7[10],r8
80004158:	fe 7c 24 00 	mov	r12,-56320
8000415c:	fe b0 f1 d6 	rcall	80002508 <spi_selectChip>
80004160:	30 0b       	mov	r11,0
80004162:	fe 7c 24 00 	mov	r12,-56320
80004166:	fe b0 f2 66 	rcall	80002632 <spi_write>
8000416a:	0c 9b       	mov	r11,r6
8000416c:	fe 7c 24 00 	mov	r12,-56320
80004170:	fe b0 f2 6f 	rcall	8000264e <spi_read>
80004174:	30 0b       	mov	r11,0
80004176:	fe 7c 24 00 	mov	r12,-56320
8000417a:	fe b0 f1 ef 	rcall	80002558 <spi_unselectChip>
8000417e:	1b f8       	ld.ub	r8,sp[0x7]
80004180:	30 0b       	mov	r11,0
80004182:	ef 68 00 0b 	st.b	r7[11],r8
80004186:	fe 7c 24 00 	mov	r12,-56320
8000418a:	fe b0 f1 bf 	rcall	80002508 <spi_selectChip>
8000418e:	30 0b       	mov	r11,0
80004190:	fe 7c 24 00 	mov	r12,-56320
80004194:	fe b0 f2 4f 	rcall	80002632 <spi_write>
80004198:	0c 9b       	mov	r11,r6
8000419a:	fe 7c 24 00 	mov	r12,-56320
8000419e:	fe b0 f2 58 	rcall	8000264e <spi_read>
800041a2:	30 0b       	mov	r11,0
800041a4:	fe 7c 24 00 	mov	r12,-56320
800041a8:	fe b0 f1 d8 	rcall	80002558 <spi_unselectChip>
800041ac:	1b f8       	ld.ub	r8,sp[0x7]
800041ae:	30 0b       	mov	r11,0
800041b0:	ef 68 00 0c 	st.b	r7[12],r8
800041b4:	fe 7c 24 00 	mov	r12,-56320
800041b8:	fe b0 f1 a8 	rcall	80002508 <spi_selectChip>
800041bc:	30 0b       	mov	r11,0
800041be:	fe 7c 24 00 	mov	r12,-56320
800041c2:	fe b0 f2 38 	rcall	80002632 <spi_write>
800041c6:	0c 9b       	mov	r11,r6
800041c8:	fe 7c 24 00 	mov	r12,-56320
800041cc:	fe b0 f2 41 	rcall	8000264e <spi_read>
800041d0:	30 0b       	mov	r11,0
800041d2:	fe 7c 24 00 	mov	r12,-56320
800041d6:	fe b0 f1 c1 	rcall	80002558 <spi_unselectChip>
800041da:	1b f8       	ld.ub	r8,sp[0x7]
800041dc:	30 0b       	mov	r11,0
800041de:	ef 68 00 0d 	st.b	r7[13],r8
800041e2:	fe 7c 24 00 	mov	r12,-56320
800041e6:	fe b0 f1 91 	rcall	80002508 <spi_selectChip>
800041ea:	30 0b       	mov	r11,0
800041ec:	fe 7c 24 00 	mov	r12,-56320
800041f0:	fe b0 f2 21 	rcall	80002632 <spi_write>
800041f4:	0c 9b       	mov	r11,r6
800041f6:	fe 7c 24 00 	mov	r12,-56320
800041fa:	fe b0 f2 2a 	rcall	8000264e <spi_read>
800041fe:	30 0b       	mov	r11,0
80004200:	fe 7c 24 00 	mov	r12,-56320
80004204:	fe b0 f1 aa 	rcall	80002558 <spi_unselectChip>
80004208:	1b f8       	ld.ub	r8,sp[0x7]
8000420a:	30 0b       	mov	r11,0
8000420c:	ef 68 00 0e 	st.b	r7[14],r8
80004210:	fe 7c 24 00 	mov	r12,-56320
80004214:	fe b0 f1 7a 	rcall	80002508 <spi_selectChip>
80004218:	30 0b       	mov	r11,0
8000421a:	fe 7c 24 00 	mov	r12,-56320
8000421e:	fe b0 f2 0a 	rcall	80002632 <spi_write>
80004222:	0c 9b       	mov	r11,r6
80004224:	fe 7c 24 00 	mov	r12,-56320
80004228:	fe b0 f2 13 	rcall	8000264e <spi_read>
8000422c:	30 0b       	mov	r11,0
8000422e:	fe 7c 24 00 	mov	r12,-56320
80004232:	fe b0 f1 93 	rcall	80002558 <spi_unselectChip>
80004236:	1b f8       	ld.ub	r8,sp[0x7]
80004238:	30 0b       	mov	r11,0
8000423a:	ef 68 00 0f 	st.b	r7[15],r8
8000423e:	fe 7c 24 00 	mov	r12,-56320
80004242:	fe b0 f1 63 	rcall	80002508 <spi_selectChip>
80004246:	30 0b       	mov	r11,0
80004248:	fe 7c 24 00 	mov	r12,-56320
8000424c:	fe b0 f1 f3 	rcall	80002632 <spi_write>
80004250:	0c 9b       	mov	r11,r6
80004252:	fe 7c 24 00 	mov	r12,-56320
80004256:	fe b0 f1 fc 	rcall	8000264e <spi_read>
8000425a:	30 0b       	mov	r11,0
8000425c:	fe 7c 24 00 	mov	r12,-56320
80004260:	fe b0 f1 7c 	rcall	80002558 <spi_unselectChip>
80004264:	1b f8       	ld.ub	r8,sp[0x7]
80004266:	30 0b       	mov	r11,0
80004268:	ef 68 00 10 	st.b	r7[16],r8
8000426c:	fe 7c 24 00 	mov	r12,-56320
80004270:	fe b0 f1 4c 	rcall	80002508 <spi_selectChip>
80004274:	30 0b       	mov	r11,0
80004276:	fe 7c 24 00 	mov	r12,-56320
8000427a:	fe b0 f1 dc 	rcall	80002632 <spi_write>
8000427e:	0c 9b       	mov	r11,r6
80004280:	fe 7c 24 00 	mov	r12,-56320
80004284:	fe b0 f1 e5 	rcall	8000264e <spi_read>
80004288:	30 0b       	mov	r11,0
8000428a:	fe 7c 24 00 	mov	r12,-56320
8000428e:	fe b0 f1 65 	rcall	80002558 <spi_unselectChip>
80004292:	1b f8       	ld.ub	r8,sp[0x7]
80004294:	30 0b       	mov	r11,0
80004296:	ef 68 00 11 	st.b	r7[17],r8
8000429a:	fe 7c 24 00 	mov	r12,-56320
8000429e:	fe b0 f1 35 	rcall	80002508 <spi_selectChip>
800042a2:	30 0b       	mov	r11,0
800042a4:	fe 7c 24 00 	mov	r12,-56320
800042a8:	fe b0 f1 c5 	rcall	80002632 <spi_write>
800042ac:	0c 9b       	mov	r11,r6
800042ae:	fe 7c 24 00 	mov	r12,-56320
800042b2:	fe b0 f1 ce 	rcall	8000264e <spi_read>
800042b6:	30 0b       	mov	r11,0
800042b8:	fe 7c 24 00 	mov	r12,-56320
800042bc:	fe b0 f1 4e 	rcall	80002558 <spi_unselectChip>
800042c0:	1b f8       	ld.ub	r8,sp[0x7]
800042c2:	30 0b       	mov	r11,0
800042c4:	ef 68 00 12 	st.b	r7[18],r8
800042c8:	fe 7c 24 00 	mov	r12,-56320
800042cc:	fe b0 f1 1e 	rcall	80002508 <spi_selectChip>
800042d0:	30 0b       	mov	r11,0
800042d2:	fe 7c 24 00 	mov	r12,-56320
800042d6:	fe b0 f1 ae 	rcall	80002632 <spi_write>
800042da:	0c 9b       	mov	r11,r6
800042dc:	fe 7c 24 00 	mov	r12,-56320
800042e0:	fe b0 f1 b7 	rcall	8000264e <spi_read>
800042e4:	30 0b       	mov	r11,0
800042e6:	fe 7c 24 00 	mov	r12,-56320
800042ea:	fe b0 f1 37 	rcall	80002558 <spi_unselectChip>
800042ee:	1b f8       	ld.ub	r8,sp[0x7]
800042f0:	30 0b       	mov	r11,0
800042f2:	ef 68 00 13 	st.b	r7[19],r8
800042f6:	fe 7c 24 00 	mov	r12,-56320
800042fa:	fe b0 f1 07 	rcall	80002508 <spi_selectChip>
800042fe:	30 0b       	mov	r11,0
80004300:	fe 7c 24 00 	mov	r12,-56320
80004304:	fe b0 f1 97 	rcall	80002632 <spi_write>
80004308:	0c 9b       	mov	r11,r6
8000430a:	fe 7c 24 00 	mov	r12,-56320
8000430e:	fe b0 f1 a0 	rcall	8000264e <spi_read>
80004312:	30 0b       	mov	r11,0
80004314:	fe 7c 24 00 	mov	r12,-56320
80004318:	fe b0 f1 20 	rcall	80002558 <spi_unselectChip>
8000431c:	1b f8       	ld.ub	r8,sp[0x7]
8000431e:	30 0b       	mov	r11,0
80004320:	ef 68 00 14 	st.b	r7[20],r8
80004324:	fe 7c 24 00 	mov	r12,-56320
80004328:	fe b0 f0 f0 	rcall	80002508 <spi_selectChip>
8000432c:	30 0b       	mov	r11,0
8000432e:	fe 7c 24 00 	mov	r12,-56320
80004332:	fe b0 f1 80 	rcall	80002632 <spi_write>
80004336:	0c 9b       	mov	r11,r6
80004338:	fe 7c 24 00 	mov	r12,-56320
8000433c:	fe b0 f1 89 	rcall	8000264e <spi_read>
80004340:	30 0b       	mov	r11,0
80004342:	fe 7c 24 00 	mov	r12,-56320
80004346:	fe b0 f1 09 	rcall	80002558 <spi_unselectChip>
8000434a:	1b f8       	ld.ub	r8,sp[0x7]
8000434c:	30 0b       	mov	r11,0
8000434e:	ef 68 00 15 	st.b	r7[21],r8
80004352:	fe 7c 24 00 	mov	r12,-56320
80004356:	fe b0 f0 d9 	rcall	80002508 <spi_selectChip>
8000435a:	30 0b       	mov	r11,0
8000435c:	fe 7c 24 00 	mov	r12,-56320
80004360:	fe b0 f1 69 	rcall	80002632 <spi_write>
80004364:	0c 9b       	mov	r11,r6
80004366:	fe 7c 24 00 	mov	r12,-56320
8000436a:	fe b0 f1 72 	rcall	8000264e <spi_read>
8000436e:	30 0b       	mov	r11,0
80004370:	fe 7c 24 00 	mov	r12,-56320
80004374:	fe b0 f0 f2 	rcall	80002558 <spi_unselectChip>
80004378:	1b f8       	ld.ub	r8,sp[0x7]
8000437a:	30 0b       	mov	r11,0
8000437c:	ef 68 00 16 	st.b	r7[22],r8
80004380:	fe 7c 24 00 	mov	r12,-56320
80004384:	fe b0 f0 c2 	rcall	80002508 <spi_selectChip>
80004388:	30 0b       	mov	r11,0
8000438a:	fe 7c 24 00 	mov	r12,-56320
8000438e:	fe b0 f1 52 	rcall	80002632 <spi_write>
80004392:	0c 9b       	mov	r11,r6
80004394:	fe 7c 24 00 	mov	r12,-56320
80004398:	fe b0 f1 5b 	rcall	8000264e <spi_read>
8000439c:	30 0b       	mov	r11,0
8000439e:	fe 7c 24 00 	mov	r12,-56320
800043a2:	fe b0 f0 db 	rcall	80002558 <spi_unselectChip>
800043a6:	1b f8       	ld.ub	r8,sp[0x7]
800043a8:	30 0b       	mov	r11,0
800043aa:	ef 68 00 17 	st.b	r7[23],r8
800043ae:	fe 7c 24 00 	mov	r12,-56320
800043b2:	fe b0 f0 ab 	rcall	80002508 <spi_selectChip>
800043b6:	30 0b       	mov	r11,0
800043b8:	fe 7c 24 00 	mov	r12,-56320
800043bc:	fe b0 f1 3b 	rcall	80002632 <spi_write>
800043c0:	0c 9b       	mov	r11,r6
800043c2:	fe 7c 24 00 	mov	r12,-56320
800043c6:	fe b0 f1 44 	rcall	8000264e <spi_read>
800043ca:	30 0b       	mov	r11,0
800043cc:	fe 7c 24 00 	mov	r12,-56320
800043d0:	fe b0 f0 c4 	rcall	80002558 <spi_unselectChip>
800043d4:	1b f8       	ld.ub	r8,sp[0x7]
800043d6:	30 0b       	mov	r11,0
800043d8:	ef 68 00 18 	st.b	r7[24],r8
800043dc:	fe 7c 24 00 	mov	r12,-56320
800043e0:	fe b0 f0 94 	rcall	80002508 <spi_selectChip>
800043e4:	30 0b       	mov	r11,0
800043e6:	fe 7c 24 00 	mov	r12,-56320
800043ea:	fe b0 f1 24 	rcall	80002632 <spi_write>
800043ee:	0c 9b       	mov	r11,r6
800043f0:	fe 7c 24 00 	mov	r12,-56320
800043f4:	fe b0 f1 2d 	rcall	8000264e <spi_read>
800043f8:	30 0b       	mov	r11,0
800043fa:	fe 7c 24 00 	mov	r12,-56320
800043fe:	fe b0 f0 ad 	rcall	80002558 <spi_unselectChip>
80004402:	9a 38       	ld.sh	r8,sp[0x6]
80004404:	30 0b       	mov	r11,0
80004406:	ba a8       	st.b	sp[0x2],r8
80004408:	fe 7c 24 00 	mov	r12,-56320
8000440c:	fe b0 f0 7e 	rcall	80002508 <spi_selectChip>
80004410:	30 0b       	mov	r11,0
80004412:	fe 7c 24 00 	mov	r12,-56320
80004416:	fe b0 f1 0e 	rcall	80002632 <spi_write>
8000441a:	0c 9b       	mov	r11,r6
8000441c:	fe 7c 24 00 	mov	r12,-56320
80004420:	fe b0 f1 17 	rcall	8000264e <spi_read>
80004424:	30 0b       	mov	r11,0
80004426:	fe 7c 24 00 	mov	r12,-56320
8000442a:	fe b0 f0 97 	rcall	80002558 <spi_unselectChip>
8000442e:	9a 38       	ld.sh	r8,sp[0x6]
80004430:	30 0b       	mov	r11,0
80004432:	ba b8       	st.b	sp[0x3],r8
80004434:	fe 7c 24 00 	mov	r12,-56320
80004438:	fe b0 f0 68 	rcall	80002508 <spi_selectChip>
8000443c:	30 0b       	mov	r11,0
8000443e:	fe 7c 24 00 	mov	r12,-56320
80004442:	fe b0 f0 f8 	rcall	80002632 <spi_write>
80004446:	0c 9b       	mov	r11,r6
80004448:	fe 7c 24 00 	mov	r12,-56320
8000444c:	fe b0 f1 01 	rcall	8000264e <spi_read>
80004450:	30 0b       	mov	r11,0
80004452:	fe 7c 24 00 	mov	r12,-56320
80004456:	fe b0 f0 81 	rcall	80002558 <spi_unselectChip>
8000445a:	9a 38       	ld.sh	r8,sp[0x6]
8000445c:	30 0b       	mov	r11,0
8000445e:	ba c8       	st.b	sp[0x4],r8
80004460:	fe 7c 24 00 	mov	r12,-56320
80004464:	fe b0 f0 52 	rcall	80002508 <spi_selectChip>
80004468:	30 0b       	mov	r11,0
8000446a:	fe 7c 24 00 	mov	r12,-56320
8000446e:	fe b0 f0 e2 	rcall	80002632 <spi_write>
80004472:	0c 9b       	mov	r11,r6
80004474:	fe 7c 24 00 	mov	r12,-56320
80004478:	fe b0 f0 eb 	rcall	8000264e <spi_read>
8000447c:	30 0b       	mov	r11,0
8000447e:	fe 7c 24 00 	mov	r12,-56320
80004482:	fe b0 f0 6b 	rcall	80002558 <spi_unselectChip>
80004486:	9a 38       	ld.sh	r8,sp[0x6]
80004488:	ba d8       	st.b	sp[0x5],r8
8000448a:	9a a8       	ld.uh	r8,sp[0x4]
8000448c:	9a 9c       	ld.uh	r12,sp[0x2]
8000448e:	f1 ec 11 0c 	or	r12,r8,r12<<0x10
80004492:	e0 a0 30 7b 	rcall	8000a588 <__avr32_f32_to_s32>
80004496:	ef 38 00 19 	ld.ub	r8,r7[25]
8000449a:	f8 08 16 18 	lsr	r8,r12,0x18
8000449e:	ef 68 00 19 	st.b	r7[25],r8
800044a2:	ef 38 00 1a 	ld.ub	r8,r7[26]
800044a6:	f1 dc c2 08 	bfextu	r8,r12,0x10,0x8
800044aa:	ef 68 00 1a 	st.b	r7[26],r8
800044ae:	ef 38 00 1b 	ld.ub	r8,r7[27]
800044b2:	f1 dc c1 08 	bfextu	r8,r12,0x8,0x8
800044b6:	f9 dc c0 08 	bfextu	r12,r12,0x0,0x8
800044ba:	ef 68 00 1b 	st.b	r7[27],r8
800044be:	ef 38 00 1c 	ld.ub	r8,r7[28]
800044c2:	30 05       	mov	r5,0
800044c4:	ef 6c 00 1c 	st.b	r7[28],r12
800044c8:	0a 9b       	mov	r11,r5
800044ca:	fe 7c 24 00 	mov	r12,-56320
800044ce:	fe b0 f0 1d 	rcall	80002508 <spi_selectChip>
800044d2:	0a 9b       	mov	r11,r5
800044d4:	fe 7c 24 00 	mov	r12,-56320
800044d8:	fe b0 f0 ad 	rcall	80002632 <spi_write>
800044dc:	0c 9b       	mov	r11,r6
800044de:	fe 7c 24 00 	mov	r12,-56320
800044e2:	fe b0 f0 b6 	rcall	8000264e <spi_read>
800044e6:	0a 9b       	mov	r11,r5
800044e8:	fe 7c 24 00 	mov	r12,-56320
800044ec:	fe b0 f0 36 	rcall	80002558 <spi_unselectChip>
800044f0:	9a 38       	ld.sh	r8,sp[0x6]
800044f2:	0a 9b       	mov	r11,r5
800044f4:	ba a8       	st.b	sp[0x2],r8
800044f6:	fe 7c 24 00 	mov	r12,-56320
800044fa:	fe b0 f0 07 	rcall	80002508 <spi_selectChip>
800044fe:	0a 9b       	mov	r11,r5
80004500:	fe 7c 24 00 	mov	r12,-56320
80004504:	fe b0 f0 97 	rcall	80002632 <spi_write>
80004508:	0c 9b       	mov	r11,r6
8000450a:	fe 7c 24 00 	mov	r12,-56320
8000450e:	fe b0 f0 a0 	rcall	8000264e <spi_read>
80004512:	0a 9b       	mov	r11,r5
80004514:	fe 7c 24 00 	mov	r12,-56320
80004518:	fe b0 f0 20 	rcall	80002558 <spi_unselectChip>
8000451c:	9a 38       	ld.sh	r8,sp[0x6]
8000451e:	0a 9b       	mov	r11,r5
80004520:	ba b8       	st.b	sp[0x3],r8
80004522:	fe 7c 24 00 	mov	r12,-56320
80004526:	fe b0 ef f1 	rcall	80002508 <spi_selectChip>
8000452a:	0a 9b       	mov	r11,r5
8000452c:	fe 7c 24 00 	mov	r12,-56320
80004530:	fe b0 f0 81 	rcall	80002632 <spi_write>
80004534:	0c 9b       	mov	r11,r6
80004536:	fe 7c 24 00 	mov	r12,-56320
8000453a:	fe b0 f0 8a 	rcall	8000264e <spi_read>
8000453e:	0a 9b       	mov	r11,r5
80004540:	fe 7c 24 00 	mov	r12,-56320
80004544:	fe b0 f0 0a 	rcall	80002558 <spi_unselectChip>
80004548:	9a 38       	ld.sh	r8,sp[0x6]
8000454a:	0a 9b       	mov	r11,r5
8000454c:	ba c8       	st.b	sp[0x4],r8
8000454e:	fe 7c 24 00 	mov	r12,-56320
80004552:	fe b0 ef db 	rcall	80002508 <spi_selectChip>
80004556:	0a 9b       	mov	r11,r5
80004558:	fe 7c 24 00 	mov	r12,-56320
8000455c:	fe b0 f0 6b 	rcall	80002632 <spi_write>
80004560:	0c 9b       	mov	r11,r6
80004562:	fe 7c 24 00 	mov	r12,-56320
80004566:	fe b0 f0 74 	rcall	8000264e <spi_read>
8000456a:	0a 9b       	mov	r11,r5
8000456c:	fe 7c 24 00 	mov	r12,-56320
80004570:	fe b0 ef f4 	rcall	80002558 <spi_unselectChip>
80004574:	9a 38       	ld.sh	r8,sp[0x6]
80004576:	ba d8       	st.b	sp[0x5],r8
80004578:	9a a8       	ld.uh	r8,sp[0x4]
8000457a:	9a 9c       	ld.uh	r12,sp[0x2]
8000457c:	f1 ec 11 0c 	or	r12,r8,r12<<0x10
80004580:	e0 a0 30 04 	rcall	8000a588 <__avr32_f32_to_s32>
80004584:	ef 38 00 1d 	ld.ub	r8,r7[29]
80004588:	f8 08 16 18 	lsr	r8,r12,0x18
8000458c:	ef 68 00 1d 	st.b	r7[29],r8
80004590:	ef 38 00 1e 	ld.ub	r8,r7[30]
80004594:	f1 dc c2 08 	bfextu	r8,r12,0x10,0x8
80004598:	ef 68 00 1e 	st.b	r7[30],r8
8000459c:	ef 38 00 1f 	ld.ub	r8,r7[31]
800045a0:	f1 dc c1 08 	bfextu	r8,r12,0x8,0x8
800045a4:	ef 68 00 1f 	st.b	r7[31],r8
800045a8:	f9 dc c0 08 	bfextu	r12,r12,0x0,0x8
800045ac:	ef 38 00 20 	ld.ub	r8,r7[32]
800045b0:	ef 6c 00 20 	st.b	r7[32],r12
800045b4:	2f ed       	sub	sp,-8
800045b6:	e3 cd 80 e0 	ldm	sp++,r5-r7,pc
800045ba:	d7 03       	nop

800045bc <bfin_get_num_params>:
800045bc:	eb cd 40 80 	pushm	r7,lr
800045c0:	20 1d       	sub	sp,4
800045c2:	30 0b       	mov	r11,0
800045c4:	18 97       	mov	r7,r12
800045c6:	fe 7c 24 00 	mov	r12,-56320
800045ca:	fe b0 ef 9f 	rcall	80002508 <spi_selectChip>
800045ce:	30 2b       	mov	r11,2
800045d0:	fe 7c 24 00 	mov	r12,-56320
800045d4:	fe b0 f0 2f 	rcall	80002632 <spi_write>
800045d8:	30 0b       	mov	r11,0
800045da:	fe 7c 24 00 	mov	r12,-56320
800045de:	fe b0 ef bd 	rcall	80002558 <spi_unselectChip>
800045e2:	30 0b       	mov	r11,0
800045e4:	fe 7c 24 00 	mov	r12,-56320
800045e8:	fe b0 ef 90 	rcall	80002508 <spi_selectChip>
800045ec:	30 0b       	mov	r11,0
800045ee:	fe 7c 24 00 	mov	r12,-56320
800045f2:	fe b0 f0 20 	rcall	80002632 <spi_write>
800045f6:	fa cb ff fe 	sub	r11,sp,-2
800045fa:	fe 7c 24 00 	mov	r12,-56320
800045fe:	fe b0 f0 28 	rcall	8000264e <spi_read>
80004602:	30 0b       	mov	r11,0
80004604:	fe 7c 24 00 	mov	r12,-56320
80004608:	fe b0 ef a8 	rcall	80002558 <spi_unselectChip>
8000460c:	1b b8       	ld.ub	r8,sp[0x3]
8000460e:	8f 08       	st.w	r7[0x0],r8
80004610:	2f fd       	sub	sp,-4
80004612:	e3 cd 80 80 	ldm	sp++,r7,pc
80004616:	d7 03       	nop

80004618 <bfin_report_params>:
80004618:	eb cd 40 c0 	pushm	r6-r7,lr
8000461c:	20 ad       	sub	sp,40
8000461e:	fa cc ff dc 	sub	r12,sp,-36
80004622:	cc df       	rcall	800045bc <bfin_get_num_params>
80004624:	fe cc 96 2c 	sub	r12,pc,-27092
80004628:	fe b0 f2 18 	rcall	80002a58 <print_dbg>
8000462c:	40 9c       	lddsp	r12,sp[0x24]
8000462e:	fe b0 f1 f3 	rcall	80002a14 <print_dbg_ulong>
80004632:	40 98       	lddsp	r8,sp[0x24]
80004634:	58 08       	cp.w	r8,0
80004636:	c1 40       	breq	8000465e <bfin_report_params+0x46>
80004638:	fa c6 ff fd 	sub	r6,sp,-3
8000463c:	30 07       	mov	r7,0
8000463e:	0c 9b       	mov	r11,r6
80004640:	0e 9c       	mov	r12,r7
80004642:	fe b0 fc 6f 	rcall	80003f20 <bfin_get_param_desc>
80004646:	fe cc 96 3e 	sub	r12,pc,-27074
8000464a:	fe b0 f2 07 	rcall	80002a58 <print_dbg>
8000464e:	0c 9c       	mov	r12,r6
80004650:	fe b0 f2 04 	rcall	80002a58 <print_dbg>
80004654:	40 98       	lddsp	r8,sp[0x24]
80004656:	2f f7       	sub	r7,-1
80004658:	5c 57       	castu.b	r7
8000465a:	10 37       	cp.w	r7,r8
8000465c:	cf 13       	brcs	8000463e <bfin_report_params+0x26>
8000465e:	2f 6d       	sub	sp,-40
80004660:	e3 cd 80 c0 	ldm	sp++,r6-r7,pc

80004664 <bfin_load>:
80004664:	d4 31       	pushm	r0-r7,lr
80004666:	20 2d       	sub	sp,8
80004668:	18 97       	mov	r7,r12
8000466a:	16 91       	mov	r1,r11
8000466c:	30 6c       	mov	r12,6
8000466e:	fe b0 ed 4e 	rcall	8000210a <gpio_set_gpio_pin>
80004672:	31 e8       	mov	r8,30
80004674:	30 09       	mov	r9,0
80004676:	3f fa       	mov	r10,-1
80004678:	fa e9 00 00 	st.d	sp[0],r8
8000467c:	3f fb       	mov	r11,-1
8000467e:	fa e8 00 00 	ld.d	r8,sp[0]
80004682:	14 08       	add	r8,r10
80004684:	f2 0b 00 49 	adc	r9,r9,r11
80004688:	fa e9 00 00 	st.d	sp[0],r8
8000468c:	fa e8 00 00 	ld.d	r8,sp[0]
80004690:	58 08       	cp.w	r8,0
80004692:	5c 29       	cpc	r9
80004694:	cf 51       	brne	8000467e <bfin_load+0x1a>
80004696:	30 6c       	mov	r12,6
80004698:	fe b0 ed 46 	rcall	80002124 <gpio_clr_gpio_pin>
8000469c:	31 e8       	mov	r8,30
8000469e:	30 09       	mov	r9,0
800046a0:	3f fa       	mov	r10,-1
800046a2:	fa e9 00 00 	st.d	sp[0],r8
800046a6:	3f fb       	mov	r11,-1
800046a8:	fa e8 00 00 	ld.d	r8,sp[0]
800046ac:	14 08       	add	r8,r10
800046ae:	f2 0b 00 49 	adc	r9,r9,r11
800046b2:	fa e9 00 00 	st.d	sp[0],r8
800046b6:	fa e8 00 00 	ld.d	r8,sp[0]
800046ba:	58 08       	cp.w	r8,0
800046bc:	5c 29       	cpc	r9
800046be:	cf 51       	brne	800046a8 <bfin_load+0x44>
800046c0:	30 6c       	mov	r12,6
800046c2:	fe b0 ed 24 	rcall	8000210a <gpio_set_gpio_pin>
800046c6:	e0 68 0b b8 	mov	r8,3000
800046ca:	30 09       	mov	r9,0
800046cc:	3f fa       	mov	r10,-1
800046ce:	fa e9 00 00 	st.d	sp[0],r8
800046d2:	3f fb       	mov	r11,-1
800046d4:	fa e8 00 00 	ld.d	r8,sp[0]
800046d8:	14 08       	add	r8,r10
800046da:	f2 0b 00 49 	adc	r9,r9,r11
800046de:	fa e9 00 00 	st.d	sp[0],r8
800046e2:	fa e8 00 00 	ld.d	r8,sp[0]
800046e6:	58 08       	cp.w	r8,0
800046e8:	5c 29       	cpc	r9
800046ea:	cf 51       	brne	800046d4 <bfin_load+0x70>
800046ec:	fe cc 96 d4 	sub	r12,pc,-26924
800046f0:	fe b0 f1 b4 	rcall	80002a58 <print_dbg>
800046f4:	0e 9c       	mov	r12,r7
800046f6:	fe b0 f1 8f 	rcall	80002a14 <print_dbg_ulong>
800046fa:	fe cc 96 ce 	sub	r12,pc,-26930
800046fe:	fe b0 f1 ad 	rcall	80002a58 <print_dbg>
80004702:	02 9c       	mov	r12,r1
80004704:	fe b0 f1 52 	rcall	800029a8 <print_dbg_hex>
80004708:	fe cc 96 cc 	sub	r12,pc,-26932
8000470c:	fe b0 f1 a6 	rcall	80002a58 <print_dbg>
80004710:	30 0b       	mov	r11,0
80004712:	fe 7c 24 00 	mov	r12,-56320
80004716:	0e 92       	mov	r2,r7
80004718:	fe b0 ee f8 	rcall	80002508 <spi_selectChip>
8000471c:	30 03       	mov	r3,0
8000471e:	58 02       	cp.w	r2,0
80004720:	5c 23       	cpc	r3
80004722:	c2 40       	breq	8000476a <bfin_load+0x106>
80004724:	30 16       	mov	r6,1
80004726:	30 07       	mov	r7,0
80004728:	0c 94       	mov	r4,r6
8000472a:	0e 95       	mov	r5,r7
8000472c:	02 9c       	mov	r12,r1
8000472e:	e0 a0 1b 77 	rcall	80007e1c <fl_fgetc>
80004732:	18 90       	mov	r0,r12
80004734:	c0 58       	rjmp	8000473e <bfin_load+0xda>
80004736:	fe cc 96 f6 	sub	r12,pc,-26890
8000473a:	fe b0 f1 8f 	rcall	80002a58 <print_dbg>
8000473e:	30 5c       	mov	r12,5
80004740:	fe b0 ec da 	rcall	800020f4 <gpio_get_pin_value>
80004744:	cf 91       	brne	80004736 <bfin_load+0xd2>
80004746:	08 06       	add	r6,r4
80004748:	ee 05 00 47 	adc	r7,r7,r5
8000474c:	f7 d0 c0 08 	bfextu	r11,r0,0x0,0x8
80004750:	fe 7c 24 00 	mov	r12,-56320
80004754:	fe b0 ef 6f 	rcall	80002632 <spi_write>
80004758:	ec 04 01 08 	sub	r8,r6,r4
8000475c:	ee 05 01 49 	sbc	r9,r7,r5
80004760:	10 32       	cp.w	r2,r8
80004762:	f2 03 13 00 	cpc	r3,r9
80004766:	fe 9b ff e3 	brhi	8000472c <bfin_load+0xc8>
8000476a:	30 0b       	mov	r11,0
8000476c:	fe 7c 24 00 	mov	r12,-56320
80004770:	fe b0 ee f4 	rcall	80002558 <spi_unselectChip>
80004774:	fe cc 97 1c 	sub	r12,pc,-26852
80004778:	fe b0 f1 70 	rcall	80002a58 <print_dbg>
8000477c:	30 09       	mov	r9,0
8000477e:	e0 68 03 e8 	mov	r8,1000
80004782:	e0 6a 07 e7 	mov	r10,2023
80004786:	ea 1a 12 c8 	orh	r10,0x12c8
8000478a:	30 3b       	mov	r11,3
8000478c:	e0 a0 2f 0d 	rcall	8000a5a6 <__avr32_udiv64>
80004790:	e1 b9 00 42 	mfsr	r9,0x108
80004794:	f2 0a 00 0a 	add	r10,r9,r10
80004798:	e1 b8 00 42 	mfsr	r8,0x108
8000479c:	14 39       	cp.w	r9,r10
8000479e:	e0 8b 00 10 	brhi	800047be <bfin_load+0x15a>
800047a2:	12 38       	cp.w	r8,r9
800047a4:	c0 43       	brcs	800047ac <bfin_load+0x148>
800047a6:	14 38       	cp.w	r8,r10
800047a8:	e0 88 00 11 	brls	800047ca <bfin_load+0x166>
800047ac:	fe cc 97 34 	sub	r12,pc,-26828
800047b0:	fe b0 f1 54 	rcall	80002a58 <print_dbg>
800047b4:	c3 2f       	rcall	80004618 <bfin_report_params>
800047b6:	2f ed       	sub	sp,-8
800047b8:	d8 32       	popm	r0-r7,pc
800047ba:	e1 b8 00 42 	mfsr	r8,0x108
800047be:	10 39       	cp.w	r9,r8
800047c0:	fe 98 ff fd 	brls	800047ba <bfin_load+0x156>
800047c4:	10 3a       	cp.w	r10,r8
800047c6:	cf a2       	brcc	800047ba <bfin_load+0x156>
800047c8:	cf 2b       	rjmp	800047ac <bfin_load+0x148>
800047ca:	e1 b8 00 42 	mfsr	r8,0x108
800047ce:	ce ab       	rjmp	800047a2 <bfin_load+0x13e>

800047d0 <init_events>:
800047d0:	e0 6a 01 74 	mov	r10,372
800047d4:	30 08       	mov	r8,0
800047d6:	95 08       	st.w	r10[0x0],r8
800047d8:	e0 6a 01 78 	mov	r10,376
800047dc:	10 99       	mov	r9,r8
800047de:	95 08       	st.w	r10[0x0],r8
800047e0:	e0 68 01 7c 	mov	r8,380
800047e4:	f0 ca ff 00 	sub	r10,r8,-256
800047e8:	91 09       	st.w	r8[0x0],r9
800047ea:	91 19       	st.w	r8[0x4],r9
800047ec:	2f 88       	sub	r8,-8
800047ee:	14 38       	cp.w	r8,r10
800047f0:	cf c1       	brne	800047e8 <init_events+0x18>
800047f2:	5e fc       	retal	r12

800047f4 <post_event>:
800047f4:	d4 01       	pushm	lr
800047f6:	d3 33       	ssrf	0x13
800047f8:	e0 69 01 74 	mov	r9,372
800047fc:	72 0a       	ld.w	r10,r9[0x0]
800047fe:	f4 c8 ff ff 	sub	r8,r10,-1
80004802:	93 08       	st.w	r9[0x0],r8
80004804:	e0 48 00 20 	cp.w	r8,32
80004808:	f9 b8 00 00 	moveq	r8,0
8000480c:	f3 f8 0a 00 	st.weq	r9[0x0],r8
80004810:	e0 6b 01 78 	mov	r11,376
80004814:	76 0b       	ld.w	r11,r11[0x0]
80004816:	10 3b       	cp.w	r11,r8
80004818:	c0 d0       	breq	80004832 <post_event+0x3e>
8000481a:	78 0a       	ld.w	r10,r12[0x0]
8000481c:	e0 69 01 7c 	mov	r9,380
80004820:	f2 08 09 3a 	st.w	r9[r8<<0x3],r10
80004824:	f2 08 00 38 	add	r8,r9,r8<<0x3
80004828:	78 19       	ld.w	r9,r12[0x4]
8000482a:	30 1c       	mov	r12,1
8000482c:	91 19       	st.w	r8[0x4],r9
8000482e:	d5 33       	csrf	0x13
80004830:	d8 02       	popm	pc
80004832:	93 0a       	st.w	r9[0x0],r10
80004834:	fe cc 97 9c 	sub	r12,pc,-26724
80004838:	fe b0 f1 10 	rcall	80002a58 <print_dbg>
8000483c:	30 0c       	mov	r12,0
8000483e:	d5 33       	csrf	0x13
80004840:	d8 02       	popm	pc
80004842:	d7 03       	nop

80004844 <get_next_event>:
80004844:	18 99       	mov	r9,r12
80004846:	d3 33       	ssrf	0x13
80004848:	e0 68 01 74 	mov	r8,372
8000484c:	e0 6a 01 78 	mov	r10,376
80004850:	70 0b       	ld.w	r11,r8[0x0]
80004852:	74 08       	ld.w	r8,r10[0x0]
80004854:	16 38       	cp.w	r8,r11
80004856:	c1 50       	breq	80004880 <get_next_event+0x3c>
80004858:	2f f8       	sub	r8,-1
8000485a:	95 08       	st.w	r10[0x0],r8
8000485c:	e0 48 00 20 	cp.w	r8,32
80004860:	f9 b8 00 00 	moveq	r8,0
80004864:	f5 f8 0a 00 	st.weq	r10[0x0],r8
80004868:	e0 6a 01 7c 	mov	r10,380
8000486c:	f4 08 00 3b 	add	r11,r10,r8<<0x3
80004870:	f4 08 03 38 	ld.w	r8,r10[r8<<0x3]
80004874:	99 08       	st.w	r12[0x0],r8
80004876:	76 18       	ld.w	r8,r11[0x4]
80004878:	99 18       	st.w	r12[0x4],r8
8000487a:	30 1c       	mov	r12,1
8000487c:	d5 33       	csrf	0x13
8000487e:	5e fc       	retal	r12
80004880:	30 0c       	mov	r12,0
80004882:	e0 68 00 ff 	mov	r8,255
80004886:	93 1c       	st.w	r9[0x4],r12
80004888:	93 08       	st.w	r9[0x0],r8
8000488a:	d5 33       	csrf	0x13
8000488c:	5e fc       	retal	r12
8000488e:	d7 03       	nop

80004890 <set_enc_thresh>:
80004890:	f8 0c 00 1c 	add	r12,r12,r12<<0x1
80004894:	e0 68 22 44 	mov	r8,8772
80004898:	f0 0c 00 2c 	add	r12,r8,r12<<0x2
8000489c:	b8 3b       	st.h	r12[0x6],r11
8000489e:	5e fc       	retal	r12

800048a0 <process_enc>:
800048a0:	eb cd 40 f8 	pushm	r3-r7,lr
800048a4:	e0 65 22 44 	mov	r5,8772
800048a8:	f8 0c 00 14 	add	r4,r12,r12<<0x1
800048ac:	ea 04 00 26 	add	r6,r5,r4<<0x2
800048b0:	0c 97       	mov	r7,r6
800048b2:	0f 3c       	ld.ub	r12,r7++
800048b4:	fe b0 ec 20 	rcall	800020f4 <gpio_get_pin_value>
800048b8:	18 93       	mov	r3,r12
800048ba:	0f 8c       	ld.ub	r12,r7[0x0]
800048bc:	fe b0 ec 1c 	rcall	800020f4 <gpio_get_pin_value>
800048c0:	0d a8       	ld.ub	r8,r6[0x2]
800048c2:	e6 0c 00 13 	add	r3,r3,r12<<0x1
800048c6:	5c 53       	castu.b	r3
800048c8:	e6 08 18 00 	cp.b	r8,r3
800048cc:	c0 e0       	breq	800048e8 <process_enc+0x48>
800048ce:	2f f4       	sub	r4,-1
800048d0:	e6 08 00 28 	add	r8,r3,r8<<0x2
800048d4:	ea 04 04 29 	ld.sh	r9,r5[r4<<0x2]
800048d8:	fe ca 98 2b 	sub	r10,pc,-26581
800048dc:	f4 08 06 08 	ld.sb	r8,r10[r8]
800048e0:	10 19       	sub	r9,r8
800048e2:	ea 04 0a 29 	st.h	r5[r4<<0x2],r9
800048e6:	ac a3       	st.b	r6[0x2],r3
800048e8:	e3 cd 80 f8 	ldm	sp++,r3-r7,pc

800048ec <init_encoders>:
800048ec:	eb cd 40 e0 	pushm	r5-r7,lr
800048f0:	32 28       	mov	r8,34
800048f2:	e0 67 22 44 	mov	r7,8772
800048f6:	ae 88       	st.b	r7[0x0],r8
800048f8:	32 38       	mov	r8,35
800048fa:	ae 98       	st.b	r7[0x1],r8
800048fc:	30 58       	mov	r8,5
800048fe:	8f 28       	st.w	r7[0x8],r8
80004900:	32 48       	mov	r8,36
80004902:	ef 68 00 0c 	st.b	r7[12],r8
80004906:	32 58       	mov	r8,37
80004908:	ef 68 00 0d 	st.b	r7[13],r8
8000490c:	30 68       	mov	r8,6
8000490e:	8f 58       	st.w	r7[0x14],r8
80004910:	32 68       	mov	r8,38
80004912:	ef 68 00 18 	st.b	r7[24],r8
80004916:	32 78       	mov	r8,39
80004918:	ef 68 00 19 	st.b	r7[25],r8
8000491c:	30 78       	mov	r8,7
8000491e:	8f 88       	st.w	r7[0x20],r8
80004920:	32 88       	mov	r8,40
80004922:	ef 68 00 24 	st.b	r7[36],r8
80004926:	32 98       	mov	r8,41
80004928:	ef 68 00 25 	st.b	r7[37],r8
8000492c:	30 88       	mov	r8,8
8000492e:	32 2c       	mov	r12,34
80004930:	8f b8       	st.w	r7[0x2c],r8
80004932:	fe b0 eb e1 	rcall	800020f4 <gpio_get_pin_value>
80004936:	18 96       	mov	r6,r12
80004938:	0f 9c       	ld.ub	r12,r7[0x1]
8000493a:	fe b0 eb dd 	rcall	800020f4 <gpio_get_pin_value>
8000493e:	ec 0c 00 1c 	add	r12,r6,r12<<0x1
80004942:	30 06       	mov	r6,0
80004944:	ae ac       	st.b	r7[0x2],r12
80004946:	ae 36       	st.h	r7[0x6],r6
80004948:	ef 3c 00 0c 	ld.ub	r12,r7[12]
8000494c:	fe b0 eb d4 	rcall	800020f4 <gpio_get_pin_value>
80004950:	18 95       	mov	r5,r12
80004952:	ef 3c 00 0d 	ld.ub	r12,r7[13]
80004956:	fe b0 eb cf 	rcall	800020f4 <gpio_get_pin_value>
8000495a:	ea 0c 00 1c 	add	r12,r5,r12<<0x1
8000495e:	ef 56 00 12 	st.h	r7[18],r6
80004962:	ef 6c 00 0e 	st.b	r7[14],r12
80004966:	ef 3c 00 18 	ld.ub	r12,r7[24]
8000496a:	fe b0 eb c5 	rcall	800020f4 <gpio_get_pin_value>
8000496e:	18 95       	mov	r5,r12
80004970:	ef 3c 00 19 	ld.ub	r12,r7[25]
80004974:	fe b0 eb c0 	rcall	800020f4 <gpio_get_pin_value>
80004978:	ea 0c 00 1c 	add	r12,r5,r12<<0x1
8000497c:	ef 56 00 1e 	st.h	r7[30],r6
80004980:	ef 6c 00 1a 	st.b	r7[26],r12
80004984:	ef 3c 00 24 	ld.ub	r12,r7[36]
80004988:	fe b0 eb b6 	rcall	800020f4 <gpio_get_pin_value>
8000498c:	18 95       	mov	r5,r12
8000498e:	ef 3c 00 25 	ld.ub	r12,r7[37]
80004992:	fe b0 eb b1 	rcall	800020f4 <gpio_get_pin_value>
80004996:	ef 56 00 2a 	st.h	r7[42],r6
8000499a:	ea 0c 00 1c 	add	r12,r5,r12<<0x1
8000499e:	ef 6c 00 26 	st.b	r7[38],r12
800049a2:	e3 cd 80 e0 	ldm	sp++,r5-r7,pc
800049a6:	d7 03       	nop

800049a8 <files_get_dsp_name>:
800049a8:	e0 68 22 74 	mov	r8,8820
800049ac:	a5 7c       	lsl	r12,0x5
800049ae:	f0 0c 00 0c 	add	r12,r8,r12
800049b2:	5e fc       	retal	r12

800049b4 <files_get_dsp_count>:
800049b4:	e0 68 02 7c 	mov	r8,636
800049b8:	11 8c       	ld.ub	r12,r8[0x0]
800049ba:	5e fc       	retal	r12

800049bc <files_load_dsp_name>:
800049bc:	eb cd 40 e0 	pushm	r5-r7,lr
800049c0:	fa cd 01 5c 	sub	sp,sp,348
800049c4:	18 95       	mov	r5,r12
800049c6:	d3 33       	ssrf	0x13
800049c8:	d3 33       	ssrf	0x13
800049ca:	fe cc 99 0a 	sub	r12,pc,-26358
800049ce:	fa c6 fe b0 	sub	r6,sp,-336
800049d2:	0c 9b       	mov	r11,r6
800049d4:	e0 a0 19 1c 	rcall	80007c0c <fl_opendir>
800049d8:	c5 00       	breq	80004a78 <files_load_dsp_name+0xbc>
800049da:	1a 97       	mov	r7,sp
800049dc:	c1 18       	rjmp	800049fe <files_load_dsp_name+0x42>
800049de:	0a 9b       	mov	r11,r5
800049e0:	1a 9c       	mov	r12,sp
800049e2:	e0 a0 2f d7 	rcall	8000a990 <strcmp>
800049e6:	c1 60       	breq	80004a12 <files_load_dsp_name+0x56>
800049e8:	fe cc 98 9c 	sub	r12,pc,-26468
800049ec:	fe b0 f0 36 	rcall	80002a58 <print_dbg>
800049f0:	1a 9c       	mov	r12,sp
800049f2:	fe b0 f0 33 	rcall	80002a58 <print_dbg>
800049f6:	fe cc 98 9e 	sub	r12,pc,-26466
800049fa:	fe b0 f0 2f 	rcall	80002a58 <print_dbg>
800049fe:	1a 9b       	mov	r11,sp
80004a00:	0c 9c       	mov	r12,r6
80004a02:	e0 a0 18 c7 	rcall	80007b90 <fl_readdir>
80004a06:	ce c0       	breq	800049de <files_load_dsp_name+0x22>
80004a08:	d5 33       	csrf	0x13
80004a0a:	d5 33       	csrf	0x13
80004a0c:	2a 9d       	sub	sp,-348
80004a0e:	e3 cd 80 e0 	ldm	sp++,r5-r7,pc
80004a12:	fe cc 99 4a 	sub	r12,pc,-26294
80004a16:	fe b0 f0 21 	rcall	80002a58 <print_dbg>
80004a1a:	0a 9c       	mov	r12,r5
80004a1c:	fe b0 f0 1e 	rcall	80002a58 <print_dbg>
80004a20:	fe c8 99 4c 	sub	r8,pc,-26292
80004a24:	11 d9       	ld.ub	r9,r8[0x5]
80004a26:	fa c7 fe f0 	sub	r7,sp,-272
80004a2a:	ae d9       	st.b	r7[0x5],r9
80004a2c:	70 09       	ld.w	r9,r8[0x0]
80004a2e:	8f 09       	st.w	r7[0x0],r9
80004a30:	11 c8       	ld.ub	r8,r8[0x4]
80004a32:	1a 9b       	mov	r11,sp
80004a34:	ae c8       	st.b	r7[0x4],r8
80004a36:	33 aa       	mov	r10,58
80004a38:	0e 9c       	mov	r12,r7
80004a3a:	e0 a0 30 13 	rcall	8000aa60 <strncat>
80004a3e:	0e 9c       	mov	r12,r7
80004a40:	fe cb 99 64 	sub	r11,pc,-26268
80004a44:	e0 a0 1b f8 	rcall	80008234 <fl_fopen>
80004a48:	18 97       	mov	r7,r12
80004a4a:	c1 20       	breq	80004a6e <files_load_dsp_name+0xb2>
80004a4c:	fe cc 99 6c 	sub	r12,pc,-26260
80004a50:	fe b0 f0 04 	rcall	80002a58 <print_dbg>
80004a54:	44 3c       	lddsp	r12,sp[0x10c]
80004a56:	0e 9b       	mov	r11,r7
80004a58:	c0 6e       	rcall	80004664 <bfin_load>
80004a5a:	0e 9c       	mov	r12,r7
80004a5c:	e0 a0 19 ee 	rcall	80007e38 <fl_fclose>
80004a60:	fe cc 99 30 	sub	r12,pc,-26320
80004a64:	fe b0 ef fa 	rcall	80002a58 <print_dbg>
80004a68:	2a 9d       	sub	sp,-348
80004a6a:	e3 cd 80 e0 	ldm	sp++,r5-r7,pc
80004a6e:	fe cc 99 6a 	sub	r12,pc,-26262
80004a72:	fe b0 ef f3 	rcall	80002a58 <print_dbg>
80004a76:	cf 5b       	rjmp	80004a60 <files_load_dsp_name+0xa4>
80004a78:	fe cc 99 14 	sub	r12,pc,-26348
80004a7c:	fe b0 ef ee 	rcall	80002a58 <print_dbg>
80004a80:	cc 4b       	rjmp	80004a08 <files_load_dsp_name+0x4c>
80004a82:	d7 03       	nop

80004a84 <files_load_dsp>:
80004a84:	d4 01       	pushm	lr
80004a86:	e0 68 22 74 	mov	r8,8820
80004a8a:	a5 7c       	lsl	r12,0x5
80004a8c:	f0 0c 00 0c 	add	r12,r8,r12
80004a90:	c9 6f       	rcall	800049bc <files_load_dsp_name>
80004a92:	d8 02       	popm	pc

80004a94 <files_scan_dsp>:
80004a94:	d4 21       	pushm	r4-r7,lr
80004a96:	fa cd 01 1c 	sub	sp,sp,284
80004a9a:	30 08       	mov	r8,0
80004a9c:	e0 65 02 7c 	mov	r5,636
80004aa0:	fa c6 fe f0 	sub	r6,sp,-272
80004aa4:	aa 88       	st.b	r5[0x0],r8
80004aa6:	fe cc 99 e6 	sub	r12,pc,-26138
80004aaa:	0c 9b       	mov	r11,r6
80004aac:	e0 a0 18 b0 	rcall	80007c0c <fl_opendir>
80004ab0:	c2 00       	breq	80004af0 <files_scan_dsp+0x5c>
80004ab2:	1a 97       	mov	r7,sp
80004ab4:	e0 64 22 74 	mov	r4,8820
80004ab8:	1a 9b       	mov	r11,sp
80004aba:	0c 9c       	mov	r12,r6
80004abc:	e0 a0 18 6a 	rcall	80007b90 <fl_readdir>
80004ac0:	c1 81       	brne	80004af0 <files_scan_dsp+0x5c>
80004ac2:	fb 38 01 04 	ld.ub	r8,sp[260]
80004ac6:	f8 08 18 00 	cp.b	r8,r12
80004aca:	cf 71       	brne	80004ab8 <files_scan_dsp+0x24>
80004acc:	fe cc 99 38 	sub	r12,pc,-26312
80004ad0:	fe b0 ef c4 	rcall	80002a58 <print_dbg>
80004ad4:	1a 9c       	mov	r12,sp
80004ad6:	fe b0 ef c1 	rcall	80002a58 <print_dbg>
80004ada:	0b 8c       	ld.ub	r12,r5[0x0]
80004adc:	1a 9b       	mov	r11,sp
80004ade:	a5 7c       	lsl	r12,0x5
80004ae0:	e8 0c 00 0c 	add	r12,r4,r12
80004ae4:	e0 a0 2f aa 	rcall	8000aa38 <strcpy>
80004ae8:	0b 88       	ld.ub	r8,r5[0x0]
80004aea:	2f f8       	sub	r8,-1
80004aec:	aa 88       	st.b	r5[0x0],r8
80004aee:	ce 5b       	rjmp	80004ab8 <files_scan_dsp+0x24>
80004af0:	2b 9d       	sub	sp,-284
80004af2:	d8 22       	popm	r4-r7,pc

80004af4 <init_files>:
80004af4:	d4 01       	pushm	lr
80004af6:	c0 3c       	rcall	80004afc <fat_init>
80004af8:	cc ef       	rcall	80004a94 <files_scan_dsp>
80004afa:	d8 02       	popm	pc

80004afc <fat_init>:
80004afc:	eb cd 40 80 	pushm	r7,lr
80004b00:	fe cc 99 54 	sub	r12,pc,-26284
80004b04:	fe b0 ef aa 	rcall	80002a58 <print_dbg>
80004b08:	e0 a0 15 f6 	rcall	800076f4 <fl_init>
80004b0c:	fe cc 99 40 	sub	r12,pc,-26304
80004b10:	fe b0 ef a4 	rcall	80002a58 <print_dbg>
80004b14:	fe cb ff d4 	sub	r11,pc,-44
80004b18:	fe cc ff 74 	sub	r12,pc,-140
80004b1c:	e0 a0 1a 1e 	rcall	80007f58 <fl_attach_media>
80004b20:	18 97       	mov	r7,r12
80004b22:	c0 81       	brne	80004b32 <fat_init+0x36>
80004b24:	fe cc 98 fc 	sub	r12,pc,-26372
80004b28:	fe b0 ef 98 	rcall	80002a58 <print_dbg>
80004b2c:	0e 9c       	mov	r12,r7
80004b2e:	e3 cd 80 80 	ldm	sp++,r7,pc
80004b32:	fe cc 99 46 	sub	r12,pc,-26298
80004b36:	fe b0 ef 91 	rcall	80002a58 <print_dbg>
80004b3a:	e3 cf 90 80 	ldm	sp++,r7,pc,r12=1
80004b3e:	d7 03       	nop

80004b40 <media_write>:
80004b40:	eb cd 40 f8 	pushm	r3-r7,lr
80004b44:	16 97       	mov	r7,r11
80004b46:	14 94       	mov	r4,r10
80004b48:	18 93       	mov	r3,r12
80004b4a:	fe b0 f0 6d 	rcall	80002c24 <sd_mmc_spi_write_open>
80004b4e:	18 96       	mov	r6,r12
80004b50:	c1 f0       	breq	80004b8e <media_write+0x4e>
80004b52:	58 04       	cp.w	r4,0
80004b54:	c1 90       	breq	80004b86 <media_write+0x46>
80004b56:	30 06       	mov	r6,0
80004b58:	c0 48       	rjmp	80004b60 <media_write+0x20>
80004b5a:	0c 34       	cp.w	r4,r6
80004b5c:	e0 88 00 15 	brls	80004b86 <media_write+0x46>
80004b60:	ec 03 00 05 	add	r5,r6,r3
80004b64:	0e 9c       	mov	r12,r7
80004b66:	2f f6       	sub	r6,-1
80004b68:	ee c7 fe 00 	sub	r7,r7,-512
80004b6c:	fe b0 f2 76 	rcall	80003058 <sd_mmc_spi_write_sector_from_ram>
80004b70:	cf 51       	brne	80004b5a <media_write+0x1a>
80004b72:	fe cc 98 ee 	sub	r12,pc,-26386
80004b76:	fe b0 ef 71 	rcall	80002a58 <print_dbg>
80004b7a:	0a 9c       	mov	r12,r5
80004b7c:	fe b0 ef 16 	rcall	800029a8 <print_dbg_hex>
80004b80:	0c 34       	cp.w	r4,r6
80004b82:	fe 9b ff ef 	brhi	80004b60 <media_write+0x20>
80004b86:	fe b0 ef f9 	rcall	80002b78 <sd_mmc_spi_write_close>
80004b8a:	e3 cf 90 f8 	ldm	sp++,r3-r7,pc,r12=1
80004b8e:	fe cc 99 32 	sub	r12,pc,-26318
80004b92:	fe b0 ef 63 	rcall	80002a58 <print_dbg>
80004b96:	06 9c       	mov	r12,r3
80004b98:	fe b0 ef 08 	rcall	800029a8 <print_dbg_hex>
80004b9c:	0c 9c       	mov	r12,r6
80004b9e:	e3 cd 80 f8 	ldm	sp++,r3-r7,pc
80004ba2:	d7 03       	nop

80004ba4 <media_read>:
80004ba4:	d4 31       	pushm	r0-r7,lr
80004ba6:	18 94       	mov	r4,r12
80004ba8:	16 97       	mov	r7,r11
80004baa:	14 91       	mov	r1,r10
80004bac:	58 0a       	cp.w	r10,0
80004bae:	c5 40       	breq	80004c56 <media_read+0xb2>
80004bb0:	30 03       	mov	r3,0
80004bb2:	e0 66 28 80 	mov	r6,10368
80004bb6:	e0 65 26 78 	mov	r5,9848
80004bba:	30 10       	mov	r0,1
80004bbc:	06 92       	mov	r2,r3
80004bbe:	e0 6a 02 00 	mov	r10,512
80004bc2:	e0 6b 28 80 	mov	r11,10368
80004bc6:	30 0c       	mov	r12,0
80004bc8:	fe b0 ec 01 	rcall	800023ca <pdca_load_channel>
80004bcc:	30 1c       	mov	r12,1
80004bce:	e0 6a 02 00 	mov	r10,512
80004bd2:	e0 6b 26 80 	mov	r11,9856
80004bd6:	fe b0 eb fa 	rcall	800023ca <pdca_load_channel>
80004bda:	08 9c       	mov	r12,r4
80004bdc:	aa 82       	st.b	r5[0x0],r2
80004bde:	fe b0 f1 77 	rcall	80002ecc <sd_mmc_spi_read_open_PDCA>
80004be2:	c2 f0       	breq	80004c40 <media_read+0x9c>
80004be4:	e0 6b 00 ff 	mov	r11,255
80004be8:	fe 7c 28 00 	mov	r12,-55296
80004bec:	fe b0 ed 23 	rcall	80002632 <spi_write>
80004bf0:	30 0c       	mov	r12,0
80004bf2:	fe b0 eb c8 	rcall	80002382 <pdca_enable_interrupt_transfer_complete>
80004bf6:	30 0c       	mov	r12,0
80004bf8:	fe b0 eb ac 	rcall	80002350 <pdca_get_handler>
80004bfc:	e0 63 26 74 	mov	r3,9844
80004c00:	87 0c       	st.w	r3[0x0],r12
80004c02:	30 1c       	mov	r12,1
80004c04:	fe b0 eb a6 	rcall	80002350 <pdca_get_handler>
80004c08:	e0 68 26 7c 	mov	r8,9852
80004c0c:	91 0c       	st.w	r8[0x0],r12
80004c0e:	66 09       	ld.w	r9,r3[0x0]
80004c10:	93 50       	st.w	r9[0x14],r0
80004c12:	70 08       	ld.w	r8,r8[0x0]
80004c14:	91 50       	st.w	r8[0x14],r0
80004c16:	0b 88       	ld.ub	r8,r5[0x0]
80004c18:	58 08       	cp.w	r8,0
80004c1a:	cf e0       	breq	80004c16 <media_read+0x72>
80004c1c:	30 08       	mov	r8,0
80004c1e:	ec 08 07 09 	ld.ub	r9,r6[r8]
80004c22:	ee 08 0b 09 	st.b	r7[r8],r9
80004c26:	2f f8       	sub	r8,-1
80004c28:	e0 48 02 00 	cp.w	r8,512
80004c2c:	cf 91       	brne	80004c1e <media_read+0x7a>
80004c2e:	e0 63 02 01 	mov	r3,513
80004c32:	06 31       	cp.w	r1,r3
80004c34:	e0 88 00 11 	brls	80004c56 <media_read+0xb2>
80004c38:	2f f4       	sub	r4,-1
80004c3a:	ee c7 fe 00 	sub	r7,r7,-512
80004c3e:	cc 0b       	rjmp	80004bbe <media_read+0x1a>
80004c40:	fe cc 99 94 	sub	r12,pc,-26220
80004c44:	fe b0 ef 0a 	rcall	80002a58 <print_dbg>
80004c48:	2f f3       	sub	r3,-1
80004c4a:	08 9c       	mov	r12,r4
80004c4c:	fe b0 ee e4 	rcall	80002a14 <print_dbg_ulong>
80004c50:	06 31       	cp.w	r1,r3
80004c52:	fe 9b ff f3 	brhi	80004c38 <media_read+0x94>
80004c56:	da 3a       	popm	r0-r7,pc,r12=1

80004c58 <init_bfin_resources>:
80004c58:	eb cd 40 80 	pushm	r7,lr
80004c5c:	20 4d       	sub	sp,16
80004c5e:	fe c8 99 56 	sub	r8,pc,-26282
80004c62:	f0 ea 00 08 	ld.d	r10,r8[8]
80004c66:	fa eb 00 08 	st.d	sp[8],r10
80004c6a:	f0 e8 00 00 	ld.d	r8,r8[0]
80004c6e:	1a 97       	mov	r7,sp
80004c70:	fa e9 00 00 	st.d	sp[0],r8
80004c74:	30 4b       	mov	r11,4
80004c76:	fe cc 99 9e 	sub	r12,pc,-26210
80004c7a:	fe b0 ea a7 	rcall	800021c8 <gpio_enable_module>
80004c7e:	1a 9b       	mov	r11,sp
80004c80:	fe 7c 24 00 	mov	r12,-56320
80004c84:	fe b0 ec 0e 	rcall	800024a0 <spi_initMaster>
80004c88:	30 09       	mov	r9,0
80004c8a:	fe 7c 24 00 	mov	r12,-56320
80004c8e:	12 9a       	mov	r10,r9
80004c90:	12 9b       	mov	r11,r9
80004c92:	fe b0 ec 26 	rcall	800024de <spi_selectionMode>
80004c96:	fe 7c 24 00 	mov	r12,-56320
80004c9a:	fe b0 ec c9 	rcall	8000262c <spi_enable>
80004c9e:	1a 9b       	mov	r11,sp
80004ca0:	e0 6a 14 80 	mov	r10,5248
80004ca4:	ea 1a 03 ef 	orh	r10,0x3ef
80004ca8:	fe 7c 24 00 	mov	r12,-56320
80004cac:	fe b0 ec 6a 	rcall	80002580 <spi_setupChipReg>
80004cb0:	30 6c       	mov	r12,6
80004cb2:	fe b0 ea 17 	rcall	800020e0 <gpio_enable_pin_pull_up>
80004cb6:	2f cd       	sub	sp,-16
80004cb8:	e3 cd 80 80 	ldm	sp++,r7,pc

80004cbc <init_local_pdca>:
80004cbc:	eb cd 40 b0 	pushm	r4-r5,r7,lr
80004cc0:	20 cd       	sub	sp,48
80004cc2:	fe ca 99 a6 	sub	r10,pc,-26202
80004cc6:	f4 e4 00 10 	ld.d	r4,r10[16]
80004cca:	fa c7 ff e8 	sub	r7,sp,-24
80004cce:	fe c9 99 4e 	sub	r9,pc,-26290
80004cd2:	ee e5 00 10 	st.d	r7[16],r4
80004cd6:	f2 e4 00 10 	ld.d	r4,r9[16]
80004cda:	fa e5 00 10 	st.d	sp[16],r4
80004cde:	f4 e4 00 00 	ld.d	r4,r10[0]
80004ce2:	ee e5 00 00 	st.d	r7[0],r4
80004ce6:	f4 e4 00 08 	ld.d	r4,r10[8]
80004cea:	ee e5 00 08 	st.d	r7[8],r4
80004cee:	f2 e4 00 00 	ld.d	r4,r9[0]
80004cf2:	1a 9b       	mov	r11,sp
80004cf4:	fa e5 00 00 	st.d	sp[0],r4
80004cf8:	30 1c       	mov	r12,1
80004cfa:	f2 e4 00 08 	ld.d	r4,r9[8]
80004cfe:	fa e5 00 08 	st.d	sp[8],r4
80004d02:	fe b0 eb 7c 	rcall	800023fa <pdca_init_channel>
80004d06:	0e 9b       	mov	r11,r7
80004d08:	30 0c       	mov	r12,0
80004d0a:	fe b0 eb 78 	rcall	800023fa <pdca_init_channel>
80004d0e:	2f 4d       	sub	sp,-48
80004d10:	e3 cd 80 b0 	ldm	sp++,r4-r5,r7,pc

80004d14 <init_spi1>:
80004d14:	d4 21       	pushm	r4-r7,lr
80004d16:	20 4d       	sub	sp,16
80004d18:	fe c8 9a 20 	sub	r8,pc,-26080
80004d1c:	f0 ea 00 08 	ld.d	r10,r8[8]
80004d20:	fa eb 00 08 	st.d	sp[8],r10
80004d24:	f0 e8 00 00 	ld.d	r8,r8[0]
80004d28:	1a 97       	mov	r7,sp
80004d2a:	fa e9 00 00 	st.d	sp[0],r8
80004d2e:	30 6b       	mov	r11,6
80004d30:	fe cc 99 fc 	sub	r12,pc,-26116
80004d34:	fe b0 ea 4a 	rcall	800021c8 <gpio_enable_module>
80004d38:	1a 9b       	mov	r11,sp
80004d3a:	fe 7c 28 00 	mov	r12,-55296
80004d3e:	fe b0 eb b1 	rcall	800024a0 <spi_initMaster>
80004d42:	30 09       	mov	r9,0
80004d44:	fe 7c 28 00 	mov	r12,-55296
80004d48:	12 9a       	mov	r10,r9
80004d4a:	12 9b       	mov	r11,r9
80004d4c:	fe b0 eb c9 	rcall	800024de <spi_selectionMode>
80004d50:	fe 7c 28 00 	mov	r12,-55296
80004d54:	fe b0 ec 6c 	rcall	8000262c <spi_enable>
80004d58:	1a 9b       	mov	r11,sp
80004d5a:	e0 6a 14 80 	mov	r10,5248
80004d5e:	ea 1a 03 ef 	orh	r10,0x3ef
80004d62:	fe 7c 28 00 	mov	r12,-55296
80004d66:	fe b0 ec 0d 	rcall	80002580 <spi_setupChipReg>
80004d6a:	e0 68 2d 00 	mov	r8,11520
80004d6e:	ea 18 01 31 	orh	r8,0x131
80004d72:	50 18       	stdsp	sp[0x4],r8
80004d74:	31 08       	mov	r8,16
80004d76:	fb 68 00 08 	st.b	sp[8],r8
80004d7a:	30 58       	mov	r8,5
80004d7c:	30 06       	mov	r6,0
80004d7e:	30 15       	mov	r5,1
80004d80:	1a 9b       	mov	r11,sp
80004d82:	fb 68 00 0a 	st.b	sp[10],r8
80004d86:	fb 66 00 09 	st.b	sp[9],r6
80004d8a:	fb 66 00 0b 	st.b	sp[11],r6
80004d8e:	fb 66 00 0d 	st.b	sp[13],r6
80004d92:	ba 85       	st.b	sp[0x0],r5
80004d94:	30 24       	mov	r4,2
80004d96:	e0 6a 14 80 	mov	r10,5248
80004d9a:	ea 1a 03 ef 	orh	r10,0x3ef
80004d9e:	fb 64 00 0c 	st.b	sp[12],r4
80004da2:	fe 7c 28 00 	mov	r12,-55296
80004da6:	fe b0 eb ed 	rcall	80002580 <spi_setupChipReg>
80004daa:	e0 68 1b 00 	mov	r8,6912
80004dae:	ea 18 00 b7 	orh	r8,0xb7
80004db2:	ba 84       	st.b	sp[0x0],r4
80004db4:	fb 66 00 0c 	st.b	sp[12],r6
80004db8:	fb 65 00 0d 	st.b	sp[13],r5
80004dbc:	20 4d       	sub	sp,16
80004dbe:	50 58       	stdsp	sp[0x14],r8
80004dc0:	30 88       	mov	r8,8
80004dc2:	fb 66 00 19 	st.b	sp[25],r6
80004dc6:	fb 66 00 1a 	st.b	sp[26],r6
80004dca:	fb 65 00 1b 	st.b	sp[27],r5
80004dce:	fb 68 00 18 	st.b	sp[24],r8
80004dd2:	ee e8 00 08 	ld.d	r8,r7[8]
80004dd6:	fa e9 00 08 	st.d	sp[8],r8
80004dda:	ee e8 00 00 	ld.d	r8,r7[0]
80004dde:	e0 6c 14 80 	mov	r12,5248
80004de2:	ea 1c 03 ef 	orh	r12,0x3ef
80004de6:	fa e9 00 00 	st.d	sp[0],r8
80004dea:	fe b0 f6 35 	rcall	80003a54 <sd_mmc_spi_init>
80004dee:	2f cd       	sub	sp,-16
80004df0:	2f cd       	sub	sp,-16
80004df2:	d8 22       	popm	r4-r7,pc

80004df4 <init_ftdi_usart>:
80004df4:	d4 01       	pushm	lr
80004df6:	30 2b       	mov	r11,2
80004df8:	fe cc 9a 88 	sub	r12,pc,-25976
80004dfc:	fe b0 e9 e6 	rcall	800021c8 <gpio_enable_module>
80004e00:	e0 6a 14 80 	mov	r10,5248
80004e04:	ea 1a 03 ef 	orh	r10,0x3ef
80004e08:	fe cb 9a a4 	sub	r11,pc,-25948
80004e0c:	fe 7c 14 00 	mov	r12,-60416
80004e10:	fe b0 ed 5a 	rcall	800028c4 <usart_init_rs232>
80004e14:	d8 02       	popm	pc
80004e16:	d7 03       	nop

80004e18 <init_tc>:
80004e18:	eb cd 40 80 	pushm	r7,lr
80004e1c:	fe cb 9b 4c 	sub	r11,pc,-25780
80004e20:	18 97       	mov	r7,r12
80004e22:	fe b0 ec 27 	rcall	80002670 <tc_init_waveform>
80004e26:	e0 6a 02 03 	mov	r10,515
80004e2a:	30 0b       	mov	r11,0
80004e2c:	0e 9c       	mov	r12,r7
80004e2e:	fe b0 ec 82 	rcall	80002732 <tc_write_rc>
80004e32:	30 0b       	mov	r11,0
80004e34:	fe ca 9b 1c 	sub	r10,pc,-25828
80004e38:	0e 9c       	mov	r12,r7
80004e3a:	fe b0 ec 98 	rcall	8000276a <tc_configure_interrupts>
80004e3e:	0e 9c       	mov	r12,r7
80004e40:	30 0b       	mov	r11,0
80004e42:	fe b0 ec 66 	rcall	8000270e <tc_start>
80004e46:	e3 cd 80 80 	ldm	sp++,r7,pc
80004e4a:	d7 03       	nop

80004e4c <init_gpio>:
80004e4c:	d4 01       	pushm	lr
80004e4e:	32 2c       	mov	r12,34
80004e50:	fe b0 e9 48 	rcall	800020e0 <gpio_enable_pin_pull_up>
80004e54:	32 3c       	mov	r12,35
80004e56:	fe b0 e9 45 	rcall	800020e0 <gpio_enable_pin_pull_up>
80004e5a:	32 4c       	mov	r12,36
80004e5c:	fe b0 e9 42 	rcall	800020e0 <gpio_enable_pin_pull_up>
80004e60:	32 5c       	mov	r12,37
80004e62:	fe b0 e9 3f 	rcall	800020e0 <gpio_enable_pin_pull_up>
80004e66:	32 6c       	mov	r12,38
80004e68:	fe b0 e9 3c 	rcall	800020e0 <gpio_enable_pin_pull_up>
80004e6c:	32 7c       	mov	r12,39
80004e6e:	fe b0 e9 39 	rcall	800020e0 <gpio_enable_pin_pull_up>
80004e72:	32 8c       	mov	r12,40
80004e74:	fe b0 e9 36 	rcall	800020e0 <gpio_enable_pin_pull_up>
80004e78:	32 9c       	mov	r12,41
80004e7a:	fe b0 e9 33 	rcall	800020e0 <gpio_enable_pin_pull_up>
80004e7e:	33 0c       	mov	r12,48
80004e80:	fe b0 e9 30 	rcall	800020e0 <gpio_enable_pin_pull_up>
80004e84:	31 8c       	mov	r12,24
80004e86:	fe b0 e9 5c 	rcall	8000213e <gpio_enable_pin_glitch_filter>
80004e8a:	d8 02       	popm	pc

80004e8c <register_interrupts>:
80004e8c:	d4 01       	pushm	lr
80004e8e:	30 1b       	mov	r11,1
80004e90:	30 5c       	mov	r12,5
80004e92:	fe b0 e9 60 	rcall	80002152 <gpio_enable_pin_interrupt>
80004e96:	30 0b       	mov	r11,0
80004e98:	32 2c       	mov	r12,34
80004e9a:	fe b0 e9 5c 	rcall	80002152 <gpio_enable_pin_interrupt>
80004e9e:	30 0b       	mov	r11,0
80004ea0:	32 3c       	mov	r12,35
80004ea2:	fe b0 e9 58 	rcall	80002152 <gpio_enable_pin_interrupt>
80004ea6:	30 0b       	mov	r11,0
80004ea8:	32 4c       	mov	r12,36
80004eaa:	fe b0 e9 54 	rcall	80002152 <gpio_enable_pin_interrupt>
80004eae:	30 0b       	mov	r11,0
80004eb0:	32 5c       	mov	r12,37
80004eb2:	fe b0 e9 50 	rcall	80002152 <gpio_enable_pin_interrupt>
80004eb6:	30 0b       	mov	r11,0
80004eb8:	32 6c       	mov	r12,38
80004eba:	fe b0 e9 4c 	rcall	80002152 <gpio_enable_pin_interrupt>
80004ebe:	30 0b       	mov	r11,0
80004ec0:	32 7c       	mov	r12,39
80004ec2:	fe b0 e9 48 	rcall	80002152 <gpio_enable_pin_interrupt>
80004ec6:	30 0b       	mov	r11,0
80004ec8:	32 8c       	mov	r12,40
80004eca:	fe b0 e9 44 	rcall	80002152 <gpio_enable_pin_interrupt>
80004ece:	30 0b       	mov	r11,0
80004ed0:	32 9c       	mov	r12,41
80004ed2:	fe b0 e9 40 	rcall	80002152 <gpio_enable_pin_interrupt>
80004ed6:	30 0b       	mov	r11,0
80004ed8:	31 9c       	mov	r12,25
80004eda:	fe b0 e9 3c 	rcall	80002152 <gpio_enable_pin_interrupt>
80004ede:	30 0b       	mov	r11,0
80004ee0:	31 ac       	mov	r12,26
80004ee2:	fe b0 e9 38 	rcall	80002152 <gpio_enable_pin_interrupt>
80004ee6:	30 0b       	mov	r11,0
80004ee8:	31 bc       	mov	r12,27
80004eea:	fe b0 e9 34 	rcall	80002152 <gpio_enable_pin_interrupt>
80004eee:	30 0b       	mov	r11,0
80004ef0:	31 cc       	mov	r12,28
80004ef2:	fe b0 e9 30 	rcall	80002152 <gpio_enable_pin_interrupt>
80004ef6:	30 0b       	mov	r11,0
80004ef8:	33 ec       	mov	r12,62
80004efa:	fe b0 e9 2c 	rcall	80002152 <gpio_enable_pin_interrupt>
80004efe:	30 0b       	mov	r11,0
80004f00:	33 fc       	mov	r12,63
80004f02:	fe b0 e9 28 	rcall	80002152 <gpio_enable_pin_interrupt>
80004f06:	30 0b       	mov	r11,0
80004f08:	31 8c       	mov	r12,24
80004f0a:	fe b0 e9 24 	rcall	80002152 <gpio_enable_pin_interrupt>
80004f0e:	30 2a       	mov	r10,2
80004f10:	34 3b       	mov	r11,67
80004f12:	fe cc fe fa 	sub	r12,pc,-262
80004f16:	fe b0 e9 97 	rcall	80002244 <INTC_register_interrupt>
80004f1a:	30 2a       	mov	r10,2
80004f1c:	34 4b       	mov	r11,68
80004f1e:	fe cc fe 62 	sub	r12,pc,-414
80004f22:	fe b0 e9 91 	rcall	80002244 <INTC_register_interrupt>
80004f26:	30 2a       	mov	r10,2
80004f28:	34 5b       	mov	r11,69
80004f2a:	fe cc fe 9e 	sub	r12,pc,-354
80004f2e:	fe b0 e9 8b 	rcall	80002244 <INTC_register_interrupt>
80004f32:	30 2a       	mov	r10,2
80004f34:	34 7b       	mov	r11,71
80004f36:	fe cc ff 4e 	sub	r12,pc,-178
80004f3a:	fe b0 e9 85 	rcall	80002244 <INTC_register_interrupt>
80004f3e:	30 1a       	mov	r10,1
80004f40:	36 0b       	mov	r11,96
80004f42:	fe cc ff 82 	sub	r12,pc,-126
80004f46:	fe b0 e9 7f 	rcall	80002244 <INTC_register_interrupt>
80004f4a:	30 2a       	mov	r10,2
80004f4c:	e0 6b 01 c0 	mov	r11,448
80004f50:	fe cc ff f4 	sub	r12,pc,-12
80004f54:	fe b0 e9 78 	rcall	80002244 <INTC_register_interrupt>
80004f58:	d8 02       	popm	pc
80004f5a:	d7 03       	nop

80004f5c <irq_tc>:
80004f5c:	eb cd 40 c0 	pushm	r6-r7,lr
80004f60:	e0 68 02 80 	mov	r8,640
80004f64:	30 1a       	mov	r10,1
80004f66:	f0 e6 00 00 	ld.d	r6,r8[0]
80004f6a:	30 0b       	mov	r11,0
80004f6c:	ec 0a 00 0a 	add	r10,r6,r10
80004f70:	ee 0b 00 4b 	adc	r11,r7,r11
80004f74:	f0 eb 00 00 	st.d	r8[0],r10
80004f78:	e0 66 ff ff 	mov	r6,65535
80004f7c:	ea 16 7f ff 	orh	r6,0x7fff
80004f80:	f0 ea 00 00 	ld.d	r10,r8[0]
80004f84:	30 07       	mov	r7,0
80004f86:	0c 3a       	cp.w	r10,r6
80004f88:	ee 0b 13 00 	cpc	r11,r7
80004f8c:	e0 8b 00 10 	brhi	80004fac <irq_tc+0x50>
80004f90:	30 09       	mov	r9,0
80004f92:	e0 68 02 7e 	mov	r8,638
80004f96:	b0 89       	st.b	r8[0x0],r9
80004f98:	e0 a0 07 94 	rcall	80005ec0 <process_timers>
80004f9c:	30 0b       	mov	r11,0
80004f9e:	fe 7c 38 00 	mov	r12,-51200
80004fa2:	fe b0 eb bf 	rcall	80002720 <tc_read_sr>
80004fa6:	e3 cd 40 c0 	ldm	sp++,r6-r7,lr
80004faa:	d6 03       	rete
80004fac:	30 0a       	mov	r10,0
80004fae:	30 0b       	mov	r11,0
80004fb0:	f0 eb 00 00 	st.d	r8[0],r10
80004fb4:	30 19       	mov	r9,1
80004fb6:	e0 68 02 7e 	mov	r8,638
80004fba:	b0 89       	st.b	r8[0x0],r9
80004fbc:	ce eb       	rjmp	80004f98 <irq_tc+0x3c>
80004fbe:	d7 03       	nop

80004fc0 <irq_pdca>:
80004fc0:	d4 01       	pushm	lr
80004fc2:	d3 03       	ssrf	0x10
80004fc4:	30 0c       	mov	r12,0
80004fc6:	fe b0 e9 ed 	rcall	800023a0 <pdca_disable_interrupt_transfer_complete>
80004fca:	fe b0 ed d9 	rcall	80002b7c <sd_mmc_spi_read_close_PDCA>
80004fce:	30 1c       	mov	r12,1
80004fd0:	fe b0 e9 ca 	rcall	80002364 <pdca_disable>
80004fd4:	30 0c       	mov	r12,0
80004fd6:	fe b0 e9 c7 	rcall	80002364 <pdca_disable>
80004fda:	d5 03       	csrf	0x10
80004fdc:	30 19       	mov	r9,1
80004fde:	e0 68 26 78 	mov	r8,9848
80004fe2:	b0 89       	st.b	r8[0x0],r9
80004fe4:	d4 02       	popm	lr
80004fe6:	d6 03       	rete

80004fe8 <irq_port1_line3>:
80004fe8:	d4 01       	pushm	lr
80004fea:	33 ec       	mov	r12,62
80004fec:	fe b0 e8 d8 	rcall	8000219c <gpio_get_pin_interrupt_flag>
80004ff0:	c0 d1       	brne	8000500a <irq_port1_line3+0x22>
80004ff2:	33 fc       	mov	r12,63
80004ff4:	fe b0 e8 d4 	rcall	8000219c <gpio_get_pin_interrupt_flag>
80004ff8:	c0 70       	breq	80005006 <irq_port1_line3+0x1e>
80004ffa:	33 fc       	mov	r12,63
80004ffc:	fe b0 e8 dc 	rcall	800021b4 <gpio_clear_pin_interrupt_flag>
80005000:	30 7c       	mov	r12,7
80005002:	e0 a0 07 41 	rcall	80005e84 <process_sw>
80005006:	d4 02       	popm	lr
80005008:	d6 03       	rete
8000500a:	33 ec       	mov	r12,62
8000500c:	fe b0 e8 d4 	rcall	800021b4 <gpio_clear_pin_interrupt_flag>
80005010:	30 6c       	mov	r12,6
80005012:	e0 a0 07 39 	rcall	80005e84 <process_sw>
80005016:	ce eb       	rjmp	80004ff2 <irq_port1_line3+0xa>

80005018 <irq_port0_line3>:
80005018:	d4 01       	pushm	lr
8000501a:	31 9c       	mov	r12,25
8000501c:	fe b0 e8 c0 	rcall	8000219c <gpio_get_pin_interrupt_flag>
80005020:	c2 e1       	brne	8000507c <irq_port0_line3+0x64>
80005022:	31 ac       	mov	r12,26
80005024:	fe b0 e8 bc 	rcall	8000219c <gpio_get_pin_interrupt_flag>
80005028:	c2 31       	brne	8000506e <irq_port0_line3+0x56>
8000502a:	31 bc       	mov	r12,27
8000502c:	fe b0 e8 b8 	rcall	8000219c <gpio_get_pin_interrupt_flag>
80005030:	c1 81       	brne	80005060 <irq_port0_line3+0x48>
80005032:	31 cc       	mov	r12,28
80005034:	fe b0 e8 b4 	rcall	8000219c <gpio_get_pin_interrupt_flag>
80005038:	c0 d1       	brne	80005052 <irq_port0_line3+0x3a>
8000503a:	31 8c       	mov	r12,24
8000503c:	fe b0 e8 b0 	rcall	8000219c <gpio_get_pin_interrupt_flag>
80005040:	c0 70       	breq	8000504e <irq_port0_line3+0x36>
80005042:	31 8c       	mov	r12,24
80005044:	fe b0 e8 b8 	rcall	800021b4 <gpio_clear_pin_interrupt_flag>
80005048:	30 4c       	mov	r12,4
8000504a:	e0 a0 07 1d 	rcall	80005e84 <process_sw>
8000504e:	d4 02       	popm	lr
80005050:	d6 03       	rete
80005052:	31 cc       	mov	r12,28
80005054:	fe b0 e8 b0 	rcall	800021b4 <gpio_clear_pin_interrupt_flag>
80005058:	30 3c       	mov	r12,3
8000505a:	e0 a0 07 15 	rcall	80005e84 <process_sw>
8000505e:	ce eb       	rjmp	8000503a <irq_port0_line3+0x22>
80005060:	31 bc       	mov	r12,27
80005062:	fe b0 e8 a9 	rcall	800021b4 <gpio_clear_pin_interrupt_flag>
80005066:	30 2c       	mov	r12,2
80005068:	e0 a0 07 0e 	rcall	80005e84 <process_sw>
8000506c:	ce 3b       	rjmp	80005032 <irq_port0_line3+0x1a>
8000506e:	31 ac       	mov	r12,26
80005070:	fe b0 e8 a2 	rcall	800021b4 <gpio_clear_pin_interrupt_flag>
80005074:	30 1c       	mov	r12,1
80005076:	e0 a0 07 07 	rcall	80005e84 <process_sw>
8000507a:	cd 8b       	rjmp	8000502a <irq_port0_line3+0x12>
8000507c:	31 9c       	mov	r12,25
8000507e:	fe b0 e8 9b 	rcall	800021b4 <gpio_clear_pin_interrupt_flag>
80005082:	30 0c       	mov	r12,0
80005084:	e0 a0 07 00 	rcall	80005e84 <process_sw>
80005088:	cc db       	rjmp	80005022 <irq_port0_line3+0xa>
8000508a:	d7 03       	nop

8000508c <irq_port1_line1>:
8000508c:	d4 01       	pushm	lr
8000508e:	32 8c       	mov	r12,40
80005090:	fe b0 e8 86 	rcall	8000219c <gpio_get_pin_interrupt_flag>
80005094:	c0 d1       	brne	800050ae <irq_port1_line1+0x22>
80005096:	32 9c       	mov	r12,41
80005098:	fe b0 e8 82 	rcall	8000219c <gpio_get_pin_interrupt_flag>
8000509c:	c0 70       	breq	800050aa <irq_port1_line1+0x1e>
8000509e:	30 3c       	mov	r12,3
800050a0:	fe b0 fc 00 	rcall	800048a0 <process_enc>
800050a4:	32 9c       	mov	r12,41
800050a6:	fe b0 e8 87 	rcall	800021b4 <gpio_clear_pin_interrupt_flag>
800050aa:	d4 02       	popm	lr
800050ac:	d6 03       	rete
800050ae:	30 3c       	mov	r12,3
800050b0:	fe b0 fb f8 	rcall	800048a0 <process_enc>
800050b4:	32 8c       	mov	r12,40
800050b6:	fe b0 e8 7f 	rcall	800021b4 <gpio_clear_pin_interrupt_flag>
800050ba:	ce eb       	rjmp	80005096 <irq_port1_line1+0xa>

800050bc <irq_port1_line0>:
800050bc:	d4 01       	pushm	lr
800050be:	32 2c       	mov	r12,34
800050c0:	fe b0 e8 6e 	rcall	8000219c <gpio_get_pin_interrupt_flag>
800050c4:	c3 91       	brne	80005136 <irq_port1_line0+0x7a>
800050c6:	32 3c       	mov	r12,35
800050c8:	fe b0 e8 6a 	rcall	8000219c <gpio_get_pin_interrupt_flag>
800050cc:	c2 e1       	brne	80005128 <irq_port1_line0+0x6c>
800050ce:	32 4c       	mov	r12,36
800050d0:	fe b0 e8 66 	rcall	8000219c <gpio_get_pin_interrupt_flag>
800050d4:	c2 31       	brne	8000511a <irq_port1_line0+0x5e>
800050d6:	32 5c       	mov	r12,37
800050d8:	fe b0 e8 62 	rcall	8000219c <gpio_get_pin_interrupt_flag>
800050dc:	c1 81       	brne	8000510c <irq_port1_line0+0x50>
800050de:	32 6c       	mov	r12,38
800050e0:	fe b0 e8 5e 	rcall	8000219c <gpio_get_pin_interrupt_flag>
800050e4:	c0 d1       	brne	800050fe <irq_port1_line0+0x42>
800050e6:	32 7c       	mov	r12,39
800050e8:	fe b0 e8 5a 	rcall	8000219c <gpio_get_pin_interrupt_flag>
800050ec:	c0 70       	breq	800050fa <irq_port1_line0+0x3e>
800050ee:	30 2c       	mov	r12,2
800050f0:	fe b0 fb d8 	rcall	800048a0 <process_enc>
800050f4:	32 7c       	mov	r12,39
800050f6:	fe b0 e8 5f 	rcall	800021b4 <gpio_clear_pin_interrupt_flag>
800050fa:	d4 02       	popm	lr
800050fc:	d6 03       	rete
800050fe:	30 2c       	mov	r12,2
80005100:	fe b0 fb d0 	rcall	800048a0 <process_enc>
80005104:	32 6c       	mov	r12,38
80005106:	fe b0 e8 57 	rcall	800021b4 <gpio_clear_pin_interrupt_flag>
8000510a:	ce eb       	rjmp	800050e6 <irq_port1_line0+0x2a>
8000510c:	30 1c       	mov	r12,1
8000510e:	fe b0 fb c9 	rcall	800048a0 <process_enc>
80005112:	32 5c       	mov	r12,37
80005114:	fe b0 e8 50 	rcall	800021b4 <gpio_clear_pin_interrupt_flag>
80005118:	ce 3b       	rjmp	800050de <irq_port1_line0+0x22>
8000511a:	30 1c       	mov	r12,1
8000511c:	fe b0 fb c2 	rcall	800048a0 <process_enc>
80005120:	32 4c       	mov	r12,36
80005122:	fe b0 e8 49 	rcall	800021b4 <gpio_clear_pin_interrupt_flag>
80005126:	cd 8b       	rjmp	800050d6 <irq_port1_line0+0x1a>
80005128:	30 0c       	mov	r12,0
8000512a:	fe b0 fb bb 	rcall	800048a0 <process_enc>
8000512e:	32 3c       	mov	r12,35
80005130:	fe b0 e8 42 	rcall	800021b4 <gpio_clear_pin_interrupt_flag>
80005134:	cc db       	rjmp	800050ce <irq_port1_line0+0x12>
80005136:	30 0c       	mov	r12,0
80005138:	fe b0 fb b4 	rcall	800048a0 <process_enc>
8000513c:	32 2c       	mov	r12,34
8000513e:	fe b0 e8 3b 	rcall	800021b4 <gpio_clear_pin_interrupt_flag>
80005142:	cc 2b       	rjmp	800050c6 <irq_port1_line0+0xa>

80005144 <init_mem>:
80005144:	d4 01       	pushm	lr
80005146:	30 1c       	mov	r12,1
80005148:	fe b0 e7 60 	rcall	80002008 <smc_get_cs_size>
8000514c:	fc 18 d0 00 	movh	r8,0xd000
80005150:	30 19       	mov	r9,1
80005152:	f2 0c 09 49 	lsl	r9,r9,r12
80005156:	e0 6b 02 90 	mov	r11,656
8000515a:	f2 08 00 0a 	add	r10,r9,r8
8000515e:	97 09       	st.w	r11[0x0],r9
80005160:	e0 69 02 88 	mov	r9,648
80005164:	93 08       	st.w	r9[0x0],r8
80005166:	e0 68 02 94 	mov	r8,660
8000516a:	30 09       	mov	r9,0
8000516c:	91 0a       	st.w	r8[0x0],r10
8000516e:	e0 68 02 8c 	mov	r8,652
80005172:	91 09       	st.w	r8[0x0],r9
80005174:	d8 02       	popm	pc
80005176:	d7 03       	nop

80005178 <write_command>:
80005178:	eb cd 40 80 	pushm	r7,lr
8000517c:	30 0b       	mov	r11,0
8000517e:	18 97       	mov	r7,r12
80005180:	fe 7c 28 00 	mov	r12,-55296
80005184:	fe b0 e9 c2 	rcall	80002508 <spi_selectChip>
80005188:	30 9c       	mov	r12,9
8000518a:	fe b0 e7 cd 	rcall	80002124 <gpio_clr_gpio_pin>
8000518e:	0e 9b       	mov	r11,r7
80005190:	fe 7c 28 00 	mov	r12,-55296
80005194:	fe b0 ea 4f 	rcall	80002632 <spi_write>
80005198:	30 0b       	mov	r11,0
8000519a:	fe 7c 28 00 	mov	r12,-55296
8000519e:	fe b0 e9 dd 	rcall	80002558 <spi_unselectChip>
800051a2:	e3 cd 80 80 	ldm	sp++,r7,pc
800051a6:	d7 03       	nop

800051a8 <screen_hl_line>:
800051a8:	d4 31       	pushm	r0-r7,lr
800051aa:	20 2d       	sub	sp,8
800051ac:	fe c8 9e 14 	sub	r8,pc,-25068
800051b0:	5c 7b       	castu.h	r11
800051b2:	e7 dc c0 08 	bfextu	r3,r12,0x0,0x8
800051b6:	f0 0b 07 04 	ld.ub	r4,r8[r11]
800051ba:	30 08       	mov	r8,0
800051bc:	f0 03 18 00 	cp.b	r3,r8
800051c0:	c4 25       	brlt	80005244 <screen_hl_line+0x9c>
800051c2:	f7 da c0 04 	bfextu	r11,r10,0x0,0x4
800051c6:	a5 6a       	lsl	r10,0x4
800051c8:	5c 5a       	castu.b	r10
800051ca:	18 92       	mov	r2,r12
800051cc:	50 0a       	stdsp	sp[0x0],r10
800051ce:	30 07       	mov	r7,0
800051d0:	e0 6c 02 a8 	mov	r12,680
800051d4:	50 1b       	stdsp	sp[0x4],r11
800051d6:	e8 ce ff f9 	sub	lr,r4,-7
800051da:	18 96       	mov	r6,r12
800051dc:	0e 9a       	mov	r10,r7
800051de:	e6 07 00 0b 	add	r11,r3,r7
800051e2:	5c 5b       	castu.b	r11
800051e4:	f3 db c0 01 	bfextu	r9,r11,0x0,0x1
800051e8:	a1 9b       	lsr	r11,0x1
800051ea:	16 95       	mov	r5,r11
800051ec:	58 09       	cp.w	r9,0
800051ee:	c2 d0       	breq	80005248 <screen_hl_line+0xa0>
800051f0:	c6 81       	brne	800052c0 <screen_hl_line+0x118>
800051f2:	08 91       	mov	r1,r4
800051f4:	08 99       	mov	r9,r4
800051f6:	c0 48       	rjmp	800051fe <screen_hl_line+0x56>
800051f8:	12 91       	mov	r1,r9
800051fa:	12 3e       	cp.w	lr,r9
800051fc:	c1 b5       	brlt	80005232 <screen_hl_line+0x8a>
800051fe:	2f f9       	sub	r9,-1
80005200:	e2 08 15 06 	lsl	r8,r1,0x6
80005204:	5c 59       	castu.b	r9
80005206:	16 08       	add	r8,r11
80005208:	f8 08 07 00 	ld.ub	r0,r12[r8]
8000520c:	e1 d0 c0 04 	bfextu	r0,r0,0x0,0x4
80005210:	f4 00 18 00 	cp.b	r0,r10
80005214:	cf 21       	brne	800051f8 <screen_hl_line+0x50>
80005216:	e2 08 15 06 	lsl	r8,r1,0x6
8000521a:	40 00       	lddsp	r0,sp[0x0]
8000521c:	0a 08       	add	r8,r5
8000521e:	ec 08 07 01 	ld.ub	r1,r6[r8]
80005222:	e3 d1 c0 04 	bfextu	r1,r1,0x0,0x4
80005226:	00 41       	or	r1,r0
80005228:	ec 08 0b 01 	st.b	r6[r8],r1
8000522c:	12 91       	mov	r1,r9
8000522e:	12 3e       	cp.w	lr,r9
80005230:	ce 74       	brge	800051fe <screen_hl_line+0x56>
80005232:	2f f7       	sub	r7,-1
80005234:	e4 07 00 09 	add	r9,r2,r7
80005238:	f4 09 18 00 	cp.b	r9,r10
8000523c:	cd 14       	brge	800051de <screen_hl_line+0x36>
8000523e:	e0 69 02 a4 	mov	r9,676
80005242:	93 08       	st.w	r9[0x0],r8
80005244:	2f ed       	sub	sp,-8
80005246:	d8 32       	popm	r0-r7,pc
80005248:	58 09       	cp.w	r9,0
8000524a:	c1 e1       	brne	80005286 <screen_hl_line+0xde>
8000524c:	08 91       	mov	r1,r4
8000524e:	08 99       	mov	r9,r4
80005250:	c0 48       	rjmp	80005258 <screen_hl_line+0xb0>
80005252:	12 91       	mov	r1,r9
80005254:	12 3e       	cp.w	lr,r9
80005256:	ce e5       	brlt	80005232 <screen_hl_line+0x8a>
80005258:	2f f9       	sub	r9,-1
8000525a:	e2 08 15 06 	lsl	r8,r1,0x6
8000525e:	5c 59       	castu.b	r9
80005260:	16 08       	add	r8,r11
80005262:	f8 08 07 00 	ld.ub	r0,r12[r8]
80005266:	a5 80       	lsr	r0,0x4
80005268:	f4 00 18 00 	cp.b	r0,r10
8000526c:	cf 31       	brne	80005252 <screen_hl_line+0xaa>
8000526e:	e2 08 15 06 	lsl	r8,r1,0x6
80005272:	40 00       	lddsp	r0,sp[0x0]
80005274:	0a 08       	add	r8,r5
80005276:	ec 08 07 01 	ld.ub	r1,r6[r8]
8000527a:	e3 d1 c0 04 	bfextu	r1,r1,0x0,0x4
8000527e:	00 41       	or	r1,r0
80005280:	ec 08 0b 01 	st.b	r6[r8],r1
80005284:	ce 7b       	rjmp	80005252 <screen_hl_line+0xaa>
80005286:	08 91       	mov	r1,r4
80005288:	08 99       	mov	r9,r4
8000528a:	c0 48       	rjmp	80005292 <screen_hl_line+0xea>
8000528c:	12 91       	mov	r1,r9
8000528e:	12 3e       	cp.w	lr,r9
80005290:	cd 15       	brlt	80005232 <screen_hl_line+0x8a>
80005292:	2f f9       	sub	r9,-1
80005294:	e2 08 15 06 	lsl	r8,r1,0x6
80005298:	5c 59       	castu.b	r9
8000529a:	16 08       	add	r8,r11
8000529c:	f8 08 07 00 	ld.ub	r0,r12[r8]
800052a0:	a5 80       	lsr	r0,0x4
800052a2:	f4 00 18 00 	cp.b	r0,r10
800052a6:	cf 31       	brne	8000528c <screen_hl_line+0xe4>
800052a8:	e2 08 15 06 	lsl	r8,r1,0x6
800052ac:	40 10       	lddsp	r0,sp[0x4]
800052ae:	0a 08       	add	r8,r5
800052b0:	ec 08 07 01 	ld.ub	r1,r6[r8]
800052b4:	e0 11 ff f0 	andl	r1,0xfff0
800052b8:	00 41       	or	r1,r0
800052ba:	ec 08 0b 01 	st.b	r6[r8],r1
800052be:	ce 7b       	rjmp	8000528c <screen_hl_line+0xe4>
800052c0:	08 91       	mov	r1,r4
800052c2:	08 99       	mov	r9,r4
800052c4:	c0 58       	rjmp	800052ce <screen_hl_line+0x126>
800052c6:	12 91       	mov	r1,r9
800052c8:	1c 39       	cp.w	r9,lr
800052ca:	fe 99 ff b4 	brgt	80005232 <screen_hl_line+0x8a>
800052ce:	2f f9       	sub	r9,-1
800052d0:	e2 08 15 06 	lsl	r8,r1,0x6
800052d4:	5c 59       	castu.b	r9
800052d6:	16 08       	add	r8,r11
800052d8:	f8 08 07 00 	ld.ub	r0,r12[r8]
800052dc:	e1 d0 c0 04 	bfextu	r0,r0,0x0,0x4
800052e0:	f4 00 18 00 	cp.b	r0,r10
800052e4:	cf 11       	brne	800052c6 <screen_hl_line+0x11e>
800052e6:	e2 08 15 06 	lsl	r8,r1,0x6
800052ea:	40 10       	lddsp	r0,sp[0x4]
800052ec:	0a 08       	add	r8,r5
800052ee:	ec 08 07 01 	ld.ub	r1,r6[r8]
800052f2:	e0 11 ff f0 	andl	r1,0xfff0
800052f6:	00 41       	or	r1,r0
800052f8:	ec 08 0b 01 	st.b	r6[r8],r1
800052fc:	ce 5b       	rjmp	800052c6 <screen_hl_line+0x11e>
800052fe:	d7 03       	nop

80005300 <screen_blank_line>:
80005300:	eb cd 40 f8 	pushm	r3-r7,lr
80005304:	fe c8 9f 6c 	sub	r8,pc,-24724
80005308:	5c 7b       	castu.h	r11
8000530a:	e9 dc c0 08 	bfextu	r4,r12,0x0,0x8
8000530e:	f0 0b 07 05 	ld.ub	r5,r8[r11]
80005312:	30 08       	mov	r8,0
80005314:	f0 04 18 00 	cp.b	r4,r8
80005318:	c2 85       	brlt	80005368 <screen_blank_line+0x68>
8000531a:	30 06       	mov	r6,0
8000531c:	ea c7 ff f9 	sub	r7,r5,-7
80005320:	e0 6a 02 a8 	mov	r10,680
80005324:	0c 93       	mov	r3,r6
80005326:	08 9e       	mov	lr,r4
80005328:	0c 0e       	add	lr,r6
8000532a:	5c 5e       	castu.b	lr
8000532c:	f1 de c0 01 	bfextu	r8,lr,0x0,0x1
80005330:	a1 9e       	lsr	lr,0x1
80005332:	58 08       	cp.w	r8,0
80005334:	c1 c1       	brne	8000536c <screen_blank_line+0x6c>
80005336:	0a 9b       	mov	r11,r5
80005338:	0a 99       	mov	r9,r5
8000533a:	f6 08 15 06 	lsl	r8,r11,0x6
8000533e:	1c 08       	add	r8,lr
80005340:	f4 08 07 0b 	ld.ub	r11,r10[r8]
80005344:	f7 db c0 04 	bfextu	r11,r11,0x0,0x4
80005348:	f4 08 0b 0b 	st.b	r10[r8],r11
8000534c:	2f f9       	sub	r9,-1
8000534e:	5c 59       	castu.b	r9
80005350:	12 9b       	mov	r11,r9
80005352:	12 37       	cp.w	r7,r9
80005354:	cf 34       	brge	8000533a <screen_blank_line+0x3a>
80005356:	2f f6       	sub	r6,-1
80005358:	f8 06 00 09 	add	r9,r12,r6
8000535c:	e6 09 18 00 	cp.b	r9,r3
80005360:	ce 34       	brge	80005326 <screen_blank_line+0x26>
80005362:	e0 69 02 a4 	mov	r9,676
80005366:	93 08       	st.w	r9[0x0],r8
80005368:	e3 cd 80 f8 	ldm	sp++,r3-r7,pc
8000536c:	0a 9b       	mov	r11,r5
8000536e:	0a 99       	mov	r9,r5
80005370:	f6 08 15 06 	lsl	r8,r11,0x6
80005374:	1c 08       	add	r8,lr
80005376:	f4 08 07 0b 	ld.ub	r11,r10[r8]
8000537a:	e0 1b ff f0 	andl	r11,0xfff0
8000537e:	f4 08 0b 0b 	st.b	r10[r8],r11
80005382:	2f f9       	sub	r9,-1
80005384:	5c 59       	castu.b	r9
80005386:	12 9b       	mov	r11,r9
80005388:	0e 39       	cp.w	r9,r7
8000538a:	fe 9a ff f3 	brle	80005370 <screen_blank_line+0x70>
8000538e:	2f f6       	sub	r6,-1
80005390:	f8 06 00 09 	add	r9,r12,r6
80005394:	e6 09 18 00 	cp.b	r9,r3
80005398:	cc 74       	brge	80005326 <screen_blank_line+0x26>
8000539a:	ce 4b       	rjmp	80005362 <screen_blank_line+0x62>

8000539c <screen_string_squeeze>:
8000539c:	d4 31       	pushm	r0-r7,lr
8000539e:	20 ad       	sub	sp,40
800053a0:	fe c8 a0 08 	sub	r8,pc,-24568
800053a4:	5c 7b       	castu.h	r11
800053a6:	50 2a       	stdsp	sp[0x8],r10
800053a8:	f0 0b 07 0b 	ld.ub	r11,r8[r11]
800053ac:	50 1c       	stdsp	sp[0x4],r12
800053ae:	e0 68 02 a0 	mov	r8,672
800053b2:	50 3b       	stdsp	sp[0xc],r11
800053b4:	b0 8b       	st.b	r8[0x0],r11
800053b6:	15 88       	ld.ub	r8,r10[0x0]
800053b8:	58 08       	cp.w	r8,0
800053ba:	e0 80 00 f1 	breq	8000559c <screen_string_squeeze+0x200>
800053be:	e3 d9 c0 04 	bfextu	r1,r9,0x0,0x4
800053c2:	a5 69       	lsl	r9,0x4
800053c4:	e7 d9 c0 08 	bfextu	r3,r9,0x0,0x8
800053c8:	16 99       	mov	r9,r11
800053ca:	2f f9       	sub	r9,-1
800053cc:	a7 69       	lsl	r9,0x6
800053ce:	50 89       	stdsp	sp[0x20],r9
800053d0:	16 99       	mov	r9,r11
800053d2:	5c 7b       	castu.h	r11
800053d4:	2f e9       	sub	r9,-2
800053d6:	50 4b       	stdsp	sp[0x10],r11
800053d8:	a7 69       	lsl	r9,0x6
800053da:	40 3b       	lddsp	r11,sp[0xc]
800053dc:	2f db       	sub	r11,-3
800053de:	50 99       	stdsp	sp[0x24],r9
800053e0:	fb 5b 00 16 	st.h	sp[22],r11
800053e4:	40 39       	lddsp	r9,sp[0xc]
800053e6:	40 3b       	lddsp	r11,sp[0xc]
800053e8:	2f c9       	sub	r9,-4
800053ea:	2f bb       	sub	r11,-5
800053ec:	fb 59 00 18 	st.h	sp[24],r9
800053f0:	fb 5b 00 1a 	st.h	sp[26],r11
800053f4:	40 39       	lddsp	r9,sp[0xc]
800053f6:	40 3b       	lddsp	r11,sp[0xc]
800053f8:	2f a9       	sub	r9,-6
800053fa:	2f 9b       	sub	r11,-7
800053fc:	e0 6a 02 a8 	mov	r10,680
80005400:	fb 59 00 1c 	st.h	sp[28],r9
80005404:	fb 5b 00 1e 	st.h	sp[30],r11
80005408:	22 08       	sub	r8,32
8000540a:	fe c9 9d fd 	sub	r9,pc,-25091
8000540e:	f2 08 00 36 	add	r6,r9,r8<<0x3
80005412:	0d 85       	ld.ub	r5,r6[0x0]
80005414:	0d 98       	ld.ub	r8,r6[0x1]
80005416:	ea 09 11 00 	rsub	r9,r5,0
8000541a:	f2 08 01 08 	sub	r8,r9,r8
8000541e:	40 32       	lddsp	r2,sp[0xc]
80005420:	f0 cc ff fa 	sub	r12,r8,-6
80005424:	30 04       	mov	r4,0
80005426:	40 18       	lddsp	r8,sp[0x4]
80005428:	5c 5c       	castu.b	r12
8000542a:	5c 88       	casts.h	r8
8000542c:	50 08       	stdsp	sp[0x0],r8
8000542e:	58 0c       	cp.w	r12,0
80005430:	c3 d0       	breq	800054aa <screen_string_squeeze+0x10e>
80005432:	ef d2 c0 10 	bfextu	r7,r2,0x0,0x10
80005436:	30 1b       	mov	r11,1
80005438:	a7 67       	lsl	r7,0x6
8000543a:	f6 04 09 4e 	lsl	lr,r11,r4
8000543e:	40 09       	lddsp	r9,sp[0x0]
80005440:	30 08       	mov	r8,0
80005442:	c1 88       	rjmp	80005472 <screen_string_squeeze+0xd6>
80005444:	f7 d9 c0 10 	bfextu	r11,r9,0x0,0x10
80005448:	e1 db c0 01 	bfextu	r0,r11,0x0,0x1
8000544c:	a1 9b       	lsr	r11,0x1
8000544e:	0e 0b       	add	r11,r7
80005450:	58 00       	cp.w	r0,0
80005452:	e0 81 00 ad 	brne	800055ac <screen_string_squeeze+0x210>
80005456:	f4 0b 07 00 	ld.ub	r0,r10[r11]
8000545a:	e1 d0 c0 04 	bfextu	r0,r0,0x0,0x4
8000545e:	06 40       	or	r0,r3
80005460:	f4 0b 0b 00 	st.b	r10[r11],r0
80005464:	2f f9       	sub	r9,-1
80005466:	2f f8       	sub	r8,-1
80005468:	5c 89       	casts.h	r9
8000546a:	f0 0c 18 00 	cp.b	r12,r8
8000546e:	e0 88 00 1e 	brls	800054aa <screen_string_squeeze+0x10e>
80005472:	ec 08 00 0b 	add	r11,r6,r8
80005476:	0a 0b       	add	r11,r5
80005478:	17 ab       	ld.ub	r11,r11[0x2]
8000547a:	1c 6b       	and	r11,lr
8000547c:	ce 41       	brne	80005444 <screen_string_squeeze+0xa8>
8000547e:	f7 d9 c0 10 	bfextu	r11,r9,0x0,0x10
80005482:	e1 db c0 01 	bfextu	r0,r11,0x0,0x1
80005486:	a1 9b       	lsr	r11,0x1
80005488:	0e 0b       	add	r11,r7
8000548a:	58 00       	cp.w	r0,0
8000548c:	e0 81 00 98 	brne	800055bc <screen_string_squeeze+0x220>
80005490:	f4 0b 07 00 	ld.ub	r0,r10[r11]
80005494:	e1 d0 c0 04 	bfextu	r0,r0,0x0,0x4
80005498:	f4 0b 0b 00 	st.b	r10[r11],r0
8000549c:	2f f9       	sub	r9,-1
8000549e:	2f f8       	sub	r8,-1
800054a0:	5c 89       	casts.h	r9
800054a2:	f0 0c 18 00 	cp.b	r12,r8
800054a6:	fe 9b ff e6 	brhi	80005472 <screen_string_squeeze+0xd6>
800054aa:	2f f2       	sub	r2,-1
800054ac:	2f f4       	sub	r4,-1
800054ae:	5c 82       	casts.h	r2
800054b0:	58 84       	cp.w	r4,8
800054b2:	cb e1       	brne	8000542e <screen_string_squeeze+0x92>
800054b4:	40 18       	lddsp	r8,sp[0x4]
800054b6:	18 08       	add	r8,r12
800054b8:	5c 88       	casts.h	r8
800054ba:	f3 d8 c0 10 	bfextu	r9,r8,0x0,0x10
800054be:	f7 d9 c0 01 	bfextu	r11,r9,0x0,0x1
800054c2:	a1 99       	lsr	r9,0x1
800054c4:	58 0b       	cp.w	r11,0
800054c6:	e0 81 00 82 	brne	800055ca <screen_string_squeeze+0x22e>
800054ca:	40 4b       	lddsp	r11,sp[0x10]
800054cc:	a7 6b       	lsl	r11,0x6
800054ce:	12 0b       	add	r11,r9
800054d0:	f4 0b 07 0e 	ld.ub	lr,r10[r11]
800054d4:	fd de c0 04 	bfextu	lr,lr,0x0,0x4
800054d8:	f4 0b 0b 0e 	st.b	r10[r11],lr
800054dc:	40 8b       	lddsp	r11,sp[0x20]
800054de:	12 0b       	add	r11,r9
800054e0:	f4 0b 07 0e 	ld.ub	lr,r10[r11]
800054e4:	fd de c0 04 	bfextu	lr,lr,0x0,0x4
800054e8:	f4 0b 0b 0e 	st.b	r10[r11],lr
800054ec:	40 9b       	lddsp	r11,sp[0x24]
800054ee:	12 0b       	add	r11,r9
800054f0:	f4 0b 07 0e 	ld.ub	lr,r10[r11]
800054f4:	fd de c0 04 	bfextu	lr,lr,0x0,0x4
800054f8:	f4 0b 0b 0e 	st.b	r10[r11],lr
800054fc:	fb 1b 00 16 	ld.uh	r11,sp[22]
80005500:	a7 6b       	lsl	r11,0x6
80005502:	12 0b       	add	r11,r9
80005504:	f4 0b 07 0e 	ld.ub	lr,r10[r11]
80005508:	fd de c0 04 	bfextu	lr,lr,0x0,0x4
8000550c:	f4 0b 0b 0e 	st.b	r10[r11],lr
80005510:	fb 1b 00 18 	ld.uh	r11,sp[24]
80005514:	a7 6b       	lsl	r11,0x6
80005516:	12 0b       	add	r11,r9
80005518:	f4 0b 07 0e 	ld.ub	lr,r10[r11]
8000551c:	fd de c0 04 	bfextu	lr,lr,0x0,0x4
80005520:	f4 0b 0b 0e 	st.b	r10[r11],lr
80005524:	fb 1b 00 1a 	ld.uh	r11,sp[26]
80005528:	a7 6b       	lsl	r11,0x6
8000552a:	12 0b       	add	r11,r9
8000552c:	f4 0b 07 0e 	ld.ub	lr,r10[r11]
80005530:	fd de c0 04 	bfextu	lr,lr,0x0,0x4
80005534:	f4 0b 0b 0e 	st.b	r10[r11],lr
80005538:	fb 1b 00 1c 	ld.uh	r11,sp[28]
8000553c:	a7 6b       	lsl	r11,0x6
8000553e:	12 0b       	add	r11,r9
80005540:	f4 0b 07 0e 	ld.ub	lr,r10[r11]
80005544:	fd de c0 04 	bfextu	lr,lr,0x0,0x4
80005548:	f4 0b 0b 0e 	st.b	r10[r11],lr
8000554c:	fb 1b 00 1e 	ld.uh	r11,sp[30]
80005550:	a7 6b       	lsl	r11,0x6
80005552:	f6 09 00 09 	add	r9,r11,r9
80005556:	f4 09 07 0b 	ld.ub	r11,r10[r9]
8000555a:	f7 db c0 04 	bfextu	r11,r11,0x0,0x4
8000555e:	f4 09 0b 0b 	st.b	r10[r9],r11
80005562:	40 2b       	lddsp	r11,sp[0x8]
80005564:	2f f8       	sub	r8,-1
80005566:	2f fb       	sub	r11,-1
80005568:	5c 88       	casts.h	r8
8000556a:	50 2b       	stdsp	sp[0x8],r11
8000556c:	50 18       	stdsp	sp[0x4],r8
8000556e:	17 88       	ld.ub	r8,r11[0x0]
80005570:	58 08       	cp.w	r8,0
80005572:	fe 91 ff 4b 	brne	80005408 <screen_string_squeeze+0x6c>
80005576:	e0 6a 02 9c 	mov	r10,668
8000557a:	95 06       	st.w	r10[0x0],r6
8000557c:	e0 6a 02 9b 	mov	r10,667
80005580:	b4 8c       	st.b	r10[0x0],r12
80005582:	e0 6a 02 99 	mov	r10,665
80005586:	30 88       	mov	r8,8
80005588:	b4 88       	st.b	r10[0x0],r8
8000558a:	e0 6a 02 98 	mov	r10,664
8000558e:	b4 8c       	st.b	r10[0x0],r12
80005590:	e0 6a 02 a4 	mov	r10,676
80005594:	95 09       	st.w	r10[0x0],r9
80005596:	e0 69 02 9a 	mov	r9,666
8000559a:	b2 88       	st.b	r9[0x0],r8
8000559c:	40 1c       	lddsp	r12,sp[0x4]
8000559e:	30 19       	mov	r9,1
800055a0:	e0 68 02 7d 	mov	r8,637
800055a4:	5c 5c       	castu.b	r12
800055a6:	b0 89       	st.b	r8[0x0],r9
800055a8:	2f 6d       	sub	sp,-40
800055aa:	d8 32       	popm	r0-r7,pc
800055ac:	f4 0b 07 00 	ld.ub	r0,r10[r11]
800055b0:	e0 10 ff f0 	andl	r0,0xfff0
800055b4:	02 40       	or	r0,r1
800055b6:	f4 0b 0b 00 	st.b	r10[r11],r0
800055ba:	c5 5b       	rjmp	80005464 <screen_string_squeeze+0xc8>
800055bc:	f4 0b 07 00 	ld.ub	r0,r10[r11]
800055c0:	e0 10 ff f0 	andl	r0,0xfff0
800055c4:	f4 0b 0b 00 	st.b	r10[r11],r0
800055c8:	c4 eb       	rjmp	80005464 <screen_string_squeeze+0xc8>
800055ca:	40 4e       	lddsp	lr,sp[0x10]
800055cc:	a7 6e       	lsl	lr,0x6
800055ce:	12 0e       	add	lr,r9
800055d0:	f4 0e 07 0b 	ld.ub	r11,r10[lr]
800055d4:	e0 1b ff f0 	andl	r11,0xfff0
800055d8:	f4 0e 0b 0b 	st.b	r10[lr],r11
800055dc:	40 8e       	lddsp	lr,sp[0x20]
800055de:	12 0e       	add	lr,r9
800055e0:	f4 0e 07 0b 	ld.ub	r11,r10[lr]
800055e4:	e0 1b ff f0 	andl	r11,0xfff0
800055e8:	f4 0e 0b 0b 	st.b	r10[lr],r11
800055ec:	40 9e       	lddsp	lr,sp[0x24]
800055ee:	12 0e       	add	lr,r9
800055f0:	f4 0e 07 0b 	ld.ub	r11,r10[lr]
800055f4:	e0 1b ff f0 	andl	r11,0xfff0
800055f8:	f4 0e 0b 0b 	st.b	r10[lr],r11
800055fc:	fb 1e 00 16 	ld.uh	lr,sp[22]
80005600:	a7 6e       	lsl	lr,0x6
80005602:	12 0e       	add	lr,r9
80005604:	f4 0e 07 0b 	ld.ub	r11,r10[lr]
80005608:	e0 1b ff f0 	andl	r11,0xfff0
8000560c:	f4 0e 0b 0b 	st.b	r10[lr],r11
80005610:	fb 1e 00 18 	ld.uh	lr,sp[24]
80005614:	a7 6e       	lsl	lr,0x6
80005616:	12 0e       	add	lr,r9
80005618:	f4 0e 07 0b 	ld.ub	r11,r10[lr]
8000561c:	e0 1b ff f0 	andl	r11,0xfff0
80005620:	f4 0e 0b 0b 	st.b	r10[lr],r11
80005624:	fb 1e 00 1a 	ld.uh	lr,sp[26]
80005628:	a7 6e       	lsl	lr,0x6
8000562a:	12 0e       	add	lr,r9
8000562c:	f4 0e 07 0b 	ld.ub	r11,r10[lr]
80005630:	e0 1b ff f0 	andl	r11,0xfff0
80005634:	f4 0e 0b 0b 	st.b	r10[lr],r11
80005638:	fb 1e 00 1c 	ld.uh	lr,sp[28]
8000563c:	a7 6e       	lsl	lr,0x6
8000563e:	12 0e       	add	lr,r9
80005640:	f4 0e 07 0b 	ld.ub	r11,r10[lr]
80005644:	e0 1b ff f0 	andl	r11,0xfff0
80005648:	f4 0e 0b 0b 	st.b	r10[lr],r11
8000564c:	fb 1b 00 1e 	ld.uh	r11,sp[30]
80005650:	a7 6b       	lsl	r11,0x6
80005652:	f6 09 00 09 	add	r9,r11,r9
80005656:	f4 09 07 0b 	ld.ub	r11,r10[r9]
8000565a:	e0 1b ff f0 	andl	r11,0xfff0
8000565e:	f4 09 0b 0b 	st.b	r10[r9],r11
80005662:	c8 0b       	rjmp	80005562 <screen_string_squeeze+0x1c6>

80005664 <screen_string>:
80005664:	d4 01       	pushm	lr
80005666:	5c 7b       	castu.h	r11
80005668:	5c 7c       	castu.h	r12
8000566a:	c9 9e       	rcall	8000539c <screen_string_squeeze>
8000566c:	d8 02       	popm	pc
8000566e:	d7 03       	nop

80005670 <screen_line>:
80005670:	eb cd 40 e0 	pushm	r5-r7,lr
80005674:	ef db c0 10 	bfextu	r7,r11,0x0,0x10
80005678:	5c 7c       	castu.h	r12
8000567a:	0e 9b       	mov	r11,r7
8000567c:	c9 0e       	rcall	8000539c <screen_string_squeeze>
8000567e:	fe c8 a2 e6 	sub	r8,pc,-23834
80005682:	30 05       	mov	r5,0
80005684:	f0 07 07 06 	ld.ub	r6,r8[r7]
80005688:	ea 0c 18 00 	cp.b	r12,r5
8000568c:	c2 45       	brlt	800056d4 <screen_line+0x64>
8000568e:	ec ce ff f9 	sub	lr,r6,-7
80005692:	e0 6a 02 a8 	mov	r10,680
80005696:	ef dc c0 10 	bfextu	r7,r12,0x0,0x10
8000569a:	f1 d7 c0 01 	bfextu	r8,r7,0x0,0x1
8000569e:	a1 97       	lsr	r7,0x1
800056a0:	58 08       	cp.w	r8,0
800056a2:	c2 11       	brne	800056e4 <screen_line+0x74>
800056a4:	0c 9b       	mov	r11,r6
800056a6:	0c 99       	mov	r9,r6
800056a8:	f6 08 15 06 	lsl	r8,r11,0x6
800056ac:	0e 08       	add	r8,r7
800056ae:	f4 08 07 0b 	ld.ub	r11,r10[r8]
800056b2:	f7 db c0 04 	bfextu	r11,r11,0x0,0x4
800056b6:	f4 08 0b 0b 	st.b	r10[r8],r11
800056ba:	2f f9       	sub	r9,-1
800056bc:	5c 59       	castu.b	r9
800056be:	12 9b       	mov	r11,r9
800056c0:	12 3e       	cp.w	lr,r9
800056c2:	cf 34       	brge	800056a8 <screen_line+0x38>
800056c4:	2f fc       	sub	r12,-1
800056c6:	5c 5c       	castu.b	r12
800056c8:	ea 0c 18 00 	cp.b	r12,r5
800056cc:	ce 54       	brge	80005696 <screen_line+0x26>
800056ce:	e0 69 02 a4 	mov	r9,676
800056d2:	93 08       	st.w	r9[0x0],r8
800056d4:	30 19       	mov	r9,1
800056d6:	e0 68 02 7d 	mov	r8,637
800056da:	e0 6c 00 80 	mov	r12,128
800056de:	b0 89       	st.b	r8[0x0],r9
800056e0:	e3 cd 80 e0 	ldm	sp++,r5-r7,pc
800056e4:	0c 9b       	mov	r11,r6
800056e6:	0c 99       	mov	r9,r6
800056e8:	f6 08 15 06 	lsl	r8,r11,0x6
800056ec:	0e 08       	add	r8,r7
800056ee:	f4 08 07 0b 	ld.ub	r11,r10[r8]
800056f2:	e0 1b ff f0 	andl	r11,0xfff0
800056f6:	f4 08 0b 0b 	st.b	r10[r8],r11
800056fa:	2f f9       	sub	r9,-1
800056fc:	5c 59       	castu.b	r9
800056fe:	12 9b       	mov	r11,r9
80005700:	1c 39       	cp.w	r9,lr
80005702:	fe 9a ff f3 	brle	800056e8 <screen_line+0x78>
80005706:	2f fc       	sub	r12,-1
80005708:	5c 5c       	castu.b	r12
8000570a:	ea 0c 18 00 	cp.b	r12,r5
8000570e:	cc 44       	brge	80005696 <screen_line+0x26>
80005710:	cd fb       	rjmp	800056ce <screen_line+0x5e>
80005712:	d7 03       	nop

80005714 <screen_refresh>:
80005714:	eb cd 40 c0 	pushm	r6-r7,lr
80005718:	d3 03       	ssrf	0x10
8000571a:	30 0b       	mov	r11,0
8000571c:	fe 7c 28 00 	mov	r12,-55296
80005720:	fe b0 e6 f4 	rcall	80002508 <spi_selectChip>
80005724:	30 9c       	mov	r12,9
80005726:	fe b0 e4 ff 	rcall	80002124 <gpio_clr_gpio_pin>
8000572a:	31 5b       	mov	r11,21
8000572c:	fe 7c 28 00 	mov	r12,-55296
80005730:	fe b0 e7 81 	rcall	80002632 <spi_write>
80005734:	30 0b       	mov	r11,0
80005736:	fe 7c 28 00 	mov	r12,-55296
8000573a:	fe b0 e7 0f 	rcall	80002558 <spi_unselectChip>
8000573e:	30 0b       	mov	r11,0
80005740:	fe 7c 28 00 	mov	r12,-55296
80005744:	fe b0 e6 e2 	rcall	80002508 <spi_selectChip>
80005748:	30 9c       	mov	r12,9
8000574a:	fe b0 e4 ed 	rcall	80002124 <gpio_clr_gpio_pin>
8000574e:	30 0b       	mov	r11,0
80005750:	fe 7c 28 00 	mov	r12,-55296
80005754:	fe b0 e7 6f 	rcall	80002632 <spi_write>
80005758:	30 0b       	mov	r11,0
8000575a:	fe 7c 28 00 	mov	r12,-55296
8000575e:	fe b0 e6 fd 	rcall	80002558 <spi_unselectChip>
80005762:	30 0b       	mov	r11,0
80005764:	fe 7c 28 00 	mov	r12,-55296
80005768:	fe b0 e6 d0 	rcall	80002508 <spi_selectChip>
8000576c:	30 9c       	mov	r12,9
8000576e:	fe b0 e4 db 	rcall	80002124 <gpio_clr_gpio_pin>
80005772:	33 fb       	mov	r11,63
80005774:	fe 7c 28 00 	mov	r12,-55296
80005778:	fe b0 e7 5d 	rcall	80002632 <spi_write>
8000577c:	30 0b       	mov	r11,0
8000577e:	fe 7c 28 00 	mov	r12,-55296
80005782:	fe b0 e6 eb 	rcall	80002558 <spi_unselectChip>
80005786:	30 0b       	mov	r11,0
80005788:	fe 7c 28 00 	mov	r12,-55296
8000578c:	fe b0 e6 be 	rcall	80002508 <spi_selectChip>
80005790:	30 9c       	mov	r12,9
80005792:	fe b0 e4 c9 	rcall	80002124 <gpio_clr_gpio_pin>
80005796:	37 5b       	mov	r11,117
80005798:	fe 7c 28 00 	mov	r12,-55296
8000579c:	fe b0 e7 4b 	rcall	80002632 <spi_write>
800057a0:	30 0b       	mov	r11,0
800057a2:	fe 7c 28 00 	mov	r12,-55296
800057a6:	fe b0 e6 d9 	rcall	80002558 <spi_unselectChip>
800057aa:	30 0b       	mov	r11,0
800057ac:	fe 7c 28 00 	mov	r12,-55296
800057b0:	fe b0 e6 ac 	rcall	80002508 <spi_selectChip>
800057b4:	30 9c       	mov	r12,9
800057b6:	fe b0 e4 b7 	rcall	80002124 <gpio_clr_gpio_pin>
800057ba:	30 0b       	mov	r11,0
800057bc:	fe 7c 28 00 	mov	r12,-55296
800057c0:	fe b0 e7 39 	rcall	80002632 <spi_write>
800057c4:	30 0b       	mov	r11,0
800057c6:	fe 7c 28 00 	mov	r12,-55296
800057ca:	fe b0 e6 c7 	rcall	80002558 <spi_unselectChip>
800057ce:	30 0b       	mov	r11,0
800057d0:	fe 7c 28 00 	mov	r12,-55296
800057d4:	fe b0 e6 9a 	rcall	80002508 <spi_selectChip>
800057d8:	30 9c       	mov	r12,9
800057da:	fe b0 e4 a5 	rcall	80002124 <gpio_clr_gpio_pin>
800057de:	33 fb       	mov	r11,63
800057e0:	fe 7c 28 00 	mov	r12,-55296
800057e4:	fe b0 e7 27 	rcall	80002632 <spi_write>
800057e8:	30 0b       	mov	r11,0
800057ea:	fe 7c 28 00 	mov	r12,-55296
800057ee:	fe b0 e6 b5 	rcall	80002558 <spi_unselectChip>
800057f2:	30 9c       	mov	r12,9
800057f4:	fe b0 e4 8b 	rcall	8000210a <gpio_set_gpio_pin>
800057f8:	e0 66 02 a8 	mov	r6,680
800057fc:	30 0b       	mov	r11,0
800057fe:	fe 7c 28 00 	mov	r12,-55296
80005802:	fe b0 e6 83 	rcall	80002508 <spi_selectChip>
80005806:	ec c7 f0 01 	sub	r7,r6,-4095
8000580a:	20 16       	sub	r6,1
8000580c:	0f 8b       	ld.ub	r11,r7[0x0]
8000580e:	fe 7c 28 00 	mov	r12,-55296
80005812:	20 17       	sub	r7,1
80005814:	fe b0 e7 0f 	rcall	80002632 <spi_write>
80005818:	0c 37       	cp.w	r7,r6
8000581a:	cf 91       	brne	8000580c <screen_refresh+0xf8>
8000581c:	30 0b       	mov	r11,0
8000581e:	fe 7c 28 00 	mov	r12,-55296
80005822:	fe b0 e6 9b 	rcall	80002558 <spi_unselectChip>
80005826:	d5 03       	csrf	0x10
80005828:	e3 cd 80 c0 	ldm	sp++,r6-r7,pc

8000582c <init_oled>:
8000582c:	eb cd 40 e0 	pushm	r5-r7,lr
80005830:	20 2d       	sub	sp,8
80005832:	d3 03       	ssrf	0x10
80005834:	e0 68 fb c5 	mov	r8,64453
80005838:	30 09       	mov	r9,0
8000583a:	fa e9 00 00 	st.d	sp[0],r8
8000583e:	fa e8 00 00 	ld.d	r8,sp[0]
80005842:	58 08       	cp.w	r8,0
80005844:	5c 29       	cpc	r9
80005846:	c0 f0       	breq	80005864 <init_oled+0x38>
80005848:	3f fa       	mov	r10,-1
8000584a:	3f fb       	mov	r11,-1
8000584c:	fa e8 00 00 	ld.d	r8,sp[0]
80005850:	14 08       	add	r8,r10
80005852:	f2 0b 00 49 	adc	r9,r9,r11
80005856:	fa e9 00 00 	st.d	sp[0],r8
8000585a:	fa e8 00 00 	ld.d	r8,sp[0]
8000585e:	58 08       	cp.w	r8,0
80005860:	5c 29       	cpc	r9
80005862:	cf 51       	brne	8000584c <init_oled+0x20>
80005864:	30 7c       	mov	r12,7
80005866:	fe b0 e4 52 	rcall	8000210a <gpio_set_gpio_pin>
8000586a:	e0 68 fb c5 	mov	r8,64453
8000586e:	30 09       	mov	r9,0
80005870:	fa e9 00 00 	st.d	sp[0],r8
80005874:	fa e8 00 00 	ld.d	r8,sp[0]
80005878:	58 08       	cp.w	r8,0
8000587a:	5c 29       	cpc	r9
8000587c:	c0 f0       	breq	8000589a <init_oled+0x6e>
8000587e:	3f fa       	mov	r10,-1
80005880:	3f fb       	mov	r11,-1
80005882:	fa e8 00 00 	ld.d	r8,sp[0]
80005886:	14 08       	add	r8,r10
80005888:	f2 0b 00 49 	adc	r9,r9,r11
8000588c:	fa e9 00 00 	st.d	sp[0],r8
80005890:	fa e8 00 00 	ld.d	r8,sp[0]
80005894:	58 08       	cp.w	r8,0
80005896:	5c 29       	cpc	r9
80005898:	cf 51       	brne	80005882 <init_oled+0x56>
8000589a:	30 7c       	mov	r12,7
8000589c:	fe b0 e4 44 	rcall	80002124 <gpio_clr_gpio_pin>
800058a0:	e0 68 fb c5 	mov	r8,64453
800058a4:	30 09       	mov	r9,0
800058a6:	fa e9 00 00 	st.d	sp[0],r8
800058aa:	fa e8 00 00 	ld.d	r8,sp[0]
800058ae:	58 08       	cp.w	r8,0
800058b0:	5c 29       	cpc	r9
800058b2:	c0 f0       	breq	800058d0 <init_oled+0xa4>
800058b4:	3f fa       	mov	r10,-1
800058b6:	3f fb       	mov	r11,-1
800058b8:	fa e8 00 00 	ld.d	r8,sp[0]
800058bc:	14 08       	add	r8,r10
800058be:	f2 0b 00 49 	adc	r9,r9,r11
800058c2:	fa e9 00 00 	st.d	sp[0],r8
800058c6:	fa e8 00 00 	ld.d	r8,sp[0]
800058ca:	58 08       	cp.w	r8,0
800058cc:	5c 29       	cpc	r9
800058ce:	cf 51       	brne	800058b8 <init_oled+0x8c>
800058d0:	30 7c       	mov	r12,7
800058d2:	fe b0 e4 1c 	rcall	8000210a <gpio_set_gpio_pin>
800058d6:	e2 78 ef 14 	mov	r8,257812
800058da:	30 09       	mov	r9,0
800058dc:	fa e9 00 00 	st.d	sp[0],r8
800058e0:	fa e8 00 00 	ld.d	r8,sp[0]
800058e4:	58 08       	cp.w	r8,0
800058e6:	5c 29       	cpc	r9
800058e8:	c0 f0       	breq	80005906 <init_oled+0xda>
800058ea:	3f fa       	mov	r10,-1
800058ec:	3f fb       	mov	r11,-1
800058ee:	fa e8 00 00 	ld.d	r8,sp[0]
800058f2:	14 08       	add	r8,r10
800058f4:	f2 0b 00 49 	adc	r9,r9,r11
800058f8:	fa e9 00 00 	st.d	sp[0],r8
800058fc:	fa e8 00 00 	ld.d	r8,sp[0]
80005900:	58 08       	cp.w	r8,0
80005902:	5c 29       	cpc	r9
80005904:	cf 51       	brne	800058ee <init_oled+0xc2>
80005906:	30 0b       	mov	r11,0
80005908:	fe 7c 28 00 	mov	r12,-55296
8000590c:	fe b0 e5 fe 	rcall	80002508 <spi_selectChip>
80005910:	30 9c       	mov	r12,9
80005912:	fe b0 e4 09 	rcall	80002124 <gpio_clr_gpio_pin>
80005916:	e0 6b 00 ae 	mov	r11,174
8000591a:	fe 7c 28 00 	mov	r12,-55296
8000591e:	fe b0 e6 8a 	rcall	80002632 <spi_write>
80005922:	30 0b       	mov	r11,0
80005924:	fe 7c 28 00 	mov	r12,-55296
80005928:	fe b0 e6 18 	rcall	80002558 <spi_unselectChip>
8000592c:	30 0b       	mov	r11,0
8000592e:	fe 7c 28 00 	mov	r12,-55296
80005932:	fe b0 e5 eb 	rcall	80002508 <spi_selectChip>
80005936:	30 9c       	mov	r12,9
80005938:	fe b0 e3 f6 	rcall	80002124 <gpio_clr_gpio_pin>
8000593c:	e0 6b 00 b3 	mov	r11,179
80005940:	fe 7c 28 00 	mov	r12,-55296
80005944:	fe b0 e6 77 	rcall	80002632 <spi_write>
80005948:	30 0b       	mov	r11,0
8000594a:	fe 7c 28 00 	mov	r12,-55296
8000594e:	fe b0 e6 05 	rcall	80002558 <spi_unselectChip>
80005952:	30 0b       	mov	r11,0
80005954:	fe 7c 28 00 	mov	r12,-55296
80005958:	fe b0 e5 d8 	rcall	80002508 <spi_selectChip>
8000595c:	30 9c       	mov	r12,9
8000595e:	fe b0 e3 e3 	rcall	80002124 <gpio_clr_gpio_pin>
80005962:	e0 6b 00 91 	mov	r11,145
80005966:	fe 7c 28 00 	mov	r12,-55296
8000596a:	fe b0 e6 64 	rcall	80002632 <spi_write>
8000596e:	30 0b       	mov	r11,0
80005970:	fe 7c 28 00 	mov	r12,-55296
80005974:	fe b0 e5 f2 	rcall	80002558 <spi_unselectChip>
80005978:	30 0b       	mov	r11,0
8000597a:	fe 7c 28 00 	mov	r12,-55296
8000597e:	fe b0 e5 c5 	rcall	80002508 <spi_selectChip>
80005982:	30 9c       	mov	r12,9
80005984:	fe b0 e3 d0 	rcall	80002124 <gpio_clr_gpio_pin>
80005988:	e0 6b 00 a8 	mov	r11,168
8000598c:	fe 7c 28 00 	mov	r12,-55296
80005990:	fe b0 e6 51 	rcall	80002632 <spi_write>
80005994:	30 0b       	mov	r11,0
80005996:	fe 7c 28 00 	mov	r12,-55296
8000599a:	fe b0 e5 df 	rcall	80002558 <spi_unselectChip>
8000599e:	30 0b       	mov	r11,0
800059a0:	fe 7c 28 00 	mov	r12,-55296
800059a4:	fe b0 e5 b2 	rcall	80002508 <spi_selectChip>
800059a8:	30 9c       	mov	r12,9
800059aa:	fe b0 e3 bd 	rcall	80002124 <gpio_clr_gpio_pin>
800059ae:	33 fb       	mov	r11,63
800059b0:	fe 7c 28 00 	mov	r12,-55296
800059b4:	fe b0 e6 3f 	rcall	80002632 <spi_write>
800059b8:	30 0b       	mov	r11,0
800059ba:	fe 7c 28 00 	mov	r12,-55296
800059be:	fe b0 e5 cd 	rcall	80002558 <spi_unselectChip>
800059c2:	30 0b       	mov	r11,0
800059c4:	fe 7c 28 00 	mov	r12,-55296
800059c8:	fe b0 e5 a0 	rcall	80002508 <spi_selectChip>
800059cc:	30 9c       	mov	r12,9
800059ce:	fe b0 e3 ab 	rcall	80002124 <gpio_clr_gpio_pin>
800059d2:	e0 6b 00 86 	mov	r11,134
800059d6:	fe 7c 28 00 	mov	r12,-55296
800059da:	fe b0 e6 2c 	rcall	80002632 <spi_write>
800059de:	30 0b       	mov	r11,0
800059e0:	fe 7c 28 00 	mov	r12,-55296
800059e4:	fe b0 e5 ba 	rcall	80002558 <spi_unselectChip>
800059e8:	30 0b       	mov	r11,0
800059ea:	fe 7c 28 00 	mov	r12,-55296
800059ee:	fe b0 e5 8d 	rcall	80002508 <spi_selectChip>
800059f2:	30 9c       	mov	r12,9
800059f4:	fe b0 e3 98 	rcall	80002124 <gpio_clr_gpio_pin>
800059f8:	e0 6b 00 81 	mov	r11,129
800059fc:	fe 7c 28 00 	mov	r12,-55296
80005a00:	fe b0 e6 19 	rcall	80002632 <spi_write>
80005a04:	30 0b       	mov	r11,0
80005a06:	fe 7c 28 00 	mov	r12,-55296
80005a0a:	fe b0 e5 a7 	rcall	80002558 <spi_unselectChip>
80005a0e:	37 fc       	mov	r12,127
80005a10:	fe b0 fb b4 	rcall	80005178 <write_command>
80005a14:	e0 6c 00 b2 	mov	r12,178
80005a18:	fe b0 fb b0 	rcall	80005178 <write_command>
80005a1c:	35 1c       	mov	r12,81
80005a1e:	fe b0 fb ad 	rcall	80005178 <write_command>
80005a22:	e0 6c 00 a8 	mov	r12,168
80005a26:	fe b0 fb a9 	rcall	80005178 <write_command>
80005a2a:	33 fc       	mov	r12,63
80005a2c:	fe b0 fb a6 	rcall	80005178 <write_command>
80005a30:	e0 6c 00 bc 	mov	r12,188
80005a34:	fe b0 fb a2 	rcall	80005178 <write_command>
80005a38:	31 0c       	mov	r12,16
80005a3a:	fe b0 fb 9f 	rcall	80005178 <write_command>
80005a3e:	e0 6c 00 be 	mov	r12,190
80005a42:	fe b0 fb 9b 	rcall	80005178 <write_command>
80005a46:	31 cc       	mov	r12,28
80005a48:	fe b0 fb 98 	rcall	80005178 <write_command>
80005a4c:	e0 6c 00 ad 	mov	r12,173
80005a50:	fe b0 fb 94 	rcall	80005178 <write_command>
80005a54:	30 2c       	mov	r12,2
80005a56:	fe b0 fb 91 	rcall	80005178 <write_command>
80005a5a:	e0 6c 00 a0 	mov	r12,160
80005a5e:	fe b0 fb 8d 	rcall	80005178 <write_command>
80005a62:	35 0c       	mov	r12,80
80005a64:	fe b0 fb 8a 	rcall	80005178 <write_command>
80005a68:	e0 6c 00 a1 	mov	r12,161
80005a6c:	fe b0 fb 86 	rcall	80005178 <write_command>
80005a70:	30 0c       	mov	r12,0
80005a72:	fe b0 fb 83 	rcall	80005178 <write_command>
80005a76:	e0 6c 00 a2 	mov	r12,162
80005a7a:	fe b0 fb 7f 	rcall	80005178 <write_command>
80005a7e:	30 0b       	mov	r11,0
80005a80:	fe 7c 28 00 	mov	r12,-55296
80005a84:	fe b0 e5 42 	rcall	80002508 <spi_selectChip>
80005a88:	30 9c       	mov	r12,9
80005a8a:	fe b0 e3 4d 	rcall	80002124 <gpio_clr_gpio_pin>
80005a8e:	34 cb       	mov	r11,76
80005a90:	fe 7c 28 00 	mov	r12,-55296
80005a94:	fe b0 e5 cf 	rcall	80002632 <spi_write>
80005a98:	30 0b       	mov	r11,0
80005a9a:	fe 7c 28 00 	mov	r12,-55296
80005a9e:	fe b0 e5 5d 	rcall	80002558 <spi_unselectChip>
80005aa2:	30 0b       	mov	r11,0
80005aa4:	fe 7c 28 00 	mov	r12,-55296
80005aa8:	fe b0 e5 30 	rcall	80002508 <spi_selectChip>
80005aac:	30 9c       	mov	r12,9
80005aae:	fe b0 e3 3b 	rcall	80002124 <gpio_clr_gpio_pin>
80005ab2:	e0 6b 00 b1 	mov	r11,177
80005ab6:	fe 7c 28 00 	mov	r12,-55296
80005aba:	fe b0 e5 bc 	rcall	80002632 <spi_write>
80005abe:	30 0b       	mov	r11,0
80005ac0:	fe 7c 28 00 	mov	r12,-55296
80005ac4:	fe b0 e5 4a 	rcall	80002558 <spi_unselectChip>
80005ac8:	30 0b       	mov	r11,0
80005aca:	fe 7c 28 00 	mov	r12,-55296
80005ace:	fe b0 e5 1d 	rcall	80002508 <spi_selectChip>
80005ad2:	30 9c       	mov	r12,9
80005ad4:	fe b0 e3 28 	rcall	80002124 <gpio_clr_gpio_pin>
80005ad8:	35 5b       	mov	r11,85
80005ada:	fe 7c 28 00 	mov	r12,-55296
80005ade:	fe b0 e5 aa 	rcall	80002632 <spi_write>
80005ae2:	30 0b       	mov	r11,0
80005ae4:	fe 7c 28 00 	mov	r12,-55296
80005ae8:	fe b0 e5 38 	rcall	80002558 <spi_unselectChip>
80005aec:	30 0b       	mov	r11,0
80005aee:	fe 7c 28 00 	mov	r12,-55296
80005af2:	fe b0 e5 0b 	rcall	80002508 <spi_selectChip>
80005af6:	30 9c       	mov	r12,9
80005af8:	fe b0 e3 16 	rcall	80002124 <gpio_clr_gpio_pin>
80005afc:	e0 6b 00 b4 	mov	r11,180
80005b00:	fe 7c 28 00 	mov	r12,-55296
80005b04:	fe b0 e5 97 	rcall	80002632 <spi_write>
80005b08:	30 0b       	mov	r11,0
80005b0a:	fe 7c 28 00 	mov	r12,-55296
80005b0e:	fe b0 e5 25 	rcall	80002558 <spi_unselectChip>
80005b12:	30 0b       	mov	r11,0
80005b14:	fe 7c 28 00 	mov	r12,-55296
80005b18:	fe b0 e4 f8 	rcall	80002508 <spi_selectChip>
80005b1c:	30 9c       	mov	r12,9
80005b1e:	fe b0 e3 03 	rcall	80002124 <gpio_clr_gpio_pin>
80005b22:	30 2b       	mov	r11,2
80005b24:	fe 7c 28 00 	mov	r12,-55296
80005b28:	fe b0 e5 85 	rcall	80002632 <spi_write>
80005b2c:	30 0b       	mov	r11,0
80005b2e:	fe 7c 28 00 	mov	r12,-55296
80005b32:	fe b0 e5 13 	rcall	80002558 <spi_unselectChip>
80005b36:	30 0b       	mov	r11,0
80005b38:	fe 7c 28 00 	mov	r12,-55296
80005b3c:	fe b0 e4 e6 	rcall	80002508 <spi_selectChip>
80005b40:	30 9c       	mov	r12,9
80005b42:	fe b0 e2 f1 	rcall	80002124 <gpio_clr_gpio_pin>
80005b46:	e0 6b 00 b0 	mov	r11,176
80005b4a:	fe 7c 28 00 	mov	r12,-55296
80005b4e:	fe b0 e5 72 	rcall	80002632 <spi_write>
80005b52:	30 0b       	mov	r11,0
80005b54:	fe 7c 28 00 	mov	r12,-55296
80005b58:	fe b0 e5 00 	rcall	80002558 <spi_unselectChip>
80005b5c:	30 0b       	mov	r11,0
80005b5e:	fe 7c 28 00 	mov	r12,-55296
80005b62:	fe b0 e4 d3 	rcall	80002508 <spi_selectChip>
80005b66:	30 9c       	mov	r12,9
80005b68:	fe b0 e2 de 	rcall	80002124 <gpio_clr_gpio_pin>
80005b6c:	32 8b       	mov	r11,40
80005b6e:	fe 7c 28 00 	mov	r12,-55296
80005b72:	fe b0 e5 60 	rcall	80002632 <spi_write>
80005b76:	30 0b       	mov	r11,0
80005b78:	fe 7c 28 00 	mov	r12,-55296
80005b7c:	fe b0 e4 ee 	rcall	80002558 <spi_unselectChip>
80005b80:	30 0b       	mov	r11,0
80005b82:	fe 7c 28 00 	mov	r12,-55296
80005b86:	fe b0 e4 c1 	rcall	80002508 <spi_selectChip>
80005b8a:	30 9c       	mov	r12,9
80005b8c:	fe b0 e2 cc 	rcall	80002124 <gpio_clr_gpio_pin>
80005b90:	e0 6b 00 bf 	mov	r11,191
80005b94:	fe 7c 28 00 	mov	r12,-55296
80005b98:	fe b0 e5 4d 	rcall	80002632 <spi_write>
80005b9c:	30 0b       	mov	r11,0
80005b9e:	fe 7c 28 00 	mov	r12,-55296
80005ba2:	fe b0 e4 db 	rcall	80002558 <spi_unselectChip>
80005ba6:	30 0b       	mov	r11,0
80005ba8:	fe 7c 28 00 	mov	r12,-55296
80005bac:	fe b0 e4 ae 	rcall	80002508 <spi_selectChip>
80005bb0:	30 9c       	mov	r12,9
80005bb2:	fe b0 e2 b9 	rcall	80002124 <gpio_clr_gpio_pin>
80005bb6:	30 fb       	mov	r11,15
80005bb8:	fe 7c 28 00 	mov	r12,-55296
80005bbc:	fe b0 e5 3b 	rcall	80002632 <spi_write>
80005bc0:	30 0b       	mov	r11,0
80005bc2:	fe 7c 28 00 	mov	r12,-55296
80005bc6:	fe b0 e4 c9 	rcall	80002558 <spi_unselectChip>
80005bca:	30 0b       	mov	r11,0
80005bcc:	fe 7c 28 00 	mov	r12,-55296
80005bd0:	fe b0 e4 9c 	rcall	80002508 <spi_selectChip>
80005bd4:	30 9c       	mov	r12,9
80005bd6:	fe b0 e2 a7 	rcall	80002124 <gpio_clr_gpio_pin>
80005bda:	e0 6b 00 a4 	mov	r11,164
80005bde:	fe 7c 28 00 	mov	r12,-55296
80005be2:	fe b0 e5 28 	rcall	80002632 <spi_write>
80005be6:	30 0b       	mov	r11,0
80005be8:	fe 7c 28 00 	mov	r12,-55296
80005bec:	fe b0 e4 b6 	rcall	80002558 <spi_unselectChip>
80005bf0:	30 0b       	mov	r11,0
80005bf2:	fe 7c 28 00 	mov	r12,-55296
80005bf6:	fe b0 e4 89 	rcall	80002508 <spi_selectChip>
80005bfa:	30 9c       	mov	r12,9
80005bfc:	fe b0 e2 94 	rcall	80002124 <gpio_clr_gpio_pin>
80005c00:	e0 6b 00 b8 	mov	r11,184
80005c04:	fe 7c 28 00 	mov	r12,-55296
80005c08:	fe b0 e5 15 	rcall	80002632 <spi_write>
80005c0c:	30 0b       	mov	r11,0
80005c0e:	fe 7c 28 00 	mov	r12,-55296
80005c12:	fe b0 e4 a3 	rcall	80002558 <spi_unselectChip>
80005c16:	30 0b       	mov	r11,0
80005c18:	fe 7c 28 00 	mov	r12,-55296
80005c1c:	fe b0 e4 76 	rcall	80002508 <spi_selectChip>
80005c20:	30 9c       	mov	r12,9
80005c22:	fe b0 e2 81 	rcall	80002124 <gpio_clr_gpio_pin>
80005c26:	30 1b       	mov	r11,1
80005c28:	fe 7c 28 00 	mov	r12,-55296
80005c2c:	fe b0 e5 03 	rcall	80002632 <spi_write>
80005c30:	30 0b       	mov	r11,0
80005c32:	fe 7c 28 00 	mov	r12,-55296
80005c36:	fe b0 e4 91 	rcall	80002558 <spi_unselectChip>
80005c3a:	30 0b       	mov	r11,0
80005c3c:	fe 7c 28 00 	mov	r12,-55296
80005c40:	fe b0 e4 64 	rcall	80002508 <spi_selectChip>
80005c44:	30 9c       	mov	r12,9
80005c46:	fe b0 e2 6f 	rcall	80002124 <gpio_clr_gpio_pin>
80005c4a:	31 1b       	mov	r11,17
80005c4c:	fe 7c 28 00 	mov	r12,-55296
80005c50:	fe b0 e4 f1 	rcall	80002632 <spi_write>
80005c54:	30 0b       	mov	r11,0
80005c56:	fe 7c 28 00 	mov	r12,-55296
80005c5a:	fe b0 e4 7f 	rcall	80002558 <spi_unselectChip>
80005c5e:	30 0b       	mov	r11,0
80005c60:	fe 7c 28 00 	mov	r12,-55296
80005c64:	fe b0 e4 52 	rcall	80002508 <spi_selectChip>
80005c68:	30 9c       	mov	r12,9
80005c6a:	fe b0 e2 5d 	rcall	80002124 <gpio_clr_gpio_pin>
80005c6e:	32 2b       	mov	r11,34
80005c70:	fe 7c 28 00 	mov	r12,-55296
80005c74:	fe b0 e4 df 	rcall	80002632 <spi_write>
80005c78:	30 0b       	mov	r11,0
80005c7a:	fe 7c 28 00 	mov	r12,-55296
80005c7e:	fe b0 e4 6d 	rcall	80002558 <spi_unselectChip>
80005c82:	30 0b       	mov	r11,0
80005c84:	fe 7c 28 00 	mov	r12,-55296
80005c88:	fe b0 e4 40 	rcall	80002508 <spi_selectChip>
80005c8c:	30 9c       	mov	r12,9
80005c8e:	fe b0 e2 4b 	rcall	80002124 <gpio_clr_gpio_pin>
80005c92:	33 2b       	mov	r11,50
80005c94:	fe 7c 28 00 	mov	r12,-55296
80005c98:	fe b0 e4 cd 	rcall	80002632 <spi_write>
80005c9c:	30 0b       	mov	r11,0
80005c9e:	fe 7c 28 00 	mov	r12,-55296
80005ca2:	fe b0 e4 5b 	rcall	80002558 <spi_unselectChip>
80005ca6:	34 3c       	mov	r12,67
80005ca8:	fe b0 fa 68 	rcall	80005178 <write_command>
80005cac:	30 0b       	mov	r11,0
80005cae:	fe 7c 28 00 	mov	r12,-55296
80005cb2:	fe b0 e4 2b 	rcall	80002508 <spi_selectChip>
80005cb6:	30 9c       	mov	r12,9
80005cb8:	fe b0 e2 36 	rcall	80002124 <gpio_clr_gpio_pin>
80005cbc:	35 4b       	mov	r11,84
80005cbe:	fe 7c 28 00 	mov	r12,-55296
80005cc2:	fe b0 e4 b8 	rcall	80002632 <spi_write>
80005cc6:	30 0b       	mov	r11,0
80005cc8:	fe 7c 28 00 	mov	r12,-55296
80005ccc:	fe b0 e4 46 	rcall	80002558 <spi_unselectChip>
80005cd0:	30 0b       	mov	r11,0
80005cd2:	fe 7c 28 00 	mov	r12,-55296
80005cd6:	fe b0 e4 19 	rcall	80002508 <spi_selectChip>
80005cda:	30 9c       	mov	r12,9
80005cdc:	fe b0 e2 24 	rcall	80002124 <gpio_clr_gpio_pin>
80005ce0:	36 5b       	mov	r11,101
80005ce2:	fe 7c 28 00 	mov	r12,-55296
80005ce6:	fe b0 e4 a6 	rcall	80002632 <spi_write>
80005cea:	30 0b       	mov	r11,0
80005cec:	fe 7c 28 00 	mov	r12,-55296
80005cf0:	fe b0 e4 34 	rcall	80002558 <spi_unselectChip>
80005cf4:	30 0b       	mov	r11,0
80005cf6:	fe 7c 28 00 	mov	r12,-55296
80005cfa:	fe b0 e4 07 	rcall	80002508 <spi_selectChip>
80005cfe:	30 9c       	mov	r12,9
80005d00:	fe b0 e2 12 	rcall	80002124 <gpio_clr_gpio_pin>
80005d04:	37 6b       	mov	r11,118
80005d06:	fe 7c 28 00 	mov	r12,-55296
80005d0a:	fe b0 e4 94 	rcall	80002632 <spi_write>
80005d0e:	30 0b       	mov	r11,0
80005d10:	fe 7c 28 00 	mov	r12,-55296
80005d14:	fe b0 e4 22 	rcall	80002558 <spi_unselectChip>
80005d18:	30 0b       	mov	r11,0
80005d1a:	fe 7c 28 00 	mov	r12,-55296
80005d1e:	fe b0 e3 f5 	rcall	80002508 <spi_selectChip>
80005d22:	30 9c       	mov	r12,9
80005d24:	fe b0 e2 00 	rcall	80002124 <gpio_clr_gpio_pin>
80005d28:	31 5b       	mov	r11,21
80005d2a:	fe 7c 28 00 	mov	r12,-55296
80005d2e:	fe b0 e4 82 	rcall	80002632 <spi_write>
80005d32:	30 0b       	mov	r11,0
80005d34:	fe 7c 28 00 	mov	r12,-55296
80005d38:	fe b0 e4 10 	rcall	80002558 <spi_unselectChip>
80005d3c:	30 0b       	mov	r11,0
80005d3e:	fe 7c 28 00 	mov	r12,-55296
80005d42:	fe b0 e3 e3 	rcall	80002508 <spi_selectChip>
80005d46:	30 9c       	mov	r12,9
80005d48:	fe b0 e1 ee 	rcall	80002124 <gpio_clr_gpio_pin>
80005d4c:	30 0b       	mov	r11,0
80005d4e:	fe 7c 28 00 	mov	r12,-55296
80005d52:	fe b0 e4 70 	rcall	80002632 <spi_write>
80005d56:	30 0b       	mov	r11,0
80005d58:	fe 7c 28 00 	mov	r12,-55296
80005d5c:	fe b0 e3 fe 	rcall	80002558 <spi_unselectChip>
80005d60:	30 0b       	mov	r11,0
80005d62:	fe 7c 28 00 	mov	r12,-55296
80005d66:	fe b0 e3 d1 	rcall	80002508 <spi_selectChip>
80005d6a:	30 9c       	mov	r12,9
80005d6c:	fe b0 e1 dc 	rcall	80002124 <gpio_clr_gpio_pin>
80005d70:	33 fb       	mov	r11,63
80005d72:	fe 7c 28 00 	mov	r12,-55296
80005d76:	fe b0 e4 5e 	rcall	80002632 <spi_write>
80005d7a:	30 0b       	mov	r11,0
80005d7c:	fe 7c 28 00 	mov	r12,-55296
80005d80:	fe b0 e3 ec 	rcall	80002558 <spi_unselectChip>
80005d84:	30 0b       	mov	r11,0
80005d86:	fe 7c 28 00 	mov	r12,-55296
80005d8a:	fe b0 e3 bf 	rcall	80002508 <spi_selectChip>
80005d8e:	30 9c       	mov	r12,9
80005d90:	fe b0 e1 ca 	rcall	80002124 <gpio_clr_gpio_pin>
80005d94:	37 5b       	mov	r11,117
80005d96:	fe 7c 28 00 	mov	r12,-55296
80005d9a:	fe b0 e4 4c 	rcall	80002632 <spi_write>
80005d9e:	30 0b       	mov	r11,0
80005da0:	fe 7c 28 00 	mov	r12,-55296
80005da4:	fe b0 e3 da 	rcall	80002558 <spi_unselectChip>
80005da8:	30 0b       	mov	r11,0
80005daa:	fe 7c 28 00 	mov	r12,-55296
80005dae:	fe b0 e3 ad 	rcall	80002508 <spi_selectChip>
80005db2:	30 9c       	mov	r12,9
80005db4:	fe b0 e1 b8 	rcall	80002124 <gpio_clr_gpio_pin>
80005db8:	30 0b       	mov	r11,0
80005dba:	fe 7c 28 00 	mov	r12,-55296
80005dbe:	fe b0 e4 3a 	rcall	80002632 <spi_write>
80005dc2:	30 0b       	mov	r11,0
80005dc4:	fe 7c 28 00 	mov	r12,-55296
80005dc8:	fe b0 e3 c8 	rcall	80002558 <spi_unselectChip>
80005dcc:	30 0b       	mov	r11,0
80005dce:	fe 7c 28 00 	mov	r12,-55296
80005dd2:	fe b0 e3 9b 	rcall	80002508 <spi_selectChip>
80005dd6:	30 9c       	mov	r12,9
80005dd8:	fe b0 e1 a6 	rcall	80002124 <gpio_clr_gpio_pin>
80005ddc:	33 fb       	mov	r11,63
80005dde:	fe 7c 28 00 	mov	r12,-55296
80005de2:	fe b0 e4 28 	rcall	80002632 <spi_write>
80005de6:	30 0b       	mov	r11,0
80005de8:	fe 7c 28 00 	mov	r12,-55296
80005dec:	30 05       	mov	r5,0
80005dee:	fe b0 e3 b5 	rcall	80002558 <spi_unselectChip>
80005df2:	e0 67 02 a8 	mov	r7,680
80005df6:	ee c6 f0 00 	sub	r6,r7,-4096
80005dfa:	0e c5       	st.b	r7++,r5
80005dfc:	30 0b       	mov	r11,0
80005dfe:	fe 7c 28 00 	mov	r12,-55296
80005e02:	fe b0 e3 83 	rcall	80002508 <spi_selectChip>
80005e06:	30 9c       	mov	r12,9
80005e08:	fe b0 e1 81 	rcall	8000210a <gpio_set_gpio_pin>
80005e0c:	30 0b       	mov	r11,0
80005e0e:	fe 7c 28 00 	mov	r12,-55296
80005e12:	fe b0 e4 10 	rcall	80002632 <spi_write>
80005e16:	30 0b       	mov	r11,0
80005e18:	fe 7c 28 00 	mov	r12,-55296
80005e1c:	fe b0 e3 9e 	rcall	80002558 <spi_unselectChip>
80005e20:	0c 37       	cp.w	r7,r6
80005e22:	ce c1       	brne	80005dfa <init_oled+0x5ce>
80005e24:	30 0b       	mov	r11,0
80005e26:	fe 7c 28 00 	mov	r12,-55296
80005e2a:	fe b0 e3 6f 	rcall	80002508 <spi_selectChip>
80005e2e:	30 9c       	mov	r12,9
80005e30:	fe b0 e1 7a 	rcall	80002124 <gpio_clr_gpio_pin>
80005e34:	e0 6b 00 af 	mov	r11,175
80005e38:	fe 7c 28 00 	mov	r12,-55296
80005e3c:	fe b0 e3 fb 	rcall	80002632 <spi_write>
80005e40:	30 0b       	mov	r11,0
80005e42:	fe 7c 28 00 	mov	r12,-55296
80005e46:	fe b0 e3 89 	rcall	80002558 <spi_unselectChip>
80005e4a:	e2 78 ef 14 	mov	r8,257812
80005e4e:	30 09       	mov	r9,0
80005e50:	fa e9 00 00 	st.d	sp[0],r8
80005e54:	fa e8 00 00 	ld.d	r8,sp[0]
80005e58:	58 08       	cp.w	r8,0
80005e5a:	5c 29       	cpc	r9
80005e5c:	c0 f0       	breq	80005e7a <init_oled+0x64e>
80005e5e:	3f fa       	mov	r10,-1
80005e60:	3f fb       	mov	r11,-1
80005e62:	fa e8 00 00 	ld.d	r8,sp[0]
80005e66:	14 08       	add	r8,r10
80005e68:	f2 0b 00 49 	adc	r9,r9,r11
80005e6c:	fa e9 00 00 	st.d	sp[0],r8
80005e70:	fa e8 00 00 	ld.d	r8,sp[0]
80005e74:	58 08       	cp.w	r8,0
80005e76:	5c 29       	cpc	r9
80005e78:	cf 51       	brne	80005e62 <init_oled+0x636>
80005e7a:	d5 03       	csrf	0x10
80005e7c:	2f ed       	sub	sp,-8
80005e7e:	e3 cd 80 e0 	ldm	sp++,r5-r7,pc
80005e82:	d7 03       	nop

80005e84 <process_sw>:
80005e84:	eb cd 40 c0 	pushm	r6-r7,lr
80005e88:	fe c8 aa 8c 	sub	r8,pc,-21876
80005e8c:	18 97       	mov	r7,r12
80005e8e:	f0 0c 07 0c 	ld.ub	r12,r8[r12]
80005e92:	fe b0 e1 31 	rcall	800020f4 <gpio_get_pin_value>
80005e96:	fe c8 aa f6 	sub	r8,pc,-21770
80005e9a:	f8 07 00 1c 	add	r12,r12,r7<<0x1
80005e9e:	f0 0c 03 28 	ld.w	r8,r8[r12<<0x2]
80005ea2:	e0 66 12 a8 	mov	r6,4776
80005ea6:	fe cc aa c6 	sub	r12,pc,-21818
80005eaa:	8d 08       	st.w	r6[0x0],r8
80005eac:	fe b0 e5 d6 	rcall	80002a58 <print_dbg>
80005eb0:	0e 9c       	mov	r12,r7
80005eb2:	fe b0 e5 b1 	rcall	80002a14 <print_dbg_ulong>
80005eb6:	0c 9c       	mov	r12,r6
80005eb8:	fe b0 f4 9e 	rcall	800047f4 <post_event>
80005ebc:	e3 cd 80 c0 	ldm	sp++,r6-r7,pc

80005ec0 <process_timers>:
80005ec0:	eb cd 40 c0 	pushm	r6-r7,lr
80005ec4:	e0 67 12 b0 	mov	r7,4784
80005ec8:	6e 06       	ld.w	r6,r7[0x0]
80005eca:	58 06       	cp.w	r6,0
80005ecc:	c0 80       	breq	80005edc <process_timers+0x1c>
80005ece:	6c 28       	ld.w	r8,r6[0x8]
80005ed0:	58 08       	cp.w	r8,0
80005ed2:	e0 8a 00 05 	brle	80005edc <process_timers+0x1c>
80005ed6:	20 18       	sub	r8,1
80005ed8:	8d 28       	st.w	r6[0x8],r8
80005eda:	c5 50       	breq	80005f84 <process_timers+0xc4>
80005edc:	6e 16       	ld.w	r6,r7[0x4]
80005ede:	58 06       	cp.w	r6,0
80005ee0:	c0 80       	breq	80005ef0 <process_timers+0x30>
80005ee2:	6c 28       	ld.w	r8,r6[0x8]
80005ee4:	58 08       	cp.w	r8,0
80005ee6:	e0 8a 00 05 	brle	80005ef0 <process_timers+0x30>
80005eea:	20 18       	sub	r8,1
80005eec:	8d 28       	st.w	r6[0x8],r8
80005eee:	c5 90       	breq	80005fa0 <process_timers+0xe0>
80005ef0:	6e 26       	ld.w	r6,r7[0x8]
80005ef2:	58 06       	cp.w	r6,0
80005ef4:	c0 80       	breq	80005f04 <process_timers+0x44>
80005ef6:	6c 28       	ld.w	r8,r6[0x8]
80005ef8:	58 08       	cp.w	r8,0
80005efa:	e0 8a 00 05 	brle	80005f04 <process_timers+0x44>
80005efe:	20 18       	sub	r8,1
80005f00:	8d 28       	st.w	r6[0x8],r8
80005f02:	c5 d0       	breq	80005fbc <process_timers+0xfc>
80005f04:	6e 36       	ld.w	r6,r7[0xc]
80005f06:	58 06       	cp.w	r6,0
80005f08:	c0 80       	breq	80005f18 <process_timers+0x58>
80005f0a:	6c 28       	ld.w	r8,r6[0x8]
80005f0c:	58 08       	cp.w	r8,0
80005f0e:	e0 8a 00 05 	brle	80005f18 <process_timers+0x58>
80005f12:	20 18       	sub	r8,1
80005f14:	8d 28       	st.w	r6[0x8],r8
80005f16:	c6 10       	breq	80005fd8 <process_timers+0x118>
80005f18:	6e 46       	ld.w	r6,r7[0x10]
80005f1a:	58 06       	cp.w	r6,0
80005f1c:	c0 80       	breq	80005f2c <process_timers+0x6c>
80005f1e:	6c 28       	ld.w	r8,r6[0x8]
80005f20:	58 08       	cp.w	r8,0
80005f22:	e0 8a 00 05 	brle	80005f2c <process_timers+0x6c>
80005f26:	20 18       	sub	r8,1
80005f28:	8d 28       	st.w	r6[0x8],r8
80005f2a:	c6 50       	breq	80005ff4 <process_timers+0x134>
80005f2c:	6e 56       	ld.w	r6,r7[0x14]
80005f2e:	58 06       	cp.w	r6,0
80005f30:	c0 80       	breq	80005f40 <process_timers+0x80>
80005f32:	6c 28       	ld.w	r8,r6[0x8]
80005f34:	58 08       	cp.w	r8,0
80005f36:	e0 8a 00 05 	brle	80005f40 <process_timers+0x80>
80005f3a:	20 18       	sub	r8,1
80005f3c:	8d 28       	st.w	r6[0x8],r8
80005f3e:	c6 90       	breq	80006010 <process_timers+0x150>
80005f40:	6e 66       	ld.w	r6,r7[0x18]
80005f42:	58 06       	cp.w	r6,0
80005f44:	c0 80       	breq	80005f54 <process_timers+0x94>
80005f46:	6c 28       	ld.w	r8,r6[0x8]
80005f48:	58 08       	cp.w	r8,0
80005f4a:	e0 8a 00 05 	brle	80005f54 <process_timers+0x94>
80005f4e:	20 18       	sub	r8,1
80005f50:	8d 28       	st.w	r6[0x8],r8
80005f52:	c6 d0       	breq	8000602c <process_timers+0x16c>
80005f54:	6e 76       	ld.w	r6,r7[0x1c]
80005f56:	58 06       	cp.w	r6,0
80005f58:	c0 80       	breq	80005f68 <process_timers+0xa8>
80005f5a:	6c 28       	ld.w	r8,r6[0x8]
80005f5c:	58 08       	cp.w	r8,0
80005f5e:	e0 8a 00 05 	brle	80005f68 <process_timers+0xa8>
80005f62:	20 18       	sub	r8,1
80005f64:	8d 28       	st.w	r6[0x8],r8
80005f66:	c0 30       	breq	80005f6c <process_timers+0xac>
80005f68:	e3 cd 80 c0 	ldm	sp++,r6-r7,pc
80005f6c:	6c 48       	ld.w	r8,r6[0x10]
80005f6e:	58 08       	cp.w	r8,0
80005f70:	c0 30       	breq	80005f76 <process_timers+0xb6>
80005f72:	6c 1c       	ld.w	r12,r6[0x4]
80005f74:	5d 18       	icall	r8
80005f76:	6c 08       	ld.w	r8,r6[0x0]
80005f78:	58 08       	cp.w	r8,0
80005f7a:	c6 70       	breq	80006048 <process_timers+0x188>
80005f7c:	6c 38       	ld.w	r8,r6[0xc]
80005f7e:	8d 28       	st.w	r6[0x8],r8
80005f80:	e3 cd 80 c0 	ldm	sp++,r6-r7,pc
80005f84:	6c 48       	ld.w	r8,r6[0x10]
80005f86:	58 08       	cp.w	r8,0
80005f88:	c0 30       	breq	80005f8e <process_timers+0xce>
80005f8a:	6c 1c       	ld.w	r12,r6[0x4]
80005f8c:	5d 18       	icall	r8
80005f8e:	6c 08       	ld.w	r8,r6[0x0]
80005f90:	58 08       	cp.w	r8,0
80005f92:	ef f8 0a 00 	st.weq	r7[0x0],r8
80005f96:	ed f8 10 03 	ld.wne	r8,r6[0xc]
80005f9a:	ed f8 1a 02 	st.wne	r6[0x8],r8
80005f9e:	c9 fb       	rjmp	80005edc <process_timers+0x1c>
80005fa0:	6c 48       	ld.w	r8,r6[0x10]
80005fa2:	58 08       	cp.w	r8,0
80005fa4:	c0 30       	breq	80005faa <process_timers+0xea>
80005fa6:	6c 1c       	ld.w	r12,r6[0x4]
80005fa8:	5d 18       	icall	r8
80005faa:	6c 08       	ld.w	r8,r6[0x0]
80005fac:	58 08       	cp.w	r8,0
80005fae:	ef f8 0a 01 	st.weq	r7[0x4],r8
80005fb2:	ed f8 10 03 	ld.wne	r8,r6[0xc]
80005fb6:	ed f8 1a 02 	st.wne	r6[0x8],r8
80005fba:	c9 bb       	rjmp	80005ef0 <process_timers+0x30>
80005fbc:	6c 48       	ld.w	r8,r6[0x10]
80005fbe:	58 08       	cp.w	r8,0
80005fc0:	c0 30       	breq	80005fc6 <process_timers+0x106>
80005fc2:	6c 1c       	ld.w	r12,r6[0x4]
80005fc4:	5d 18       	icall	r8
80005fc6:	6c 08       	ld.w	r8,r6[0x0]
80005fc8:	58 08       	cp.w	r8,0
80005fca:	ef f8 0a 02 	st.weq	r7[0x8],r8
80005fce:	ed f8 10 03 	ld.wne	r8,r6[0xc]
80005fd2:	ed f8 1a 02 	st.wne	r6[0x8],r8
80005fd6:	c9 7b       	rjmp	80005f04 <process_timers+0x44>
80005fd8:	6c 48       	ld.w	r8,r6[0x10]
80005fda:	58 08       	cp.w	r8,0
80005fdc:	c0 30       	breq	80005fe2 <process_timers+0x122>
80005fde:	6c 1c       	ld.w	r12,r6[0x4]
80005fe0:	5d 18       	icall	r8
80005fe2:	6c 08       	ld.w	r8,r6[0x0]
80005fe4:	58 08       	cp.w	r8,0
80005fe6:	ef f8 0a 03 	st.weq	r7[0xc],r8
80005fea:	ed f8 10 03 	ld.wne	r8,r6[0xc]
80005fee:	ed f8 1a 02 	st.wne	r6[0x8],r8
80005ff2:	c9 3b       	rjmp	80005f18 <process_timers+0x58>
80005ff4:	6c 48       	ld.w	r8,r6[0x10]
80005ff6:	58 08       	cp.w	r8,0
80005ff8:	c0 30       	breq	80005ffe <process_timers+0x13e>
80005ffa:	6c 1c       	ld.w	r12,r6[0x4]
80005ffc:	5d 18       	icall	r8
80005ffe:	6c 08       	ld.w	r8,r6[0x0]
80006000:	58 08       	cp.w	r8,0
80006002:	ef f8 0a 04 	st.weq	r7[0x10],r8
80006006:	ed f8 10 03 	ld.wne	r8,r6[0xc]
8000600a:	ed f8 1a 02 	st.wne	r6[0x8],r8
8000600e:	c8 fb       	rjmp	80005f2c <process_timers+0x6c>
80006010:	6c 48       	ld.w	r8,r6[0x10]
80006012:	58 08       	cp.w	r8,0
80006014:	c0 30       	breq	8000601a <process_timers+0x15a>
80006016:	6c 1c       	ld.w	r12,r6[0x4]
80006018:	5d 18       	icall	r8
8000601a:	6c 08       	ld.w	r8,r6[0x0]
8000601c:	58 08       	cp.w	r8,0
8000601e:	ef f8 0a 05 	st.weq	r7[0x14],r8
80006022:	ed f8 10 03 	ld.wne	r8,r6[0xc]
80006026:	ed f8 1a 02 	st.wne	r6[0x8],r8
8000602a:	c8 bb       	rjmp	80005f40 <process_timers+0x80>
8000602c:	6c 48       	ld.w	r8,r6[0x10]
8000602e:	58 08       	cp.w	r8,0
80006030:	c0 30       	breq	80006036 <process_timers+0x176>
80006032:	6c 1c       	ld.w	r12,r6[0x4]
80006034:	5d 18       	icall	r8
80006036:	6c 08       	ld.w	r8,r6[0x0]
80006038:	58 08       	cp.w	r8,0
8000603a:	ef f8 0a 06 	st.weq	r7[0x18],r8
8000603e:	ed f8 10 03 	ld.wne	r8,r6[0xc]
80006042:	ed f8 1a 02 	st.wne	r6[0x8],r8
80006046:	c8 7b       	rjmp	80005f54 <process_timers+0x94>
80006048:	8f 78       	st.w	r7[0x1c],r8
8000604a:	c8 fb       	rjmp	80005f68 <process_timers+0xa8>

8000604c <set_timer>:
8000604c:	eb cd 40 c0 	pushm	r6-r7,lr
80006050:	58 09       	cp.w	r9,0
80006052:	c5 80       	breq	80006102 <set_timer+0xb6>
80006054:	d3 33       	ssrf	0x13
80006056:	e0 6e 12 b0 	mov	lr,4784
8000605a:	7c 07       	ld.w	r7,lr[0x0]
8000605c:	58 07       	cp.w	r7,0
8000605e:	c0 40       	breq	80006066 <set_timer+0x1a>
80006060:	6e 16       	ld.w	r6,r7[0x4]
80006062:	0c 3b       	cp.w	r11,r6
80006064:	c5 20       	breq	80006108 <set_timer+0xbc>
80006066:	7c 17       	ld.w	r7,lr[0x4]
80006068:	58 07       	cp.w	r7,0
8000606a:	c0 40       	breq	80006072 <set_timer+0x26>
8000606c:	6e 16       	ld.w	r6,r7[0x4]
8000606e:	0c 3b       	cp.w	r11,r6
80006070:	c5 20       	breq	80006114 <set_timer+0xc8>
80006072:	7c 27       	ld.w	r7,lr[0x8]
80006074:	58 07       	cp.w	r7,0
80006076:	c0 40       	breq	8000607e <set_timer+0x32>
80006078:	6e 16       	ld.w	r6,r7[0x4]
8000607a:	0c 3b       	cp.w	r11,r6
8000607c:	c5 00       	breq	8000611c <set_timer+0xd0>
8000607e:	7c 37       	ld.w	r7,lr[0xc]
80006080:	58 07       	cp.w	r7,0
80006082:	c0 40       	breq	8000608a <set_timer+0x3e>
80006084:	6e 16       	ld.w	r6,r7[0x4]
80006086:	0c 3b       	cp.w	r11,r6
80006088:	c4 e0       	breq	80006124 <set_timer+0xd8>
8000608a:	7c 47       	ld.w	r7,lr[0x10]
8000608c:	58 07       	cp.w	r7,0
8000608e:	c0 40       	breq	80006096 <set_timer+0x4a>
80006090:	6e 16       	ld.w	r6,r7[0x4]
80006092:	0c 3b       	cp.w	r11,r6
80006094:	c4 c0       	breq	8000612c <set_timer+0xe0>
80006096:	7c 57       	ld.w	r7,lr[0x14]
80006098:	58 07       	cp.w	r7,0
8000609a:	c0 40       	breq	800060a2 <set_timer+0x56>
8000609c:	6e 16       	ld.w	r6,r7[0x4]
8000609e:	0c 3b       	cp.w	r11,r6
800060a0:	c4 a0       	breq	80006134 <set_timer+0xe8>
800060a2:	7c 67       	ld.w	r7,lr[0x18]
800060a4:	58 07       	cp.w	r7,0
800060a6:	c0 40       	breq	800060ae <set_timer+0x62>
800060a8:	6e 16       	ld.w	r6,r7[0x4]
800060aa:	0c 3b       	cp.w	r11,r6
800060ac:	c4 80       	breq	8000613c <set_timer+0xf0>
800060ae:	7c 77       	ld.w	r7,lr[0x1c]
800060b0:	58 07       	cp.w	r7,0
800060b2:	c0 40       	breq	800060ba <set_timer+0x6e>
800060b4:	6e 16       	ld.w	r6,r7[0x4]
800060b6:	0c 3b       	cp.w	r11,r6
800060b8:	c4 60       	breq	80006144 <set_timer+0xf8>
800060ba:	d5 33       	csrf	0x13
800060bc:	99 49       	st.w	r12[0x10],r9
800060be:	99 1b       	st.w	r12[0x4],r11
800060c0:	99 08       	st.w	r12[0x0],r8
800060c2:	99 3a       	st.w	r12[0xc],r10
800060c4:	99 2a       	st.w	r12[0x8],r10
800060c6:	d3 33       	ssrf	0x13
800060c8:	e0 68 12 b0 	mov	r8,4784
800060cc:	7c 09       	ld.w	r9,lr[0x0]
800060ce:	58 09       	cp.w	r9,0
800060d0:	c3 f0       	breq	8000614e <set_timer+0x102>
800060d2:	70 19       	ld.w	r9,r8[0x4]
800060d4:	58 09       	cp.w	r9,0
800060d6:	c3 b0       	breq	8000614c <set_timer+0x100>
800060d8:	70 29       	ld.w	r9,r8[0x8]
800060da:	58 09       	cp.w	r9,0
800060dc:	c3 e0       	breq	80006158 <set_timer+0x10c>
800060de:	70 39       	ld.w	r9,r8[0xc]
800060e0:	58 09       	cp.w	r9,0
800060e2:	c3 d0       	breq	8000615c <set_timer+0x110>
800060e4:	70 49       	ld.w	r9,r8[0x10]
800060e6:	58 09       	cp.w	r9,0
800060e8:	c3 c0       	breq	80006160 <set_timer+0x114>
800060ea:	70 59       	ld.w	r9,r8[0x14]
800060ec:	58 09       	cp.w	r9,0
800060ee:	c3 b0       	breq	80006164 <set_timer+0x118>
800060f0:	70 69       	ld.w	r9,r8[0x18]
800060f2:	58 09       	cp.w	r9,0
800060f4:	c3 a0       	breq	80006168 <set_timer+0x11c>
800060f6:	70 78       	ld.w	r8,r8[0x1c]
800060f8:	58 08       	cp.w	r8,0
800060fa:	c3 90       	breq	8000616c <set_timer+0x120>
800060fc:	d5 33       	csrf	0x13
800060fe:	e3 cf 80 c0 	ldm	sp++,r6-r7,pc,r12=0
80006102:	12 9c       	mov	r12,r9
80006104:	e3 cd 80 c0 	ldm	sp++,r6-r7,pc
80006108:	6e 47       	ld.w	r7,r7[0x10]
8000610a:	0e 39       	cp.w	r9,r7
8000610c:	ca d1       	brne	80006066 <set_timer+0x1a>
8000610e:	d5 33       	csrf	0x13
80006110:	e3 cf 80 c0 	ldm	sp++,r6-r7,pc,r12=0
80006114:	6e 47       	ld.w	r7,r7[0x10]
80006116:	0e 39       	cp.w	r9,r7
80006118:	ca d1       	brne	80006072 <set_timer+0x26>
8000611a:	cf ab       	rjmp	8000610e <set_timer+0xc2>
8000611c:	6e 47       	ld.w	r7,r7[0x10]
8000611e:	0e 39       	cp.w	r9,r7
80006120:	ca f1       	brne	8000607e <set_timer+0x32>
80006122:	cf 6b       	rjmp	8000610e <set_timer+0xc2>
80006124:	6e 47       	ld.w	r7,r7[0x10]
80006126:	0e 39       	cp.w	r9,r7
80006128:	cb 11       	brne	8000608a <set_timer+0x3e>
8000612a:	cf 2b       	rjmp	8000610e <set_timer+0xc2>
8000612c:	6e 47       	ld.w	r7,r7[0x10]
8000612e:	0e 39       	cp.w	r9,r7
80006130:	cb 31       	brne	80006096 <set_timer+0x4a>
80006132:	ce eb       	rjmp	8000610e <set_timer+0xc2>
80006134:	6e 47       	ld.w	r7,r7[0x10]
80006136:	0e 39       	cp.w	r9,r7
80006138:	cb 51       	brne	800060a2 <set_timer+0x56>
8000613a:	ce ab       	rjmp	8000610e <set_timer+0xc2>
8000613c:	6e 47       	ld.w	r7,r7[0x10]
8000613e:	0e 39       	cp.w	r9,r7
80006140:	cb 71       	brne	800060ae <set_timer+0x62>
80006142:	ce 6b       	rjmp	8000610e <set_timer+0xc2>
80006144:	6e 47       	ld.w	r7,r7[0x10]
80006146:	0e 39       	cp.w	r9,r7
80006148:	cb 91       	brne	800060ba <set_timer+0x6e>
8000614a:	ce 2b       	rjmp	8000610e <set_timer+0xc2>
8000614c:	30 19       	mov	r9,1
8000614e:	fc 09 09 2c 	st.w	lr[r9<<0x2],r12
80006152:	d5 33       	csrf	0x13
80006154:	e3 cf 90 c0 	ldm	sp++,r6-r7,pc,r12=1
80006158:	30 29       	mov	r9,2
8000615a:	cf ab       	rjmp	8000614e <set_timer+0x102>
8000615c:	30 39       	mov	r9,3
8000615e:	cf 8b       	rjmp	8000614e <set_timer+0x102>
80006160:	30 49       	mov	r9,4
80006162:	cf 6b       	rjmp	8000614e <set_timer+0x102>
80006164:	30 59       	mov	r9,5
80006166:	cf 4b       	rjmp	8000614e <set_timer+0x102>
80006168:	30 69       	mov	r9,6
8000616a:	cf 2b       	rjmp	8000614e <set_timer+0x102>
8000616c:	30 79       	mov	r9,7
8000616e:	cf 0b       	rjmp	8000614e <set_timer+0x102>

80006170 <main>:
80006170:	eb cd 40 fc 	pushm	r2-r7,lr
80006174:	fe b0 ee 36 	rcall	80003de0 <sysclk_init>
80006178:	30 4c       	mov	r12,4
8000617a:	fe b0 ed f7 	rcall	80003d68 <sysclk_enable_pbb_module>
8000617e:	e0 6c 14 80 	mov	r12,5248
80006182:	ea 1c 03 ef 	orh	r12,0x3ef
80006186:	fe b0 df 96 	rcall	800020b2 <flashc_set_bus_freq>
8000618a:	30 1c       	mov	r12,1
8000618c:	fe b0 df 8c 	rcall	800020a4 <flashc_set_wait_state>
80006190:	fe b0 e0 9e 	rcall	800022cc <INTC_init_interrupts>
80006194:	d3 03       	ssrf	0x10
80006196:	fe b0 f6 2f 	rcall	80004df4 <init_ftdi_usart>
8000619a:	e0 6c 14 80 	mov	r12,5248
8000619e:	ea 1c 03 ef 	orh	r12,0x3ef
800061a2:	fe b0 df 37 	rcall	80002010 <smc_init>
800061a6:	fe b0 f5 b7 	rcall	80004d14 <init_spi1>
800061aa:	fe b0 f5 89 	rcall	80004cbc <init_local_pdca>
800061ae:	fe b0 f5 55 	rcall	80004c58 <init_bfin_resources>
800061b2:	fe 7c 38 00 	mov	r12,-51200
800061b6:	fe b0 f6 31 	rcall	80004e18 <init_tc>
800061ba:	fe b0 f6 49 	rcall	80004e4c <init_gpio>
800061be:	fe b0 f6 67 	rcall	80004e8c <register_interrupts>
800061c2:	fe b0 fb 35 	rcall	8000582c <init_oled>
800061c6:	d5 03       	csrf	0x10
800061c8:	fe cc ad 84 	sub	r12,pc,-21116
800061cc:	fe b0 e4 46 	rcall	80002a58 <print_dbg>
800061d0:	30 0b       	mov	r11,0
800061d2:	33 f9       	mov	r9,63
800061d4:	fe ca ad 7c 	sub	r10,pc,-21124
800061d8:	16 9c       	mov	r12,r11
800061da:	fe b0 fa 4b 	rcall	80005670 <screen_line>
800061de:	33 f9       	mov	r9,63
800061e0:	fe ca ad 80 	sub	r10,pc,-21120
800061e4:	30 1b       	mov	r11,1
800061e6:	30 0c       	mov	r12,0
800061e8:	fe b0 fa 44 	rcall	80005670 <screen_line>
800061ec:	fe b0 fa 94 	rcall	80005714 <screen_refresh>
800061f0:	fe cc ad 78 	sub	r12,pc,-21128
800061f4:	fe b0 e4 32 	rcall	80002a58 <print_dbg>
800061f8:	fe b0 ec 44 	rcall	80003a80 <sd_mmc_spi_mem_check>
800061fc:	cf e0       	breq	800061f8 <main+0x88>
800061fe:	fe cc ad 76 	sub	r12,pc,-21130
80006202:	fe b0 e4 2b 	rcall	80002a58 <print_dbg>
80006206:	30 0b       	mov	r11,0
80006208:	16 9c       	mov	r12,r11
8000620a:	fe b0 f8 7b 	rcall	80005300 <screen_blank_line>
8000620e:	30 1b       	mov	r11,1
80006210:	30 0c       	mov	r12,0
80006212:	fe b0 f8 77 	rcall	80005300 <screen_blank_line>
80006216:	30 0b       	mov	r11,0
80006218:	33 f9       	mov	r9,63
8000621a:	fe ca ad 7e 	sub	r10,pc,-21122
8000621e:	16 9c       	mov	r12,r11
80006220:	fe b0 fa 28 	rcall	80005670 <screen_line>
80006224:	fe b0 f4 68 	rcall	80004af4 <init_files>
80006228:	d3 03       	ssrf	0x10
8000622a:	fe b0 f2 d3 	rcall	800047d0 <init_events>
8000622e:	fe cc ad 7e 	sub	r12,pc,-21122
80006232:	fe b0 e4 13 	rcall	80002a58 <print_dbg>
80006236:	fe b0 f3 5b 	rcall	800048ec <init_encoders>
8000623a:	fe cc ad 7a 	sub	r12,pc,-21126
8000623e:	fe b0 e4 0d 	rcall	80002a58 <print_dbg>
80006242:	fe b0 f7 81 	rcall	80005144 <init_mem>
80006246:	fe cc ad 72 	sub	r12,pc,-21134
8000624a:	fe b0 e4 07 	rcall	80002a58 <print_dbg>
8000624e:	fe b0 ee 07 	rcall	80003e5c <init_app_timers>
80006252:	fe cc ad 72 	sub	r12,pc,-21134
80006256:	fe b0 e4 01 	rcall	80002a58 <print_dbg>
8000625a:	c7 7d       	rcall	80006548 <menu_init>
8000625c:	fe cc ad 6c 	sub	r12,pc,-21140
80006260:	fe b0 e3 fc 	rcall	80002a58 <print_dbg>
80006264:	d5 03       	csrf	0x10
80006266:	33 f9       	mov	r9,63
80006268:	fe ca ad 68 	sub	r10,pc,-21144
8000626c:	30 1b       	mov	r11,1
8000626e:	30 0c       	mov	r12,0
80006270:	fe b0 fa 00 	rcall	80005670 <screen_line>
80006274:	fe b0 fa 50 	rcall	80005714 <screen_refresh>
80006278:	fe cc ad 60 	sub	r12,pc,-21152
8000627c:	fe b0 f3 a0 	rcall	800049bc <files_load_dsp_name>
80006280:	33 f9       	mov	r9,63
80006282:	fe ca ad 5e 	sub	r10,pc,-21154
80006286:	30 1b       	mov	r11,1
80006288:	30 0c       	mov	r12,0
8000628a:	fe b0 f9 f3 	rcall	80005670 <screen_line>
8000628e:	fe b0 fa 43 	rcall	80005714 <screen_refresh>
80006292:	fe cc ad 46 	sub	r12,pc,-21178
80006296:	e0 64 12 d0 	mov	r4,4816
8000629a:	fe b0 e3 df 	rcall	80002a58 <print_dbg>
8000629e:	30 86       	mov	r6,8
800062a0:	fe c3 ae 9c 	sub	r3,pc,-20836
800062a4:	e0 62 12 d8 	mov	r2,4824
800062a8:	08 95       	mov	r5,r4
800062aa:	30 07       	mov	r7,0
800062ac:	e0 6c 12 d0 	mov	r12,4816
800062b0:	fe b0 f2 ca 	rcall	80004844 <get_next_event>
800062b4:	cf c0       	breq	800062ac <main+0x13c>
800062b6:	0d 88       	ld.ub	r8,r6[0x0]
800062b8:	ee 08 18 00 	cp.b	r8,r7
800062bc:	c1 30       	breq	800062e2 <main+0x172>
800062be:	6a 08       	ld.w	r8,r5[0x0]
800062c0:	58 b8       	cp.w	r8,11
800062c2:	5f 0a       	sreq	r10
800062c4:	58 98       	cp.w	r8,9
800062c6:	5f 09       	sreq	r9
800062c8:	f5 e9 10 09 	or	r9,r10,r9
800062cc:	ee 09 18 00 	cp.b	r9,r7
800062d0:	c0 71       	brne	800062de <main+0x16e>
800062d2:	58 d8       	cp.w	r8,13
800062d4:	c0 50       	breq	800062de <main+0x16e>
800062d6:	58 f8       	cp.w	r8,15
800062d8:	c0 30       	breq	800062de <main+0x16e>
800062da:	59 18       	cp.w	r8,17
800062dc:	ce 81       	brne	800062ac <main+0x13c>
800062de:	ac 87       	st.b	r6[0x0],r7
800062e0:	ce 6b       	rjmp	800062ac <main+0x13c>
800062e2:	6a 08       	ld.w	r8,r5[0x0]
800062e4:	20 48       	sub	r8,4
800062e6:	58 f8       	cp.w	r8,15
800062e8:	fe 9b ff e2 	brhi	800062ac <main+0x13c>
800062ec:	e6 08 03 2f 	ld.w	pc,r3[r8<<0x2]
800062f0:	30 0b       	mov	r11,0
800062f2:	33 f9       	mov	r9,63
800062f4:	fe ca ad 8c 	sub	r10,pc,-21108
800062f8:	16 9c       	mov	r12,r11
800062fa:	fe b0 f9 bb 	rcall	80005670 <screen_line>
800062fe:	fe cc ad 86 	sub	r12,pc,-21114
80006302:	fe b0 e3 ab 	rcall	80002a58 <print_dbg>
80006306:	fe b0 fa 07 	rcall	80005714 <screen_refresh>
8000630a:	32 fc       	mov	r12,47
8000630c:	fe b0 df 0c 	rcall	80002124 <gpio_clr_gpio_pin>
80006310:	cc eb       	rjmp	800062ac <main+0x13c>
80006312:	05 88       	ld.ub	r8,r2[0x0]
80006314:	ec 18 00 01 	eorl	r8,0x1
80006318:	a4 88       	st.b	r2[0x0],r8
8000631a:	c5 b0       	breq	800063d0 <main+0x260>
8000631c:	31 7c       	mov	r12,23
8000631e:	fe b0 de f6 	rcall	8000210a <gpio_set_gpio_pin>
80006322:	88 3b       	ld.sh	r11,r4[0x6]
80006324:	30 0c       	mov	r12,0
80006326:	ca fc       	rcall	80006484 <menu_handleKey>
80006328:	cc 2b       	rjmp	800062ac <main+0x13c>
8000632a:	88 3b       	ld.sh	r11,r4[0x6]
8000632c:	30 8c       	mov	r12,8
8000632e:	ca bc       	rcall	80006484 <menu_handleKey>
80006330:	cb eb       	rjmp	800062ac <main+0x13c>
80006332:	88 3b       	ld.sh	r11,r4[0x6]
80006334:	30 7c       	mov	r12,7
80006336:	ca 7c       	rcall	80006484 <menu_handleKey>
80006338:	cb ab       	rjmp	800062ac <main+0x13c>
8000633a:	88 3b       	ld.sh	r11,r4[0x6]
8000633c:	30 6c       	mov	r12,6
8000633e:	ca 3c       	rcall	80006484 <menu_handleKey>
80006340:	cb 6b       	rjmp	800062ac <main+0x13c>
80006342:	88 3b       	ld.sh	r11,r4[0x6]
80006344:	30 5c       	mov	r12,5
80006346:	c9 fc       	rcall	80006484 <menu_handleKey>
80006348:	cb 2b       	rjmp	800062ac <main+0x13c>
8000634a:	88 3b       	ld.sh	r11,r4[0x6]
8000634c:	30 4c       	mov	r12,4
8000634e:	c9 bc       	rcall	80006484 <menu_handleKey>
80006350:	ca eb       	rjmp	800062ac <main+0x13c>
80006352:	88 3b       	ld.sh	r11,r4[0x6]
80006354:	30 3c       	mov	r12,3
80006356:	c9 7c       	rcall	80006484 <menu_handleKey>
80006358:	ca ab       	rjmp	800062ac <main+0x13c>
8000635a:	88 3b       	ld.sh	r11,r4[0x6]
8000635c:	30 2c       	mov	r12,2
8000635e:	c9 3c       	rcall	80006484 <menu_handleKey>
80006360:	ca 6b       	rjmp	800062ac <main+0x13c>
80006362:	88 3b       	ld.sh	r11,r4[0x6]
80006364:	30 1c       	mov	r12,1
80006366:	c8 fc       	rcall	80006484 <menu_handleKey>
80006368:	ca 2b       	rjmp	800062ac <main+0x13c>
8000636a:	fe cc ad 96 	sub	r12,pc,-21098
8000636e:	fe b0 e3 75 	rcall	80002a58 <print_dbg>
80006372:	68 1b       	ld.w	r11,r4[0x4]
80006374:	58 0b       	cp.w	r11,0
80006376:	e0 8a 00 31 	brle	800063d8 <main+0x268>
8000637a:	5c 8b       	casts.h	r11
8000637c:	30 9c       	mov	r12,9
8000637e:	c8 3c       	rcall	80006484 <menu_handleKey>
80006380:	c9 6b       	rjmp	800062ac <main+0x13c>
80006382:	fe cc ad be 	sub	r12,pc,-21058
80006386:	fe b0 e3 69 	rcall	80002a58 <print_dbg>
8000638a:	68 1b       	ld.w	r11,r4[0x4]
8000638c:	58 0b       	cp.w	r11,0
8000638e:	e0 8a 00 2d 	brle	800063e8 <main+0x278>
80006392:	5c 8b       	casts.h	r11
80006394:	30 bc       	mov	r12,11
80006396:	c7 7c       	rcall	80006484 <menu_handleKey>
80006398:	c8 ab       	rjmp	800062ac <main+0x13c>
8000639a:	fe cc ad f6 	sub	r12,pc,-21002
8000639e:	fe b0 e3 5d 	rcall	80002a58 <print_dbg>
800063a2:	68 1b       	ld.w	r11,r4[0x4]
800063a4:	58 0b       	cp.w	r11,0
800063a6:	e0 8a 00 1d 	brle	800063e0 <main+0x270>
800063aa:	5c 8b       	casts.h	r11
800063ac:	30 fc       	mov	r12,15
800063ae:	c6 bc       	rcall	80006484 <menu_handleKey>
800063b0:	c7 eb       	rjmp	800062ac <main+0x13c>
800063b2:	fe cc ad fe 	sub	r12,pc,-20994
800063b6:	fe b0 e3 51 	rcall	80002a58 <print_dbg>
800063ba:	68 1b       	ld.w	r11,r4[0x4]
800063bc:	58 0b       	cp.w	r11,0
800063be:	e0 8a 00 19 	brle	800063f0 <main+0x280>
800063c2:	5c 8b       	casts.h	r11
800063c4:	30 dc       	mov	r12,13
800063c6:	c5 fc       	rcall	80006484 <menu_handleKey>
800063c8:	c7 2b       	rjmp	800062ac <main+0x13c>
800063ca:	fe b0 f9 a5 	rcall	80005714 <screen_refresh>
800063ce:	c6 fb       	rjmp	800062ac <main+0x13c>
800063d0:	31 7c       	mov	r12,23
800063d2:	fe b0 de a9 	rcall	80002124 <gpio_clr_gpio_pin>
800063d6:	ca 6b       	rjmp	80006322 <main+0x1b2>
800063d8:	5c 8b       	casts.h	r11
800063da:	30 ac       	mov	r12,10
800063dc:	c5 4c       	rcall	80006484 <menu_handleKey>
800063de:	c6 7b       	rjmp	800062ac <main+0x13c>
800063e0:	5c 8b       	casts.h	r11
800063e2:	31 0c       	mov	r12,16
800063e4:	c5 0c       	rcall	80006484 <menu_handleKey>
800063e6:	c6 3b       	rjmp	800062ac <main+0x13c>
800063e8:	5c 8b       	casts.h	r11
800063ea:	30 cc       	mov	r12,12
800063ec:	c4 cc       	rcall	80006484 <menu_handleKey>
800063ee:	c5 fb       	rjmp	800062ac <main+0x13c>
800063f0:	5c 8b       	casts.h	r11
800063f2:	30 ec       	mov	r12,14
800063f4:	c4 8c       	rcall	80006484 <menu_handleKey>
800063f6:	c5 bb       	rjmp	800062ac <main+0x13c>

800063f8 <key_handler_dsp>:
800063f8:	eb cd 40 80 	pushm	r7,lr
800063fc:	58 ac       	cp.w	r12,10
800063fe:	c3 f0       	breq	8000647c <key_handler_dsp+0x84>
80006400:	e0 88 00 0d 	brls	8000641a <key_handler_dsp+0x22>
80006404:	58 bc       	cp.w	r12,11
80006406:	c2 30       	breq	8000644c <key_handler_dsp+0x54>
80006408:	58 cc       	cp.w	r12,12
8000640a:	c1 50       	breq	80006434 <key_handler_dsp+0x3c>
8000640c:	e0 67 2a 80 	mov	r7,10880
80006410:	6e 08       	ld.w	r8,r7[0x0]
80006412:	70 28       	ld.w	r8,r8[0x8]
80006414:	5d 18       	icall	r8
80006416:	e3 cd 80 80 	ldm	sp++,r7,pc
8000641a:	58 1c       	cp.w	r12,1
8000641c:	c2 40       	breq	80006464 <key_handler_dsp+0x6c>
8000641e:	58 9c       	cp.w	r12,9
80006420:	cf 61       	brne	8000640c <key_handler_dsp+0x14>
80006422:	30 1c       	mov	r12,1
80006424:	c6 4c       	rcall	800064ec <scroll_page>
80006426:	e0 67 2a 80 	mov	r7,10880
8000642a:	6e 08       	ld.w	r8,r7[0x0]
8000642c:	70 28       	ld.w	r8,r8[0x8]
8000642e:	5d 18       	icall	r8
80006430:	e3 cd 80 80 	ldm	sp++,r7,pc
80006434:	fe b0 f2 c0 	rcall	800049b4 <files_get_dsp_count>
80006438:	e0 67 2a 80 	mov	r7,10880
8000643c:	18 9b       	mov	r11,r12
8000643e:	3f fc       	mov	r12,-1
80006440:	c2 cc       	rcall	80006498 <scroll_select_clip>
80006442:	6e 08       	ld.w	r8,r7[0x0]
80006444:	70 28       	ld.w	r8,r8[0x8]
80006446:	5d 18       	icall	r8
80006448:	e3 cd 80 80 	ldm	sp++,r7,pc
8000644c:	fe b0 f2 b4 	rcall	800049b4 <files_get_dsp_count>
80006450:	e0 67 2a 80 	mov	r7,10880
80006454:	18 9b       	mov	r11,r12
80006456:	30 1c       	mov	r12,1
80006458:	c2 0c       	rcall	80006498 <scroll_select_clip>
8000645a:	6e 08       	ld.w	r8,r7[0x0]
8000645c:	70 28       	ld.w	r8,r8[0x8]
8000645e:	5d 18       	icall	r8
80006460:	e3 cd 80 80 	ldm	sp++,r7,pc
80006464:	e0 67 2a 80 	mov	r7,10880
80006468:	6e 08       	ld.w	r8,r7[0x0]
8000646a:	f1 3c 00 0d 	ld.ub	r12,r8[13]
8000646e:	fe b0 f3 0b 	rcall	80004a84 <files_load_dsp>
80006472:	6e 08       	ld.w	r8,r7[0x0]
80006474:	70 28       	ld.w	r8,r8[0x8]
80006476:	5d 18       	icall	r8
80006478:	e3 cd 80 80 	ldm	sp++,r7,pc
8000647c:	3f fc       	mov	r12,-1
8000647e:	c3 7c       	rcall	800064ec <scroll_page>
80006480:	cc 6b       	rjmp	8000640c <key_handler_dsp+0x14>
80006482:	d7 03       	nop

80006484 <menu_handleKey>:
80006484:	d4 01       	pushm	lr
80006486:	58 0c       	cp.w	r12,0
80006488:	c0 60       	breq	80006494 <menu_handleKey+0x10>
8000648a:	e0 68 2a 80 	mov	r8,10880
8000648e:	70 08       	ld.w	r8,r8[0x0]
80006490:	70 18       	ld.w	r8,r8[0x4]
80006492:	5d 18       	icall	r8
80006494:	d8 02       	popm	pc
80006496:	d7 03       	nop

80006498 <scroll_select_clip>:
80006498:	eb cd 40 c0 	pushm	r6-r7,lr
8000649c:	e0 67 2a 80 	mov	r7,10880
800064a0:	f3 dc b0 08 	bfexts	r9,r12,0x0,0x8
800064a4:	6e 08       	ld.w	r8,r7[0x0]
800064a6:	90 6a       	ld.sh	r10,r8[0xc]
800064a8:	f4 09 00 09 	add	r9,r10,r9
800064ac:	16 96       	mov	r6,r11
800064ae:	b0 69       	st.h	r8[0xc],r9
800064b0:	fe cc ae cc 	sub	r12,pc,-20788
800064b4:	fe b0 e2 d2 	rcall	80002a58 <print_dbg>
800064b8:	6e 08       	ld.w	r8,r7[0x0]
800064ba:	90 6c       	ld.sh	r12,r8[0xc]
800064bc:	fe b0 e2 76 	rcall	800029a8 <print_dbg_hex>
800064c0:	6e 08       	ld.w	r8,r7[0x0]
800064c2:	30 0a       	mov	r10,0
800064c4:	90 69       	ld.sh	r9,r8[0xc]
800064c6:	0c 39       	cp.w	r9,r6
800064c8:	f7 b6 04 01 	subge	r6,1
800064cc:	f1 f6 4c 06 	st.hge	r8[0xc],r6
800064d0:	ef f8 40 00 	ld.wge	r8,r7[0x0]
800064d4:	f1 f9 42 06 	ld.shge	r9,r8[0xc]
800064d8:	f4 09 19 00 	cp.h	r9,r10
800064dc:	f1 fa 5c 06 	st.hlt	r8[0xc],r10
800064e0:	ef f8 50 00 	ld.wlt	r8,r7[0x0]
800064e4:	70 28       	ld.w	r8,r8[0x8]
800064e6:	5d 18       	icall	r8
800064e8:	e3 cd 80 c0 	ldm	sp++,r6-r7,pc

800064ec <scroll_page>:
800064ec:	eb cd 40 80 	pushm	r7,lr
800064f0:	e0 69 12 d9 	mov	r9,4825
800064f4:	13 88       	ld.ub	r8,r9[0x0]
800064f6:	b2 88       	st.b	r9[0x0],r8
800064f8:	5c 68       	casts.b	r8
800064fa:	f0 09 15 03 	lsl	r9,r8,0x3
800064fe:	f2 08 01 08 	sub	r8,r9,r8
80006502:	30 c9       	mov	r9,12
80006504:	e0 67 2a 80 	mov	r7,10880
80006508:	f2 08 00 28 	add	r8,r9,r8<<0x2
8000650c:	8f 08       	st.w	r7[0x0],r8
8000650e:	70 28       	ld.w	r8,r8[0x8]
80006510:	5d 18       	icall	r8
80006512:	6e 08       	ld.w	r8,r7[0x0]
80006514:	30 3c       	mov	r12,3
80006516:	f1 3b 00 15 	ld.ub	r11,r8[21]
8000651a:	fe b0 f1 bb 	rcall	80004890 <set_enc_thresh>
8000651e:	6e 08       	ld.w	r8,r7[0x0]
80006520:	30 2c       	mov	r12,2
80006522:	f1 3b 00 16 	ld.ub	r11,r8[22]
80006526:	fe b0 f1 b5 	rcall	80004890 <set_enc_thresh>
8000652a:	6e 08       	ld.w	r8,r7[0x0]
8000652c:	30 1c       	mov	r12,1
8000652e:	f1 3b 00 17 	ld.ub	r11,r8[23]
80006532:	fe b0 f1 af 	rcall	80004890 <set_enc_thresh>
80006536:	6e 08       	ld.w	r8,r7[0x0]
80006538:	30 0c       	mov	r12,0
8000653a:	f1 3b 00 18 	ld.ub	r11,r8[24]
8000653e:	fe b0 f1 a9 	rcall	80004890 <set_enc_thresh>
80006542:	e3 cd 80 80 	ldm	sp++,r7,pc
80006546:	d7 03       	nop

80006548 <menu_init>:
80006548:	eb cd 40 80 	pushm	r7,lr
8000654c:	e0 69 12 d9 	mov	r9,4825
80006550:	13 88       	ld.ub	r8,r9[0x0]
80006552:	b2 88       	st.b	r9[0x0],r8
80006554:	5c 68       	casts.b	r8
80006556:	f0 09 15 03 	lsl	r9,r8,0x3
8000655a:	f2 08 01 08 	sub	r8,r9,r8
8000655e:	30 c9       	mov	r9,12
80006560:	e0 67 2a 80 	mov	r7,10880
80006564:	f2 08 00 28 	add	r8,r9,r8<<0x2
80006568:	8f 08       	st.w	r7[0x0],r8
8000656a:	70 28       	ld.w	r8,r8[0x8]
8000656c:	5d 18       	icall	r8
8000656e:	6e 08       	ld.w	r8,r7[0x0]
80006570:	30 3c       	mov	r12,3
80006572:	f1 3b 00 15 	ld.ub	r11,r8[21]
80006576:	fe b0 f1 8d 	rcall	80004890 <set_enc_thresh>
8000657a:	6e 08       	ld.w	r8,r7[0x0]
8000657c:	30 2c       	mov	r12,2
8000657e:	f1 3b 00 16 	ld.ub	r11,r8[22]
80006582:	fe b0 f1 87 	rcall	80004890 <set_enc_thresh>
80006586:	6e 08       	ld.w	r8,r7[0x0]
80006588:	30 1c       	mov	r12,1
8000658a:	f1 3b 00 17 	ld.ub	r11,r8[23]
8000658e:	fe b0 f1 81 	rcall	80004890 <set_enc_thresh>
80006592:	6e 08       	ld.w	r8,r7[0x0]
80006594:	30 0c       	mov	r12,0
80006596:	f1 3b 00 18 	ld.ub	r11,r8[24]
8000659a:	fe b0 f1 7b 	rcall	80004890 <set_enc_thresh>
8000659e:	e3 cd 80 80 	ldm	sp++,r7,pc
800065a2:	d7 03       	nop

800065a4 <redraw_dsp>:
800065a4:	d4 31       	pushm	r0-r7,lr
800065a6:	20 1d       	sub	sp,4
800065a8:	fe b0 f2 06 	rcall	800049b4 <files_get_dsp_count>
800065ac:	e0 68 2a 80 	mov	r8,10880
800065b0:	18 97       	mov	r7,r12
800065b2:	70 08       	ld.w	r8,r8[0x0]
800065b4:	90 65       	ld.sh	r5,r8[0xc]
800065b6:	18 35       	cp.w	r5,r12
800065b8:	e0 84 00 90 	brge	800066d8 <redraw_dsp+0x134>
800065bc:	18 93       	mov	r3,r12
800065be:	30 3b       	mov	r11,3
800065c0:	5c 83       	casts.h	r3
800065c2:	30 0c       	mov	r12,0
800065c4:	fe b0 f6 9e 	rcall	80005300 <screen_blank_line>
800065c8:	58 05       	cp.w	r5,0
800065ca:	c0 85       	brlt	800065da <redraw_dsp+0x36>
800065cc:	0a 97       	mov	r7,r5
800065ce:	f1 d3 c0 10 	bfextu	r8,r3,0x0,0x10
800065d2:	0e 38       	cp.w	r8,r7
800065d4:	e0 89 00 8d 	brgt	800066ee <redraw_dsp+0x14a>
800065d8:	0e 95       	mov	r5,r7
800065da:	e0 62 12 dc 	mov	r2,4828
800065de:	30 1a       	mov	r10,1
800065e0:	30 3b       	mov	r11,3
800065e2:	30 0c       	mov	r12,0
800065e4:	ea c1 00 02 	sub	r1,r5,2
800065e8:	fe b0 f5 e0 	rcall	800051a8 <screen_hl_line>
800065ec:	30 26       	mov	r6,2
800065ee:	0a 97       	mov	r7,r5
800065f0:	e1 d3 c0 10 	bfextu	r0,r3,0x0,0x10
800065f4:	e4 c4 ff ce 	sub	r4,r2,-50
800065f8:	50 02       	stdsp	sp[0x0],r2
800065fa:	20 17       	sub	r7,1
800065fc:	0c 9b       	mov	r11,r6
800065fe:	30 0c       	mov	r12,0
80006600:	fe b0 f6 80 	rcall	80005300 <screen_blank_line>
80006604:	58 07       	cp.w	r7,0
80006606:	c0 35       	brlt	8000660c <redraw_dsp+0x68>
80006608:	00 37       	cp.w	r7,r0
8000660a:	c4 95       	brlt	8000669c <redraw_dsp+0xf8>
8000660c:	20 16       	sub	r6,1
8000660e:	02 37       	cp.w	r7,r1
80006610:	cf 51       	brne	800065fa <redraw_dsp+0x56>
80006612:	0a 97       	mov	r7,r5
80006614:	e5 d3 c0 10 	bfextu	r2,r3,0x0,0x10
80006618:	30 06       	mov	r6,0
8000661a:	e0 63 12 dc 	mov	r3,4828
8000661e:	2f d5       	sub	r5,-3
80006620:	32 81       	mov	r1,40
80006622:	e6 c4 ff ce 	sub	r4,r3,-50
80006626:	50 03       	stdsp	sp[0x0],r3
80006628:	2f f7       	sub	r7,-1
8000662a:	ec c0 ff fc 	sub	r0,r6,-4
8000662e:	30 0c       	mov	r12,0
80006630:	00 9b       	mov	r11,r0
80006632:	fe b0 f6 67 	rcall	80005300 <screen_blank_line>
80006636:	58 07       	cp.w	r7,0
80006638:	c0 35       	brlt	8000663e <redraw_dsp+0x9a>
8000663a:	04 37       	cp.w	r7,r2
8000663c:	c1 45       	brlt	80006664 <redraw_dsp+0xc0>
8000663e:	2f f6       	sub	r6,-1
80006640:	0a 37       	cp.w	r7,r5
80006642:	cf 31       	brne	80006628 <redraw_dsp+0x84>
80006644:	30 0b       	mov	r11,0
80006646:	30 c9       	mov	r9,12
80006648:	fe ca b0 4c 	sub	r10,pc,-20404
8000664c:	16 9c       	mov	r12,r11
8000664e:	fe b0 f8 11 	rcall	80005670 <screen_line>
80006652:	30 a9       	mov	r9,10
80006654:	fe ca b0 54 	sub	r10,pc,-20396
80006658:	30 7b       	mov	r11,7
8000665a:	30 0c       	mov	r12,0
8000665c:	fe b0 f8 0a 	rcall	80005670 <screen_line>
80006660:	2f fd       	sub	sp,-4
80006662:	d8 32       	popm	r0-r7,pc
80006664:	0e 9c       	mov	r12,r7
80006666:	5c 5c       	castu.b	r12
80006668:	fe b0 f1 a0 	rcall	800049a8 <files_get_dsp_name>
8000666c:	83 03       	st.w	r1[0x0],r3
8000666e:	19 89       	ld.ub	r9,r12[0x0]
80006670:	58 09       	cp.w	r9,0
80006672:	c5 f0       	breq	80006730 <redraw_dsp+0x18c>
80006674:	40 08       	lddsp	r8,sp[0x0]
80006676:	c0 38       	rjmp	8000667c <redraw_dsp+0xd8>
80006678:	08 38       	cp.w	r8,r4
8000667a:	c0 60       	breq	80006686 <redraw_dsp+0xe2>
8000667c:	10 c9       	st.b	r8++,r9
8000667e:	2f fc       	sub	r12,-1
80006680:	19 89       	ld.ub	r9,r12[0x0]
80006682:	58 09       	cp.w	r9,0
80006684:	cf a1       	brne	80006678 <redraw_dsp+0xd4>
80006686:	83 08       	st.w	r1[0x0],r8
80006688:	30 09       	mov	r9,0
8000668a:	00 9b       	mov	r11,r0
8000668c:	b0 89       	st.b	r8[0x0],r9
8000668e:	e0 6a 12 dc 	mov	r10,4828
80006692:	30 49       	mov	r9,4
80006694:	30 0c       	mov	r12,0
80006696:	fe b0 f7 e7 	rcall	80005664 <screen_string>
8000669a:	cd 2b       	rjmp	8000663e <redraw_dsp+0x9a>
8000669c:	0e 9c       	mov	r12,r7
8000669e:	5c 5c       	castu.b	r12
800066a0:	fe b0 f1 84 	rcall	800049a8 <files_get_dsp_name>
800066a4:	32 89       	mov	r9,40
800066a6:	93 02       	st.w	r9[0x0],r2
800066a8:	19 89       	ld.ub	r9,r12[0x0]
800066aa:	58 09       	cp.w	r9,0
800066ac:	c4 40       	breq	80006734 <redraw_dsp+0x190>
800066ae:	40 08       	lddsp	r8,sp[0x0]
800066b0:	c0 38       	rjmp	800066b6 <redraw_dsp+0x112>
800066b2:	08 38       	cp.w	r8,r4
800066b4:	c0 60       	breq	800066c0 <redraw_dsp+0x11c>
800066b6:	10 c9       	st.b	r8++,r9
800066b8:	2f fc       	sub	r12,-1
800066ba:	19 89       	ld.ub	r9,r12[0x0]
800066bc:	58 09       	cp.w	r9,0
800066be:	cf a1       	brne	800066b2 <redraw_dsp+0x10e>
800066c0:	32 89       	mov	r9,40
800066c2:	93 08       	st.w	r9[0x0],r8
800066c4:	30 09       	mov	r9,0
800066c6:	e0 6a 12 dc 	mov	r10,4828
800066ca:	b0 89       	st.b	r8[0x0],r9
800066cc:	0c 9b       	mov	r11,r6
800066ce:	30 49       	mov	r9,4
800066d0:	30 0c       	mov	r12,0
800066d2:	fe b0 f7 c9 	rcall	80005664 <screen_string>
800066d6:	c9 bb       	rjmp	8000660c <redraw_dsp+0x68>
800066d8:	18 93       	mov	r3,r12
800066da:	30 3b       	mov	r11,3
800066dc:	30 0c       	mov	r12,0
800066de:	fe b0 f6 11 	rcall	80005300 <screen_blank_line>
800066e2:	5c 83       	casts.h	r3
800066e4:	f1 d3 c0 10 	bfextu	r8,r3,0x0,0x10
800066e8:	0e 38       	cp.w	r8,r7
800066ea:	fe 9a ff 77 	brle	800065d8 <redraw_dsp+0x34>
800066ee:	0e 9c       	mov	r12,r7
800066f0:	5c 5c       	castu.b	r12
800066f2:	fe b0 f1 5b 	rcall	800049a8 <files_get_dsp_name>
800066f6:	32 8b       	mov	r11,40
800066f8:	e0 6a 12 dc 	mov	r10,4828
800066fc:	97 0a       	st.w	r11[0x0],r10
800066fe:	19 89       	ld.ub	r9,r12[0x0]
80006700:	58 09       	cp.w	r9,0
80006702:	c1 b0       	breq	80006738 <redraw_dsp+0x194>
80006704:	14 98       	mov	r8,r10
80006706:	2c ea       	sub	r10,-50
80006708:	c0 38       	rjmp	8000670e <redraw_dsp+0x16a>
8000670a:	14 38       	cp.w	r8,r10
8000670c:	c0 60       	breq	80006718 <redraw_dsp+0x174>
8000670e:	10 c9       	st.b	r8++,r9
80006710:	2f fc       	sub	r12,-1
80006712:	19 89       	ld.ub	r9,r12[0x0]
80006714:	58 09       	cp.w	r9,0
80006716:	cf a1       	brne	8000670a <redraw_dsp+0x166>
80006718:	97 08       	st.w	r11[0x0],r8
8000671a:	30 09       	mov	r9,0
8000671c:	0e 95       	mov	r5,r7
8000671e:	b0 89       	st.b	r8[0x0],r9
80006720:	e0 6a 12 dc 	mov	r10,4828
80006724:	30 f9       	mov	r9,15
80006726:	30 3b       	mov	r11,3
80006728:	30 0c       	mov	r12,0
8000672a:	fe b0 f7 9d 	rcall	80005664 <screen_string>
8000672e:	c5 6b       	rjmp	800065da <redraw_dsp+0x36>
80006730:	06 98       	mov	r8,r3
80006732:	ca bb       	rjmp	80006688 <redraw_dsp+0xe4>
80006734:	04 98       	mov	r8,r2
80006736:	cc 7b       	rjmp	800066c4 <redraw_dsp+0x120>
80006738:	14 98       	mov	r8,r10
8000673a:	cf 0b       	rjmp	8000671a <redraw_dsp+0x176>

8000673c <fatfs_lba_of_cluster>:
8000673c:	78 c8       	ld.w	r8,r12[0x30]
8000673e:	58 08       	cp.w	r8,0
80006740:	c0 80       	breq	80006750 <fatfs_lba_of_cluster+0x14>
80006742:	78 18       	ld.w	r8,r12[0x4]
80006744:	20 2b       	sub	r11,2
80006746:	19 89       	ld.ub	r9,r12[0x0]
80006748:	f6 09 02 4c 	mul	r12,r11,r9
8000674c:	10 0c       	add	r12,r8
8000674e:	5e fc       	retal	r12
80006750:	19 88       	ld.ub	r8,r12[0x0]
80006752:	f9 19 00 28 	ld.uh	r9,r12[40]
80006756:	20 2b       	sub	r11,2
80006758:	a5 49       	asr	r9,0x4
8000675a:	b1 3b       	mul	r11,r8
8000675c:	78 18       	ld.w	r8,r12[0x4]
8000675e:	f2 08 00 0c 	add	r12,r9,r8
80006762:	16 0c       	add	r12,r11
80006764:	5e fc       	retal	r12

80006766 <fatfs_sector_read>:
80006766:	d4 01       	pushm	lr
80006768:	16 9e       	mov	lr,r11
8000676a:	78 d8       	ld.w	r8,r12[0x34]
8000676c:	14 9b       	mov	r11,r10
8000676e:	1c 9c       	mov	r12,lr
80006770:	12 9a       	mov	r10,r9
80006772:	5d 18       	icall	r8
80006774:	d8 02       	popm	pc

80006776 <fatfs_sector_write>:
80006776:	d4 01       	pushm	lr
80006778:	16 9e       	mov	lr,r11
8000677a:	78 e8       	ld.w	r8,r12[0x38]
8000677c:	14 9b       	mov	r11,r10
8000677e:	1c 9c       	mov	r12,lr
80006780:	12 9a       	mov	r10,r9
80006782:	5d 18       	icall	r8
80006784:	d8 02       	popm	pc

80006786 <fatfs_get_root_cluster>:
80006786:	78 2c       	ld.w	r12,r12[0x8]
80006788:	5e fc       	retal	r12

8000678a <fatfs_list_directory_start>:
8000678a:	30 08       	mov	r8,0
8000678c:	97 1a       	st.w	r11[0x4],r10
8000678e:	f7 68 00 08 	st.b	r11[8],r8
80006792:	97 08       	st.w	r11[0x0],r8
80006794:	5e fc       	retal	r12
80006796:	d7 03       	nop

80006798 <fatfs_init>:
80006798:	eb cd 40 f8 	pushm	r3-r7,lr
8000679c:	3f f8       	mov	r8,-1
8000679e:	18 97       	mov	r7,r12
800067a0:	30 06       	mov	r6,0
800067a2:	f9 48 02 44 	st.w	r12[580],r8
800067a6:	f9 46 02 48 	st.w	r12[584],r6
800067aa:	99 96       	st.w	r12[0x24],r6
800067ac:	e0 a0 15 56 	rcall	80009258 <fatfs_fat_init>
800067b0:	6e d8       	ld.w	r8,r7[0x34]
800067b2:	58 08       	cp.w	r8,0
800067b4:	c0 31       	brne	800067ba <fatfs_init+0x22>
800067b6:	e3 cf c0 f8 	ldm	sp++,r3-r7,pc,r12=-1
800067ba:	0c 9c       	mov	r12,r6
800067bc:	30 1a       	mov	r10,1
800067be:	ee c6 ff bc 	sub	r6,r7,-68
800067c2:	0c 9b       	mov	r11,r6
800067c4:	5d 18       	icall	r8
800067c6:	cf 80       	breq	800067b6 <fatfs_init+0x1e>
800067c8:	ef 18 02 42 	ld.uh	r8,r7[578]
800067cc:	e0 48 55 aa 	cp.w	r8,21930
800067d0:	c0 40       	breq	800067d8 <fatfs_init+0x40>
800067d2:	3f dc       	mov	r12,-3
800067d4:	e3 cd 80 f8 	ldm	sp++,r3-r7,pc
800067d8:	ef 39 02 43 	ld.ub	r9,r7[579]
800067dc:	ef 38 02 42 	ld.ub	r8,r7[578]
800067e0:	a9 69       	lsl	r9,0x8
800067e2:	f2 08 00 08 	add	r8,r9,r8
800067e6:	e0 48 aa 55 	cp.w	r8,43605
800067ea:	c0 40       	breq	800067f2 <fatfs_init+0x5a>
800067ec:	3f cc       	mov	r12,-4
800067ee:	e3 cd 80 f8 	ldm	sp++,r3-r7,pc
800067f2:	ef 38 02 06 	ld.ub	r8,r7[518]
800067f6:	30 f9       	mov	r9,15
800067f8:	f2 08 18 00 	cp.b	r8,r9
800067fc:	e0 8b 00 0c 	brhi	80006814 <fatfs_init+0x7c>
80006800:	30 19       	mov	r9,1
80006802:	f2 08 09 49 	lsl	r9,r9,r8
80006806:	12 9a       	mov	r10,r9
80006808:	e2 1a d8 60 	andl	r10,0xd860,COH
8000680c:	c0 91       	brne	8000681e <fatfs_init+0x86>
8000680e:	ed b9 00 00 	bld	r9,0x0
80006812:	c2 70       	breq	80006860 <fatfs_init+0xc8>
80006814:	30 69       	mov	r9,6
80006816:	f2 08 18 00 	cp.b	r8,r9
8000681a:	e0 8b 00 23 	brhi	80006860 <fatfs_init+0xc8>
8000681e:	ef 38 02 0c 	ld.ub	r8,r7[524]
80006822:	b1 68       	lsl	r8,0x10
80006824:	ef 3c 02 0d 	ld.ub	r12,r7[525]
80006828:	b9 6c       	lsl	r12,0x18
8000682a:	10 0c       	add	r12,r8
8000682c:	ef 38 02 0a 	ld.ub	r8,r7[522]
80006830:	10 0c       	add	r12,r8
80006832:	ef 38 02 0b 	ld.ub	r8,r7[523]
80006836:	a9 68       	lsl	r8,0x8
80006838:	10 0c       	add	r12,r8
8000683a:	8f 7c       	st.w	r7[0x1c],r12
8000683c:	0c 9b       	mov	r11,r6
8000683e:	6e d8       	ld.w	r8,r7[0x34]
80006840:	30 1a       	mov	r10,1
80006842:	5d 18       	icall	r8
80006844:	cb 90       	breq	800067b6 <fatfs_init+0x1e>
80006846:	ef 36 00 50 	ld.ub	r6,r7[80]
8000684a:	ef 3a 00 4f 	ld.ub	r10,r7[79]
8000684e:	ec 08 15 08 	lsl	r8,r6,0x8
80006852:	14 08       	add	r8,r10
80006854:	e0 48 02 00 	cp.w	r8,512
80006858:	c0 70       	breq	80006866 <fatfs_init+0xce>
8000685a:	3f ec       	mov	r12,-2
8000685c:	e3 cd 80 f8 	ldm	sp++,r3-r7,pc
80006860:	30 0c       	mov	r12,0
80006862:	8f 7c       	st.w	r7[0x1c],r12
80006864:	ce cb       	rjmp	8000683c <fatfs_init+0xa4>
80006866:	ef 38 00 51 	ld.ub	r8,r7[81]
8000686a:	ef 39 00 55 	ld.ub	r9,r7[85]
8000686e:	ae 88       	st.b	r7[0x0],r8
80006870:	ef 38 00 56 	ld.ub	r8,r7[86]
80006874:	a9 68       	lsl	r8,0x8
80006876:	f2 08 00 08 	add	r8,r9,r8
8000687a:	ef 58 00 28 	st.h	r7[40],r8
8000687e:	ef 39 00 5b 	ld.ub	r9,r7[91]
80006882:	ef 38 00 5a 	ld.ub	r8,r7[90]
80006886:	f2 05 15 08 	lsl	r5,r9,0x8
8000688a:	ef 3c 00 53 	ld.ub	r12,r7[83]
8000688e:	10 05       	add	r5,r8
80006890:	ef 3b 00 52 	ld.ub	r11,r7[82]
80006894:	ef 3e 00 54 	ld.ub	lr,r7[84]
80006898:	c1 01       	brne	800068b8 <fatfs_init+0x120>
8000689a:	ef 35 00 6a 	ld.ub	r5,r7[106]
8000689e:	b1 65       	lsl	r5,0x10
800068a0:	ef 34 00 6b 	ld.ub	r4,r7[107]
800068a4:	b9 64       	lsl	r4,0x18
800068a6:	0a 04       	add	r4,r5
800068a8:	ef 35 00 68 	ld.ub	r5,r7[104]
800068ac:	0a 04       	add	r4,r5
800068ae:	ef 35 00 69 	ld.ub	r5,r7[105]
800068b2:	a9 65       	lsl	r5,0x8
800068b4:	e8 05 00 05 	add	r5,r4,r5
800068b8:	8f 85       	st.w	r7[0x20],r5
800068ba:	ef 35 00 72 	ld.ub	r5,r7[114]
800068be:	b1 65       	lsl	r5,0x10
800068c0:	ef 34 00 73 	ld.ub	r4,r7[115]
800068c4:	b9 64       	lsl	r4,0x18
800068c6:	0a 04       	add	r4,r5
800068c8:	ef 35 00 70 	ld.ub	r5,r7[112]
800068cc:	0a 04       	add	r4,r5
800068ce:	ef 35 00 71 	ld.ub	r5,r7[113]
800068d2:	a9 65       	lsl	r5,0x8
800068d4:	e8 05 00 05 	add	r5,r4,r5
800068d8:	ef 13 00 28 	ld.uh	r3,r7[40]
800068dc:	ef 34 00 74 	ld.ub	r4,r7[116]
800068e0:	8f 25       	st.w	r7[0x8],r5
800068e2:	a5 73       	lsl	r3,0x5
800068e4:	ef 35 00 75 	ld.ub	r5,r7[117]
800068e8:	e6 c3 fe 01 	sub	r3,r3,-511
800068ec:	a9 65       	lsl	r5,0x8
800068ee:	a9 53       	asr	r3,0x9
800068f0:	e8 05 00 05 	add	r5,r4,r5
800068f4:	8f 43       	st.w	r7[0x10],r3
800068f6:	ef 55 00 18 	st.h	r7[24],r5
800068fa:	6e 84       	ld.w	r4,r7[0x20]
800068fc:	f8 05 15 08 	lsl	r5,r12,0x8
80006900:	fc 04 02 44 	mul	r4,lr,r4
80006904:	16 05       	add	r5,r11
80006906:	5c 75       	castu.h	r5
80006908:	ea 04 00 03 	add	r3,r5,r4
8000690c:	8f 33       	st.w	r7[0xc],r3
8000690e:	6e 73       	ld.w	r3,r7[0x1c]
80006910:	06 05       	add	r5,r3
80006912:	ea 04 00 04 	add	r4,r5,r4
80006916:	8f 55       	st.w	r7[0x14],r5
80006918:	8f 14       	st.w	r7[0x4],r4
8000691a:	ef 35 02 42 	ld.ub	r5,r7[578]
8000691e:	ef 34 02 43 	ld.ub	r4,r7[579]
80006922:	a9 64       	lsl	r4,0x8
80006924:	e8 05 00 05 	add	r5,r4,r5
80006928:	e0 45 aa 55 	cp.w	r5,43605
8000692c:	fe 91 ff 53 	brne	800067d2 <fatfs_init+0x3a>
80006930:	a9 69       	lsl	r9,0x8
80006932:	ef 33 00 56 	ld.ub	r3,r7[86]
80006936:	f2 08 00 05 	add	r5,r9,r8
8000693a:	ef 34 00 55 	ld.ub	r4,r7[85]
8000693e:	c0 f1       	brne	8000695c <fatfs_init+0x1c4>
80006940:	ef 38 00 6a 	ld.ub	r8,r7[106]
80006944:	b1 68       	lsl	r8,0x10
80006946:	ef 35 00 6b 	ld.ub	r5,r7[107]
8000694a:	b9 65       	lsl	r5,0x18
8000694c:	10 05       	add	r5,r8
8000694e:	ef 38 00 68 	ld.ub	r8,r7[104]
80006952:	10 05       	add	r5,r8
80006954:	ef 38 00 69 	ld.ub	r8,r7[105]
80006958:	a9 68       	lsl	r8,0x8
8000695a:	10 05       	add	r5,r8
8000695c:	ef 39 00 58 	ld.ub	r9,r7[88]
80006960:	ef 38 00 57 	ld.ub	r8,r7[87]
80006964:	a9 69       	lsl	r9,0x8
80006966:	10 09       	add	r9,r8
80006968:	c0 f1       	brne	80006986 <fatfs_init+0x1ee>
8000696a:	ef 38 00 66 	ld.ub	r8,r7[102]
8000696e:	b1 68       	lsl	r8,0x10
80006970:	ef 39 00 67 	ld.ub	r9,r7[103]
80006974:	b9 69       	lsl	r9,0x18
80006976:	10 09       	add	r9,r8
80006978:	ef 38 00 64 	ld.ub	r8,r7[100]
8000697c:	10 09       	add	r9,r8
8000697e:	ef 38 00 65 	ld.ub	r8,r7[101]
80006982:	a9 68       	lsl	r8,0x8
80006984:	10 09       	add	r9,r8
80006986:	0f 88       	ld.ub	r8,r7[0x0]
80006988:	58 08       	cp.w	r8,0
8000698a:	c0 41       	brne	80006992 <fatfs_init+0x1fa>
8000698c:	3f bc       	mov	r12,-5
8000698e:	e3 cd 80 f8 	ldm	sp++,r3-r7,pc
80006992:	a9 6c       	lsl	r12,0x8
80006994:	a9 66       	lsl	r6,0x8
80006996:	a9 63       	lsl	r3,0x8
80006998:	ec 0a 00 0a 	add	r10,r6,r10
8000699c:	e6 04 00 04 	add	r4,r3,r4
800069a0:	ea 0e 02 4e 	mul	lr,r5,lr
800069a4:	f8 0b 00 0b 	add	r11,r12,r11
800069a8:	f4 c5 00 01 	sub	r5,r10,1
800069ac:	e8 0c 15 05 	lsl	r12,r4,0x5
800069b0:	18 05       	add	r5,r12
800069b2:	ea 0a 0c 04 	divs	r4,r5,r10
800069b6:	e8 0a 11 00 	rsub	r10,r4,0
800069ba:	16 1a       	sub	r10,r11
800069bc:	1c 1a       	sub	r10,lr
800069be:	f4 09 00 09 	add	r9,r10,r9
800069c2:	f2 08 0d 08 	divu	r8,r9,r8
800069c6:	e0 48 0f f4 	cp.w	r8,4084
800069ca:	fe 98 ff e1 	brls	8000698c <fatfs_init+0x1f4>
800069ce:	e0 48 ff f4 	cp.w	r8,65524
800069d2:	f9 bc 08 00 	movls	r12,0
800069d6:	ef fc 8a 0c 	st.wls	r7[0x30],r12
800069da:	ef fc 8a 02 	st.wls	r7[0x8],r12
800069de:	f9 b8 0b 01 	movhi	r8,1
800069e2:	ef f8 ba 0c 	st.whi	r7[0x30],r8
800069e6:	f9 bc 0b 00 	movhi	r12,0
800069ea:	e3 cd 80 f8 	ldm	sp++,r3-r7,pc
800069ee:	d7 03       	nop

800069f0 <T.41>:
800069f0:	eb cd 40 f8 	pushm	r3-r7,lr
800069f4:	58 0b       	cp.w	r11,0
800069f6:	5f 09       	sreq	r9
800069f8:	78 c8       	ld.w	r8,r12[0x30]
800069fa:	18 97       	mov	r7,r12
800069fc:	58 08       	cp.w	r8,0
800069fe:	5f 08       	sreq	r8
80006a00:	14 94       	mov	r4,r10
80006a02:	f3 e8 00 08 	and	r8,r9,r8
80006a06:	c0 f0       	breq	80006a24 <T.41+0x34>
80006a08:	78 48       	ld.w	r8,r12[0x10]
80006a0a:	14 38       	cp.w	r8,r10
80006a0c:	e0 88 00 1d 	brls	80006a46 <T.41+0x56>
80006a10:	6e 78       	ld.w	r8,r7[0x1c]
80006a12:	78 3c       	ld.w	r12,r12[0xc]
80006a14:	10 0c       	add	r12,r8
80006a16:	ee f8 02 44 	ld.w	r8,r7[580]
80006a1a:	14 0c       	add	r12,r10
80006a1c:	10 3c       	cp.w	r12,r8
80006a1e:	c2 01       	brne	80006a5e <T.41+0x6e>
80006a20:	e3 cf 90 f8 	ldm	sp++,r3-r7,pc,r12=1
80006a24:	19 83       	ld.ub	r3,r12[0x0]
80006a26:	f4 03 0d 08 	divu	r8,r10,r3
80006a2a:	10 95       	mov	r5,r8
80006a2c:	58 08       	cp.w	r8,0
80006a2e:	c0 a0       	breq	80006a42 <T.41+0x52>
80006a30:	30 06       	mov	r6,0
80006a32:	0e 9c       	mov	r12,r7
80006a34:	2f f6       	sub	r6,-1
80006a36:	e0 a0 14 5b 	rcall	800092ec <fatfs_find_next_cluster>
80006a3a:	18 9b       	mov	r11,r12
80006a3c:	0c 35       	cp.w	r5,r6
80006a3e:	fe 9b ff fa 	brhi	80006a32 <T.41+0x42>
80006a42:	5b fb       	cp.w	r11,-1
80006a44:	c0 31       	brne	80006a4a <T.41+0x5a>
80006a46:	e3 cf 80 f8 	ldm	sp++,r3-r7,pc,r12=0
80006a4a:	0e 9c       	mov	r12,r7
80006a4c:	c7 8e       	rcall	8000673c <fatfs_lba_of_cluster>
80006a4e:	a7 35       	mul	r5,r3
80006a50:	ee f8 02 44 	ld.w	r8,r7[580]
80006a54:	0a 14       	sub	r4,r5
80006a56:	e8 0c 00 0c 	add	r12,r4,r12
80006a5a:	10 3c       	cp.w	r12,r8
80006a5c:	ce 20       	breq	80006a20 <T.41+0x30>
80006a5e:	ef 4c 02 44 	st.w	r7[580],r12
80006a62:	ee cb ff bc 	sub	r11,r7,-68
80006a66:	6e d8       	ld.w	r8,r7[0x34]
80006a68:	30 1a       	mov	r10,1
80006a6a:	5d 18       	icall	r8
80006a6c:	e3 cd 80 f8 	ldm	sp++,r3-r7,pc

80006a70 <fatfs_get_file_entry>:
80006a70:	d4 31       	pushm	r0-r7,lr
80006a72:	fa cd 01 28 	sub	sp,sp,296
80006a76:	18 97       	mov	r7,r12
80006a78:	50 1b       	stdsp	sp[0x4],r11
80006a7a:	14 96       	mov	r6,r10
80006a7c:	30 1b       	mov	r11,1
80006a7e:	50 39       	stdsp	sp[0xc],r9
80006a80:	fa c5 ff ee 	sub	r5,sp,-18
80006a84:	0a 9c       	mov	r12,r5
80006a86:	e0 a0 0e 4c 	rcall	8000871e <fatfs_lfn_cache_init>
80006a8a:	ee cb ff bc 	sub	r11,r7,-68
80006a8e:	30 04       	mov	r4,0
80006a90:	50 2b       	stdsp	sp[0x8],r11
80006a92:	08 9a       	mov	r10,r4
80006a94:	40 1b       	lddsp	r11,sp[0x4]
80006a96:	2f f4       	sub	r4,-1
80006a98:	0e 9c       	mov	r12,r7
80006a9a:	ca bf       	rcall	800069f0 <T.41>
80006a9c:	e0 80 00 90 	breq	80006bbc <fatfs_get_file_entry+0x14c>
80006aa0:	40 23       	lddsp	r3,sp[0x8]
80006aa2:	30 02       	mov	r2,0
80006aa4:	32 01       	mov	r1,32
80006aa6:	32 e0       	mov	r0,46
80006aa8:	c0 d8       	rjmp	80006ac2 <fatfs_get_file_entry+0x52>
80006aaa:	e4 cb ff bc 	sub	r11,r2,-68
80006aae:	0a 9c       	mov	r12,r5
80006ab0:	ee 0b 00 0b 	add	r11,r7,r11
80006ab4:	e0 a0 0c 68 	rcall	80008384 <fatfs_lfn_cache_entry>
80006ab8:	2e 03       	sub	r3,-32
80006aba:	2e 02       	sub	r2,-32
80006abc:	e0 42 02 00 	cp.w	r2,512
80006ac0:	ce 90       	breq	80006a92 <fatfs_get_file_entry+0x22>
80006ac2:	06 9c       	mov	r12,r3
80006ac4:	e0 a0 0d 47 	rcall	80008552 <fatfs_entry_lfn_text>
80006ac8:	18 9b       	mov	r11,r12
80006aca:	cf 01       	brne	80006aaa <fatfs_get_file_entry+0x3a>
80006acc:	50 0b       	stdsp	sp[0x0],r11
80006ace:	06 9c       	mov	r12,r3
80006ad0:	e0 a0 0d 48 	rcall	80008560 <fatfs_entry_lfn_invalid>
80006ad4:	40 0b       	lddsp	r11,sp[0x0]
80006ad6:	c6 01       	brne	80006b96 <fatfs_get_file_entry+0x126>
80006ad8:	06 9b       	mov	r11,r3
80006ada:	0a 9c       	mov	r12,r5
80006adc:	e0 a0 0d 5b 	rcall	80008592 <fatfs_entry_lfn_exists>
80006ae0:	18 98       	mov	r8,r12
80006ae2:	c0 d0       	breq	80006afc <fatfs_get_file_entry+0x8c>
80006ae4:	0a 9c       	mov	r12,r5
80006ae6:	e0 a0 0d 1f 	rcall	80008524 <fatfs_lfn_cache_get>
80006aea:	0c 9b       	mov	r11,r6
80006aec:	e0 a0 11 74 	rcall	80008dd4 <fatfs_compare_names>
80006af0:	c6 01       	brne	80006bb0 <fatfs_get_file_entry+0x140>
80006af2:	18 9b       	mov	r11,r12
80006af4:	0a 9c       	mov	r12,r5
80006af6:	e0 a0 0e 14 	rcall	8000871e <fatfs_lfn_cache_init>
80006afa:	cd fb       	rjmp	80006ab8 <fatfs_get_file_entry+0x48>
80006afc:	50 08       	stdsp	sp[0x0],r8
80006afe:	06 9c       	mov	r12,r3
80006b00:	e0 a0 0d 64 	rcall	800085c8 <fatfs_entry_sfn_only>
80006b04:	40 08       	lddsp	r8,sp[0x0]
80006b06:	cd 90       	breq	80006ab8 <fatfs_get_file_entry+0x48>
80006b08:	30 0a       	mov	r10,0
80006b0a:	30 0b       	mov	r11,0
80006b0c:	fa eb 01 18 	st.d	sp[280],r10
80006b10:	54 88       	stdsp	sp[0x120],r8
80006b12:	fb 68 01 24 	st.b	sp[292],r8
80006b16:	07 88       	ld.ub	r8,r3[0x0]
80006b18:	fb 68 01 18 	st.b	sp[280],r8
80006b1c:	07 99       	ld.ub	r9,r3[0x1]
80006b1e:	fb 69 01 19 	st.b	sp[281],r9
80006b22:	07 a9       	ld.ub	r9,r3[0x2]
80006b24:	fb 69 01 1a 	st.b	sp[282],r9
80006b28:	07 b9       	ld.ub	r9,r3[0x3]
80006b2a:	fb 69 01 1b 	st.b	sp[283],r9
80006b2e:	07 c9       	ld.ub	r9,r3[0x4]
80006b30:	fb 69 01 1c 	st.b	sp[284],r9
80006b34:	07 d9       	ld.ub	r9,r3[0x5]
80006b36:	fb 69 01 1d 	st.b	sp[285],r9
80006b3a:	07 e9       	ld.ub	r9,r3[0x6]
80006b3c:	fb 69 01 1e 	st.b	sp[286],r9
80006b40:	07 f9       	ld.ub	r9,r3[0x7]
80006b42:	fb 69 01 1f 	st.b	sp[287],r9
80006b46:	e7 39 00 08 	ld.ub	r9,r3[8]
80006b4a:	fb 69 01 21 	st.b	sp[289],r9
80006b4e:	e7 39 00 09 	ld.ub	r9,r3[9]
80006b52:	e7 3a 00 08 	ld.ub	r10,r3[8]
80006b56:	fb 69 01 22 	st.b	sp[290],r9
80006b5a:	e7 39 00 09 	ld.ub	r9,r3[9]
80006b5e:	e2 09 18 00 	cp.b	r9,r1
80006b62:	c1 e0       	breq	80006b9e <fatfs_get_file_entry+0x12e>
80006b64:	30 1b       	mov	r11,1
80006b66:	e7 39 00 0a 	ld.ub	r9,r3[10]
80006b6a:	fb 69 01 23 	st.b	sp[291],r9
80006b6e:	e7 39 00 0a 	ld.ub	r9,r3[10]
80006b72:	e2 09 18 00 	cp.b	r9,r1
80006b76:	c1 80       	breq	80006ba6 <fatfs_get_file_entry+0x136>
80006b78:	f0 00 18 00 	cp.b	r0,r8
80006b7c:	e2 09 17 00 	moveq	r9,r1
80006b80:	e0 09 17 10 	movne	r9,r0
80006b84:	fb 69 01 20 	st.b	sp[288],r9
80006b88:	0c 9b       	mov	r11,r6
80006b8a:	fa cc fe e8 	sub	r12,sp,-280
80006b8e:	e0 a0 11 23 	rcall	80008dd4 <fatfs_compare_names>
80006b92:	c0 f1       	brne	80006bb0 <fatfs_get_file_entry+0x140>
80006b94:	18 9b       	mov	r11,r12
80006b96:	0a 9c       	mov	r12,r5
80006b98:	e0 a0 0d c3 	rcall	8000871e <fatfs_lfn_cache_init>
80006b9c:	c8 eb       	rjmp	80006ab8 <fatfs_get_file_entry+0x48>
80006b9e:	e2 0a 18 00 	cp.b	r10,r1
80006ba2:	5f 1b       	srne	r11
80006ba4:	ce 1b       	rjmp	80006b66 <fatfs_get_file_entry+0xf6>
80006ba6:	58 0b       	cp.w	r11,0
80006ba8:	ce 81       	brne	80006b78 <fatfs_get_file_entry+0x108>
80006baa:	fb 69 01 20 	st.b	sp[288],r9
80006bae:	ce db       	rjmp	80006b88 <fatfs_get_file_entry+0x118>
80006bb0:	06 9b       	mov	r11,r3
80006bb2:	40 3c       	lddsp	r12,sp[0xc]
80006bb4:	32 0a       	mov	r10,32
80006bb6:	e0 a0 1e 41 	rcall	8000a838 <memcpy>
80006bba:	30 1c       	mov	r12,1
80006bbc:	2b 6d       	sub	sp,-296
80006bbe:	d8 32       	popm	r0-r7,pc

80006bc0 <fatfs_sfn_exists>:
80006bc0:	d4 31       	pushm	r0-r7,lr
80006bc2:	20 6d       	sub	sp,24
80006bc4:	f8 c8 fe fc 	sub	r8,r12,-260
80006bc8:	50 18       	stdsp	sp[0x4],r8
80006bca:	f8 c8 fe dc 	sub	r8,r12,-292
80006bce:	18 95       	mov	r5,r12
80006bd0:	50 28       	stdsp	sp[0x8],r8
80006bd2:	50 4b       	stdsp	sp[0x10],r11
80006bd4:	f8 c8 fe bc 	sub	r8,r12,-324
80006bd8:	50 5a       	stdsp	sp[0x14],r10
80006bda:	f8 c7 ff bc 	sub	r7,r12,-68
80006bde:	30 06       	mov	r6,0
80006be0:	f8 c2 ff 9c 	sub	r2,r12,-100
80006be4:	f8 c3 ff 7c 	sub	r3,r12,-132
80006be8:	f8 c4 ff 5c 	sub	r4,r12,-164
80006bec:	f8 c1 ff 3c 	sub	r1,r12,-196
80006bf0:	f8 c0 ff 1c 	sub	r0,r12,-228
80006bf4:	50 38       	stdsp	sp[0xc],r8
80006bf6:	0c 9a       	mov	r10,r6
80006bf8:	40 4b       	lddsp	r11,sp[0x10]
80006bfa:	2f f6       	sub	r6,-1
80006bfc:	0a 9c       	mov	r12,r5
80006bfe:	cf 9e       	rcall	800069f0 <T.41>
80006c00:	c7 10       	breq	80006ce2 <fatfs_sfn_exists+0x122>
80006c02:	0e 9c       	mov	r12,r7
80006c04:	e0 a0 0c a7 	rcall	80008552 <fatfs_entry_lfn_text>
80006c08:	e0 80 00 fd 	breq	80006e02 <fatfs_sfn_exists+0x242>
80006c0c:	04 9c       	mov	r12,r2
80006c0e:	e0 a0 0c a2 	rcall	80008552 <fatfs_entry_lfn_text>
80006c12:	e0 80 00 e5 	breq	80006ddc <fatfs_sfn_exists+0x21c>
80006c16:	06 9c       	mov	r12,r3
80006c18:	e0 a0 0c 9d 	rcall	80008552 <fatfs_entry_lfn_text>
80006c1c:	e0 80 00 cd 	breq	80006db6 <fatfs_sfn_exists+0x1f6>
80006c20:	08 9c       	mov	r12,r4
80006c22:	e0 a0 0c 98 	rcall	80008552 <fatfs_entry_lfn_text>
80006c26:	e0 80 00 b5 	breq	80006d90 <fatfs_sfn_exists+0x1d0>
80006c2a:	02 9c       	mov	r12,r1
80006c2c:	e0 a0 0c 93 	rcall	80008552 <fatfs_entry_lfn_text>
80006c30:	e0 80 00 9d 	breq	80006d6a <fatfs_sfn_exists+0x1aa>
80006c34:	00 9c       	mov	r12,r0
80006c36:	e0 a0 0c 8e 	rcall	80008552 <fatfs_entry_lfn_text>
80006c3a:	e0 80 00 85 	breq	80006d44 <fatfs_sfn_exists+0x184>
80006c3e:	40 1c       	lddsp	r12,sp[0x4]
80006c40:	e0 a0 0c 89 	rcall	80008552 <fatfs_entry_lfn_text>
80006c44:	c7 00       	breq	80006d24 <fatfs_sfn_exists+0x164>
80006c46:	40 2c       	lddsp	r12,sp[0x8]
80006c48:	e0 a0 0c 85 	rcall	80008552 <fatfs_entry_lfn_text>
80006c4c:	c5 c0       	breq	80006d04 <fatfs_sfn_exists+0x144>
80006c4e:	40 3c       	lddsp	r12,sp[0xc]
80006c50:	e0 a0 0c 81 	rcall	80008552 <fatfs_entry_lfn_text>
80006c54:	c4 90       	breq	80006ce6 <fatfs_sfn_exists+0x126>
80006c56:	ee c8 fe e0 	sub	r8,r7,-288
80006c5a:	50 08       	stdsp	sp[0x0],r8
80006c5c:	10 9c       	mov	r12,r8
80006c5e:	e0 a0 0c 7a 	rcall	80008552 <fatfs_entry_lfn_text>
80006c62:	e0 80 00 f5 	breq	80006e4c <fatfs_sfn_exists+0x28c>
80006c66:	ee c8 fe c0 	sub	r8,r7,-320
80006c6a:	50 08       	stdsp	sp[0x0],r8
80006c6c:	10 9c       	mov	r12,r8
80006c6e:	e0 a0 0c 72 	rcall	80008552 <fatfs_entry_lfn_text>
80006c72:	e0 80 00 db 	breq	80006e28 <fatfs_sfn_exists+0x268>
80006c76:	ee c8 fe a0 	sub	r8,r7,-352
80006c7a:	50 08       	stdsp	sp[0x0],r8
80006c7c:	10 9c       	mov	r12,r8
80006c7e:	e0 a0 0c 6a 	rcall	80008552 <fatfs_entry_lfn_text>
80006c82:	e0 80 01 31 	breq	80006ee4 <fatfs_sfn_exists+0x324>
80006c86:	ee c8 fe 80 	sub	r8,r7,-384
80006c8a:	50 08       	stdsp	sp[0x0],r8
80006c8c:	10 9c       	mov	r12,r8
80006c8e:	e0 a0 0c 62 	rcall	80008552 <fatfs_entry_lfn_text>
80006c92:	e0 80 01 16 	breq	80006ebe <fatfs_sfn_exists+0x2fe>
80006c96:	ee c8 fe 60 	sub	r8,r7,-416
80006c9a:	50 08       	stdsp	sp[0x0],r8
80006c9c:	10 9c       	mov	r12,r8
80006c9e:	e0 a0 0c 5a 	rcall	80008552 <fatfs_entry_lfn_text>
80006ca2:	e0 80 00 fb 	breq	80006e98 <fatfs_sfn_exists+0x2d8>
80006ca6:	ee c8 fe 40 	sub	r8,r7,-448
80006caa:	50 08       	stdsp	sp[0x0],r8
80006cac:	10 9c       	mov	r12,r8
80006cae:	e0 a0 0c 52 	rcall	80008552 <fatfs_entry_lfn_text>
80006cb2:	e0 80 00 e0 	breq	80006e72 <fatfs_sfn_exists+0x2b2>
80006cb6:	ee c8 fe 20 	sub	r8,r7,-480
80006cba:	50 08       	stdsp	sp[0x0],r8
80006cbc:	10 9c       	mov	r12,r8
80006cbe:	e0 a0 0c 4a 	rcall	80008552 <fatfs_entry_lfn_text>
80006cc2:	c9 a1       	brne	80006bf6 <fatfs_sfn_exists+0x36>
80006cc4:	40 0c       	lddsp	r12,sp[0x0]
80006cc6:	e0 a0 0c 4d 	rcall	80008560 <fatfs_entry_lfn_invalid>
80006cca:	c9 61       	brne	80006bf6 <fatfs_sfn_exists+0x36>
80006ccc:	40 0c       	lddsp	r12,sp[0x0]
80006cce:	e0 a0 0c 7d 	rcall	800085c8 <fatfs_entry_sfn_only>
80006cd2:	c9 20       	breq	80006bf6 <fatfs_sfn_exists+0x36>
80006cd4:	40 0c       	lddsp	r12,sp[0x0]
80006cd6:	30 ba       	mov	r10,11
80006cd8:	40 5b       	lddsp	r11,sp[0x14]
80006cda:	e0 a0 1e da 	rcall	8000aa8e <strncmp>
80006cde:	c8 c1       	brne	80006bf6 <fatfs_sfn_exists+0x36>
80006ce0:	30 1c       	mov	r12,1
80006ce2:	2f ad       	sub	sp,-24
80006ce4:	d8 32       	popm	r0-r7,pc
80006ce6:	40 3c       	lddsp	r12,sp[0xc]
80006ce8:	e0 a0 0c 3c 	rcall	80008560 <fatfs_entry_lfn_invalid>
80006cec:	cb 51       	brne	80006c56 <fatfs_sfn_exists+0x96>
80006cee:	40 3c       	lddsp	r12,sp[0xc]
80006cf0:	e0 a0 0c 6c 	rcall	800085c8 <fatfs_entry_sfn_only>
80006cf4:	cb 10       	breq	80006c56 <fatfs_sfn_exists+0x96>
80006cf6:	30 ba       	mov	r10,11
80006cf8:	40 5b       	lddsp	r11,sp[0x14]
80006cfa:	40 3c       	lddsp	r12,sp[0xc]
80006cfc:	e0 a0 1e c9 	rcall	8000aa8e <strncmp>
80006d00:	ca b1       	brne	80006c56 <fatfs_sfn_exists+0x96>
80006d02:	ce fb       	rjmp	80006ce0 <fatfs_sfn_exists+0x120>
80006d04:	40 2c       	lddsp	r12,sp[0x8]
80006d06:	e0 a0 0c 2d 	rcall	80008560 <fatfs_entry_lfn_invalid>
80006d0a:	ca 21       	brne	80006c4e <fatfs_sfn_exists+0x8e>
80006d0c:	40 2c       	lddsp	r12,sp[0x8]
80006d0e:	e0 a0 0c 5d 	rcall	800085c8 <fatfs_entry_sfn_only>
80006d12:	c9 e0       	breq	80006c4e <fatfs_sfn_exists+0x8e>
80006d14:	30 ba       	mov	r10,11
80006d16:	40 5b       	lddsp	r11,sp[0x14]
80006d18:	40 2c       	lddsp	r12,sp[0x8]
80006d1a:	e0 a0 1e ba 	rcall	8000aa8e <strncmp>
80006d1e:	c9 81       	brne	80006c4e <fatfs_sfn_exists+0x8e>
80006d20:	30 1c       	mov	r12,1
80006d22:	ce 0b       	rjmp	80006ce2 <fatfs_sfn_exists+0x122>
80006d24:	40 1c       	lddsp	r12,sp[0x4]
80006d26:	e0 a0 0c 1d 	rcall	80008560 <fatfs_entry_lfn_invalid>
80006d2a:	c8 e1       	brne	80006c46 <fatfs_sfn_exists+0x86>
80006d2c:	40 1c       	lddsp	r12,sp[0x4]
80006d2e:	e0 a0 0c 4d 	rcall	800085c8 <fatfs_entry_sfn_only>
80006d32:	c8 a0       	breq	80006c46 <fatfs_sfn_exists+0x86>
80006d34:	30 ba       	mov	r10,11
80006d36:	40 5b       	lddsp	r11,sp[0x14]
80006d38:	40 1c       	lddsp	r12,sp[0x4]
80006d3a:	e0 a0 1e aa 	rcall	8000aa8e <strncmp>
80006d3e:	c8 41       	brne	80006c46 <fatfs_sfn_exists+0x86>
80006d40:	30 1c       	mov	r12,1
80006d42:	cd 0b       	rjmp	80006ce2 <fatfs_sfn_exists+0x122>
80006d44:	00 9c       	mov	r12,r0
80006d46:	e0 a0 0c 0d 	rcall	80008560 <fatfs_entry_lfn_invalid>
80006d4a:	fe 91 ff 7a 	brne	80006c3e <fatfs_sfn_exists+0x7e>
80006d4e:	00 9c       	mov	r12,r0
80006d50:	e0 a0 0c 3c 	rcall	800085c8 <fatfs_entry_sfn_only>
80006d54:	fe 90 ff 75 	breq	80006c3e <fatfs_sfn_exists+0x7e>
80006d58:	30 ba       	mov	r10,11
80006d5a:	40 5b       	lddsp	r11,sp[0x14]
80006d5c:	00 9c       	mov	r12,r0
80006d5e:	e0 a0 1e 98 	rcall	8000aa8e <strncmp>
80006d62:	fe 91 ff 6e 	brne	80006c3e <fatfs_sfn_exists+0x7e>
80006d66:	30 1c       	mov	r12,1
80006d68:	cb db       	rjmp	80006ce2 <fatfs_sfn_exists+0x122>
80006d6a:	02 9c       	mov	r12,r1
80006d6c:	e0 a0 0b fa 	rcall	80008560 <fatfs_entry_lfn_invalid>
80006d70:	fe 91 ff 62 	brne	80006c34 <fatfs_sfn_exists+0x74>
80006d74:	02 9c       	mov	r12,r1
80006d76:	e0 a0 0c 29 	rcall	800085c8 <fatfs_entry_sfn_only>
80006d7a:	fe 90 ff 5d 	breq	80006c34 <fatfs_sfn_exists+0x74>
80006d7e:	30 ba       	mov	r10,11
80006d80:	40 5b       	lddsp	r11,sp[0x14]
80006d82:	02 9c       	mov	r12,r1
80006d84:	e0 a0 1e 85 	rcall	8000aa8e <strncmp>
80006d88:	fe 91 ff 56 	brne	80006c34 <fatfs_sfn_exists+0x74>
80006d8c:	30 1c       	mov	r12,1
80006d8e:	ca ab       	rjmp	80006ce2 <fatfs_sfn_exists+0x122>
80006d90:	08 9c       	mov	r12,r4
80006d92:	e0 a0 0b e7 	rcall	80008560 <fatfs_entry_lfn_invalid>
80006d96:	fe 91 ff 4a 	brne	80006c2a <fatfs_sfn_exists+0x6a>
80006d9a:	08 9c       	mov	r12,r4
80006d9c:	e0 a0 0c 16 	rcall	800085c8 <fatfs_entry_sfn_only>
80006da0:	fe 90 ff 45 	breq	80006c2a <fatfs_sfn_exists+0x6a>
80006da4:	30 ba       	mov	r10,11
80006da6:	40 5b       	lddsp	r11,sp[0x14]
80006da8:	08 9c       	mov	r12,r4
80006daa:	e0 a0 1e 72 	rcall	8000aa8e <strncmp>
80006dae:	fe 91 ff 3e 	brne	80006c2a <fatfs_sfn_exists+0x6a>
80006db2:	30 1c       	mov	r12,1
80006db4:	c9 7b       	rjmp	80006ce2 <fatfs_sfn_exists+0x122>
80006db6:	06 9c       	mov	r12,r3
80006db8:	e0 a0 0b d4 	rcall	80008560 <fatfs_entry_lfn_invalid>
80006dbc:	fe 91 ff 32 	brne	80006c20 <fatfs_sfn_exists+0x60>
80006dc0:	06 9c       	mov	r12,r3
80006dc2:	e0 a0 0c 03 	rcall	800085c8 <fatfs_entry_sfn_only>
80006dc6:	fe 90 ff 2d 	breq	80006c20 <fatfs_sfn_exists+0x60>
80006dca:	30 ba       	mov	r10,11
80006dcc:	40 5b       	lddsp	r11,sp[0x14]
80006dce:	06 9c       	mov	r12,r3
80006dd0:	e0 a0 1e 5f 	rcall	8000aa8e <strncmp>
80006dd4:	fe 91 ff 26 	brne	80006c20 <fatfs_sfn_exists+0x60>
80006dd8:	30 1c       	mov	r12,1
80006dda:	c8 4b       	rjmp	80006ce2 <fatfs_sfn_exists+0x122>
80006ddc:	04 9c       	mov	r12,r2
80006dde:	e0 a0 0b c1 	rcall	80008560 <fatfs_entry_lfn_invalid>
80006de2:	fe 91 ff 1a 	brne	80006c16 <fatfs_sfn_exists+0x56>
80006de6:	04 9c       	mov	r12,r2
80006de8:	e0 a0 0b f0 	rcall	800085c8 <fatfs_entry_sfn_only>
80006dec:	fe 90 ff 15 	breq	80006c16 <fatfs_sfn_exists+0x56>
80006df0:	30 ba       	mov	r10,11
80006df2:	40 5b       	lddsp	r11,sp[0x14]
80006df4:	04 9c       	mov	r12,r2
80006df6:	e0 a0 1e 4c 	rcall	8000aa8e <strncmp>
80006dfa:	fe 91 ff 0e 	brne	80006c16 <fatfs_sfn_exists+0x56>
80006dfe:	30 1c       	mov	r12,1
80006e00:	c7 1b       	rjmp	80006ce2 <fatfs_sfn_exists+0x122>
80006e02:	0e 9c       	mov	r12,r7
80006e04:	e0 a0 0b ae 	rcall	80008560 <fatfs_entry_lfn_invalid>
80006e08:	fe 91 ff 02 	brne	80006c0c <fatfs_sfn_exists+0x4c>
80006e0c:	0e 9c       	mov	r12,r7
80006e0e:	e0 a0 0b dd 	rcall	800085c8 <fatfs_entry_sfn_only>
80006e12:	fe 90 fe fd 	breq	80006c0c <fatfs_sfn_exists+0x4c>
80006e16:	30 ba       	mov	r10,11
80006e18:	40 5b       	lddsp	r11,sp[0x14]
80006e1a:	0e 9c       	mov	r12,r7
80006e1c:	e0 a0 1e 39 	rcall	8000aa8e <strncmp>
80006e20:	fe 91 fe f6 	brne	80006c0c <fatfs_sfn_exists+0x4c>
80006e24:	30 1c       	mov	r12,1
80006e26:	c5 eb       	rjmp	80006ce2 <fatfs_sfn_exists+0x122>
80006e28:	40 0c       	lddsp	r12,sp[0x0]
80006e2a:	e0 a0 0b 9b 	rcall	80008560 <fatfs_entry_lfn_invalid>
80006e2e:	fe 91 ff 24 	brne	80006c76 <fatfs_sfn_exists+0xb6>
80006e32:	40 0c       	lddsp	r12,sp[0x0]
80006e34:	e0 a0 0b ca 	rcall	800085c8 <fatfs_entry_sfn_only>
80006e38:	fe 90 ff 1f 	breq	80006c76 <fatfs_sfn_exists+0xb6>
80006e3c:	40 0c       	lddsp	r12,sp[0x0]
80006e3e:	30 ba       	mov	r10,11
80006e40:	40 5b       	lddsp	r11,sp[0x14]
80006e42:	e0 a0 1e 26 	rcall	8000aa8e <strncmp>
80006e46:	fe 91 ff 18 	brne	80006c76 <fatfs_sfn_exists+0xb6>
80006e4a:	c4 bb       	rjmp	80006ce0 <fatfs_sfn_exists+0x120>
80006e4c:	40 0c       	lddsp	r12,sp[0x0]
80006e4e:	e0 a0 0b 89 	rcall	80008560 <fatfs_entry_lfn_invalid>
80006e52:	fe 91 ff 0a 	brne	80006c66 <fatfs_sfn_exists+0xa6>
80006e56:	40 0c       	lddsp	r12,sp[0x0]
80006e58:	e0 a0 0b b8 	rcall	800085c8 <fatfs_entry_sfn_only>
80006e5c:	fe 90 ff 05 	breq	80006c66 <fatfs_sfn_exists+0xa6>
80006e60:	40 0c       	lddsp	r12,sp[0x0]
80006e62:	30 ba       	mov	r10,11
80006e64:	40 5b       	lddsp	r11,sp[0x14]
80006e66:	e0 a0 1e 14 	rcall	8000aa8e <strncmp>
80006e6a:	fe 91 fe fe 	brne	80006c66 <fatfs_sfn_exists+0xa6>
80006e6e:	30 1c       	mov	r12,1
80006e70:	c3 9b       	rjmp	80006ce2 <fatfs_sfn_exists+0x122>
80006e72:	40 0c       	lddsp	r12,sp[0x0]
80006e74:	e0 a0 0b 76 	rcall	80008560 <fatfs_entry_lfn_invalid>
80006e78:	fe 91 ff 1f 	brne	80006cb6 <fatfs_sfn_exists+0xf6>
80006e7c:	40 0c       	lddsp	r12,sp[0x0]
80006e7e:	e0 a0 0b a5 	rcall	800085c8 <fatfs_entry_sfn_only>
80006e82:	fe 90 ff 1a 	breq	80006cb6 <fatfs_sfn_exists+0xf6>
80006e86:	40 0c       	lddsp	r12,sp[0x0]
80006e88:	30 ba       	mov	r10,11
80006e8a:	40 5b       	lddsp	r11,sp[0x14]
80006e8c:	e0 a0 1e 01 	rcall	8000aa8e <strncmp>
80006e90:	fe 91 ff 13 	brne	80006cb6 <fatfs_sfn_exists+0xf6>
80006e94:	30 1c       	mov	r12,1
80006e96:	c2 6b       	rjmp	80006ce2 <fatfs_sfn_exists+0x122>
80006e98:	40 0c       	lddsp	r12,sp[0x0]
80006e9a:	e0 a0 0b 63 	rcall	80008560 <fatfs_entry_lfn_invalid>
80006e9e:	fe 91 ff 04 	brne	80006ca6 <fatfs_sfn_exists+0xe6>
80006ea2:	40 0c       	lddsp	r12,sp[0x0]
80006ea4:	e0 a0 0b 92 	rcall	800085c8 <fatfs_entry_sfn_only>
80006ea8:	fe 90 fe ff 	breq	80006ca6 <fatfs_sfn_exists+0xe6>
80006eac:	40 0c       	lddsp	r12,sp[0x0]
80006eae:	30 ba       	mov	r10,11
80006eb0:	40 5b       	lddsp	r11,sp[0x14]
80006eb2:	e0 a0 1d ee 	rcall	8000aa8e <strncmp>
80006eb6:	fe 91 fe f8 	brne	80006ca6 <fatfs_sfn_exists+0xe6>
80006eba:	30 1c       	mov	r12,1
80006ebc:	c1 3b       	rjmp	80006ce2 <fatfs_sfn_exists+0x122>
80006ebe:	40 0c       	lddsp	r12,sp[0x0]
80006ec0:	e0 a0 0b 50 	rcall	80008560 <fatfs_entry_lfn_invalid>
80006ec4:	fe 91 fe e9 	brne	80006c96 <fatfs_sfn_exists+0xd6>
80006ec8:	40 0c       	lddsp	r12,sp[0x0]
80006eca:	e0 a0 0b 7f 	rcall	800085c8 <fatfs_entry_sfn_only>
80006ece:	fe 90 fe e4 	breq	80006c96 <fatfs_sfn_exists+0xd6>
80006ed2:	40 0c       	lddsp	r12,sp[0x0]
80006ed4:	30 ba       	mov	r10,11
80006ed6:	40 5b       	lddsp	r11,sp[0x14]
80006ed8:	e0 a0 1d db 	rcall	8000aa8e <strncmp>
80006edc:	fe 91 fe dd 	brne	80006c96 <fatfs_sfn_exists+0xd6>
80006ee0:	30 1c       	mov	r12,1
80006ee2:	c0 0b       	rjmp	80006ce2 <fatfs_sfn_exists+0x122>
80006ee4:	40 0c       	lddsp	r12,sp[0x0]
80006ee6:	e0 a0 0b 3d 	rcall	80008560 <fatfs_entry_lfn_invalid>
80006eea:	fe 91 fe ce 	brne	80006c86 <fatfs_sfn_exists+0xc6>
80006eee:	40 0c       	lddsp	r12,sp[0x0]
80006ef0:	e0 a0 0b 6c 	rcall	800085c8 <fatfs_entry_sfn_only>
80006ef4:	fe 90 fe c9 	breq	80006c86 <fatfs_sfn_exists+0xc6>
80006ef8:	40 0c       	lddsp	r12,sp[0x0]
80006efa:	30 ba       	mov	r10,11
80006efc:	40 5b       	lddsp	r11,sp[0x14]
80006efe:	e0 a0 1d c8 	rcall	8000aa8e <strncmp>
80006f02:	fe 91 fe c2 	brne	80006c86 <fatfs_sfn_exists+0xc6>
80006f06:	30 1c       	mov	r12,1
80006f08:	ce da       	rjmp	80006ce2 <fatfs_sfn_exists+0x122>
80006f0a:	d7 03       	nop

80006f0c <fatfs_update_file_length>:
80006f0c:	d4 31       	pushm	r0-r7,lr
80006f0e:	20 8d       	sub	sp,32
80006f10:	50 4b       	stdsp	sp[0x10],r11
80006f12:	50 5a       	stdsp	sp[0x14],r10
80006f14:	50 79       	stdsp	sp[0x1c],r9
80006f16:	18 97       	mov	r7,r12
80006f18:	78 e8       	ld.w	r8,r12[0x38]
80006f1a:	58 08       	cp.w	r8,0
80006f1c:	e0 80 01 f4 	breq	80007304 <fatfs_update_file_length+0x3f8>
80006f20:	f8 ce ff 1c 	sub	lr,r12,-228
80006f24:	f8 c6 ff bc 	sub	r6,r12,-68
80006f28:	50 0e       	stdsp	sp[0x0],lr
80006f2a:	f8 c9 fe fc 	sub	r9,r12,-260
80006f2e:	f8 c8 fe dc 	sub	r8,r12,-292
80006f32:	f8 ce fe bc 	sub	lr,r12,-324
80006f36:	30 05       	mov	r5,0
80006f38:	50 66       	stdsp	sp[0x18],r6
80006f3a:	f8 c2 ff 9c 	sub	r2,r12,-100
80006f3e:	f8 c3 ff 7c 	sub	r3,r12,-132
80006f42:	f8 c1 ff 5c 	sub	r1,r12,-164
80006f46:	f8 c0 ff 3c 	sub	r0,r12,-196
80006f4a:	50 19       	stdsp	sp[0x4],r9
80006f4c:	50 28       	stdsp	sp[0x8],r8
80006f4e:	50 3e       	stdsp	sp[0xc],lr
80006f50:	0a 9a       	mov	r10,r5
80006f52:	40 4b       	lddsp	r11,sp[0x10]
80006f54:	2f f5       	sub	r5,-1
80006f56:	0e 9c       	mov	r12,r7
80006f58:	fe b0 fd 4c 	rcall	800069f0 <T.41>
80006f5c:	e0 80 01 d4 	breq	80007304 <fatfs_update_file_length+0x3f8>
80006f60:	0c 9c       	mov	r12,r6
80006f62:	e0 a0 0a f8 	rcall	80008552 <fatfs_entry_lfn_text>
80006f66:	e0 80 01 3c 	breq	800071de <fatfs_update_file_length+0x2d2>
80006f6a:	04 9c       	mov	r12,r2
80006f6c:	e0 a0 0a f3 	rcall	80008552 <fatfs_entry_lfn_text>
80006f70:	e0 80 01 23 	breq	800071b6 <fatfs_update_file_length+0x2aa>
80006f74:	06 9c       	mov	r12,r3
80006f76:	e0 a0 0a ee 	rcall	80008552 <fatfs_entry_lfn_text>
80006f7a:	e0 80 01 0a 	breq	8000718e <fatfs_update_file_length+0x282>
80006f7e:	02 9c       	mov	r12,r1
80006f80:	e0 a0 0a e9 	rcall	80008552 <fatfs_entry_lfn_text>
80006f84:	e0 80 00 f1 	breq	80007166 <fatfs_update_file_length+0x25a>
80006f88:	00 9c       	mov	r12,r0
80006f8a:	e0 a0 0a e4 	rcall	80008552 <fatfs_entry_lfn_text>
80006f8e:	e0 80 00 d7 	breq	8000713c <fatfs_update_file_length+0x230>
80006f92:	40 0c       	lddsp	r12,sp[0x0]
80006f94:	e0 a0 0a df 	rcall	80008552 <fatfs_entry_lfn_text>
80006f98:	e0 80 00 bc 	breq	80007110 <fatfs_update_file_length+0x204>
80006f9c:	40 1c       	lddsp	r12,sp[0x4]
80006f9e:	e0 a0 0a da 	rcall	80008552 <fatfs_entry_lfn_text>
80006fa2:	e0 80 00 a1 	breq	800070e4 <fatfs_update_file_length+0x1d8>
80006fa6:	40 2c       	lddsp	r12,sp[0x8]
80006fa8:	e0 a0 0a d5 	rcall	80008552 <fatfs_entry_lfn_text>
80006fac:	e0 80 00 86 	breq	800070b8 <fatfs_update_file_length+0x1ac>
80006fb0:	40 3c       	lddsp	r12,sp[0xc]
80006fb2:	e0 a0 0a d0 	rcall	80008552 <fatfs_entry_lfn_text>
80006fb6:	c6 e0       	breq	80007092 <fatfs_update_file_length+0x186>
80006fb8:	ec c4 fe e0 	sub	r4,r6,-288
80006fbc:	08 9c       	mov	r12,r4
80006fbe:	e0 a0 0a ca 	rcall	80008552 <fatfs_entry_lfn_text>
80006fc2:	e0 80 01 35 	breq	8000722c <fatfs_update_file_length+0x320>
80006fc6:	ec c4 fe c0 	sub	r4,r6,-320
80006fca:	08 9c       	mov	r12,r4
80006fcc:	e0 a0 0a c3 	rcall	80008552 <fatfs_entry_lfn_text>
80006fd0:	e0 80 01 19 	breq	80007202 <fatfs_update_file_length+0x2f6>
80006fd4:	ec c4 fe a0 	sub	r4,r6,-352
80006fd8:	08 9c       	mov	r12,r4
80006fda:	e0 a0 0a bc 	rcall	80008552 <fatfs_entry_lfn_text>
80006fde:	e0 80 01 7d 	breq	800072d8 <fatfs_update_file_length+0x3cc>
80006fe2:	ec c4 fe 80 	sub	r4,r6,-384
80006fe6:	08 9c       	mov	r12,r4
80006fe8:	e0 a0 0a b5 	rcall	80008552 <fatfs_entry_lfn_text>
80006fec:	e0 80 01 60 	breq	800072ac <fatfs_update_file_length+0x3a0>
80006ff0:	ec c4 fe 60 	sub	r4,r6,-416
80006ff4:	08 9c       	mov	r12,r4
80006ff6:	e0 a0 0a ae 	rcall	80008552 <fatfs_entry_lfn_text>
80006ffa:	e0 80 01 43 	breq	80007280 <fatfs_update_file_length+0x374>
80006ffe:	ec c4 fe 40 	sub	r4,r6,-448
80007002:	08 9c       	mov	r12,r4
80007004:	e0 a0 0a a7 	rcall	80008552 <fatfs_entry_lfn_text>
80007008:	e0 80 01 27 	breq	80007256 <fatfs_update_file_length+0x34a>
8000700c:	ec c4 fe 20 	sub	r4,r6,-480
80007010:	08 9c       	mov	r12,r4
80007012:	e0 a0 0a a0 	rcall	80008552 <fatfs_entry_lfn_text>
80007016:	c9 d1       	brne	80006f50 <fatfs_update_file_length+0x44>
80007018:	08 9c       	mov	r12,r4
8000701a:	e0 a0 0a a3 	rcall	80008560 <fatfs_entry_lfn_invalid>
8000701e:	c9 91       	brne	80006f50 <fatfs_update_file_length+0x44>
80007020:	08 9c       	mov	r12,r4
80007022:	e0 a0 0a d3 	rcall	800085c8 <fatfs_entry_sfn_only>
80007026:	c9 50       	breq	80006f50 <fatfs_update_file_length+0x44>
80007028:	30 ba       	mov	r10,11
8000702a:	40 5b       	lddsp	r11,sp[0x14]
8000702c:	08 9c       	mov	r12,r4
8000702e:	e0 a0 1d 30 	rcall	8000aa8e <strncmp>
80007032:	c8 f1       	brne	80006f50 <fatfs_update_file_length+0x44>
80007034:	50 64       	stdsp	sp[0x18],r4
80007036:	e0 6c 01 e0 	mov	r12,480
8000703a:	40 79       	lddsp	r9,sp[0x1c]
8000703c:	e6 19 00 ff 	andh	r9,0xff,COH
80007040:	40 7e       	lddsp	lr,sp[0x1c]
80007042:	40 6b       	lddsp	r11,sp[0x18]
80007044:	40 78       	lddsp	r8,sp[0x1c]
80007046:	1c 95       	mov	r5,lr
80007048:	b9 68       	lsl	r8,0x18
8000704a:	e2 15 ff 00 	andl	r5,0xff00,COH
8000704e:	f1 ee 13 88 	or	r8,r8,lr>>0x18
80007052:	f1 e5 10 88 	or	r8,r8,r5<<0x8
80007056:	f1 e9 12 88 	or	r8,r8,r9>>0x8
8000705a:	f7 68 00 1f 	st.b	r11[31],r8
8000705e:	f0 09 16 18 	lsr	r9,r8,0x18
80007062:	40 6e       	lddsp	lr,sp[0x18]
80007064:	fd 69 00 1c 	st.b	lr[28],r9
80007068:	f3 d8 c2 08 	bfextu	r9,r8,0x10,0x8
8000706c:	f1 d8 c1 08 	bfextu	r8,r8,0x8,0x8
80007070:	ec 0c 00 0c 	add	r12,r6,r12
80007074:	fd 68 00 1e 	st.b	lr[30],r8
80007078:	32 0a       	mov	r10,32
8000707a:	fd 69 00 1d 	st.b	lr[29],r9
8000707e:	e0 a0 1b dd 	rcall	8000a838 <memcpy>
80007082:	0c 9b       	mov	r11,r6
80007084:	ee fc 02 44 	ld.w	r12,r7[580]
80007088:	6e e8       	ld.w	r8,r7[0x38]
8000708a:	30 1a       	mov	r10,1
8000708c:	5d 18       	icall	r8
8000708e:	2f 8d       	sub	sp,-32
80007090:	d8 32       	popm	r0-r7,pc
80007092:	40 3c       	lddsp	r12,sp[0xc]
80007094:	e0 a0 0a 66 	rcall	80008560 <fatfs_entry_lfn_invalid>
80007098:	c9 01       	brne	80006fb8 <fatfs_update_file_length+0xac>
8000709a:	40 3c       	lddsp	r12,sp[0xc]
8000709c:	e0 a0 0a 96 	rcall	800085c8 <fatfs_entry_sfn_only>
800070a0:	c8 c0       	breq	80006fb8 <fatfs_update_file_length+0xac>
800070a2:	30 ba       	mov	r10,11
800070a4:	40 5b       	lddsp	r11,sp[0x14]
800070a6:	40 3c       	lddsp	r12,sp[0xc]
800070a8:	e0 a0 1c f3 	rcall	8000aa8e <strncmp>
800070ac:	c8 61       	brne	80006fb8 <fatfs_update_file_length+0xac>
800070ae:	40 39       	lddsp	r9,sp[0xc]
800070b0:	e0 6c 01 00 	mov	r12,256
800070b4:	50 69       	stdsp	sp[0x18],r9
800070b6:	cc 2b       	rjmp	8000703a <fatfs_update_file_length+0x12e>
800070b8:	40 2c       	lddsp	r12,sp[0x8]
800070ba:	e0 a0 0a 53 	rcall	80008560 <fatfs_entry_lfn_invalid>
800070be:	fe 91 ff 79 	brne	80006fb0 <fatfs_update_file_length+0xa4>
800070c2:	40 2c       	lddsp	r12,sp[0x8]
800070c4:	e0 a0 0a 82 	rcall	800085c8 <fatfs_entry_sfn_only>
800070c8:	fe 90 ff 74 	breq	80006fb0 <fatfs_update_file_length+0xa4>
800070cc:	30 ba       	mov	r10,11
800070ce:	40 5b       	lddsp	r11,sp[0x14]
800070d0:	40 2c       	lddsp	r12,sp[0x8]
800070d2:	e0 a0 1c de 	rcall	8000aa8e <strncmp>
800070d6:	fe 91 ff 6d 	brne	80006fb0 <fatfs_update_file_length+0xa4>
800070da:	40 2e       	lddsp	lr,sp[0x8]
800070dc:	e0 6c 00 e0 	mov	r12,224
800070e0:	50 6e       	stdsp	sp[0x18],lr
800070e2:	ca cb       	rjmp	8000703a <fatfs_update_file_length+0x12e>
800070e4:	40 1c       	lddsp	r12,sp[0x4]
800070e6:	e0 a0 0a 3d 	rcall	80008560 <fatfs_entry_lfn_invalid>
800070ea:	fe 91 ff 5e 	brne	80006fa6 <fatfs_update_file_length+0x9a>
800070ee:	40 1c       	lddsp	r12,sp[0x4]
800070f0:	e0 a0 0a 6c 	rcall	800085c8 <fatfs_entry_sfn_only>
800070f4:	fe 90 ff 59 	breq	80006fa6 <fatfs_update_file_length+0x9a>
800070f8:	30 ba       	mov	r10,11
800070fa:	40 5b       	lddsp	r11,sp[0x14]
800070fc:	40 1c       	lddsp	r12,sp[0x4]
800070fe:	e0 a0 1c c8 	rcall	8000aa8e <strncmp>
80007102:	fe 91 ff 52 	brne	80006fa6 <fatfs_update_file_length+0x9a>
80007106:	40 18       	lddsp	r8,sp[0x4]
80007108:	e0 6c 00 c0 	mov	r12,192
8000710c:	50 68       	stdsp	sp[0x18],r8
8000710e:	c9 6b       	rjmp	8000703a <fatfs_update_file_length+0x12e>
80007110:	40 0c       	lddsp	r12,sp[0x0]
80007112:	e0 a0 0a 27 	rcall	80008560 <fatfs_entry_lfn_invalid>
80007116:	fe 91 ff 43 	brne	80006f9c <fatfs_update_file_length+0x90>
8000711a:	40 0c       	lddsp	r12,sp[0x0]
8000711c:	e0 a0 0a 56 	rcall	800085c8 <fatfs_entry_sfn_only>
80007120:	fe 90 ff 3e 	breq	80006f9c <fatfs_update_file_length+0x90>
80007124:	30 ba       	mov	r10,11
80007126:	40 5b       	lddsp	r11,sp[0x14]
80007128:	40 0c       	lddsp	r12,sp[0x0]
8000712a:	e0 a0 1c b2 	rcall	8000aa8e <strncmp>
8000712e:	fe 91 ff 37 	brne	80006f9c <fatfs_update_file_length+0x90>
80007132:	40 09       	lddsp	r9,sp[0x0]
80007134:	e0 6c 00 a0 	mov	r12,160
80007138:	50 69       	stdsp	sp[0x18],r9
8000713a:	c8 0b       	rjmp	8000703a <fatfs_update_file_length+0x12e>
8000713c:	00 9c       	mov	r12,r0
8000713e:	e0 a0 0a 11 	rcall	80008560 <fatfs_entry_lfn_invalid>
80007142:	fe 91 ff 28 	brne	80006f92 <fatfs_update_file_length+0x86>
80007146:	00 9c       	mov	r12,r0
80007148:	e0 a0 0a 40 	rcall	800085c8 <fatfs_entry_sfn_only>
8000714c:	fe 90 ff 23 	breq	80006f92 <fatfs_update_file_length+0x86>
80007150:	30 ba       	mov	r10,11
80007152:	40 5b       	lddsp	r11,sp[0x14]
80007154:	00 9c       	mov	r12,r0
80007156:	e0 a0 1c 9c 	rcall	8000aa8e <strncmp>
8000715a:	fe 91 ff 1c 	brne	80006f92 <fatfs_update_file_length+0x86>
8000715e:	50 60       	stdsp	sp[0x18],r0
80007160:	e0 6c 00 80 	mov	r12,128
80007164:	c6 bb       	rjmp	8000703a <fatfs_update_file_length+0x12e>
80007166:	02 9c       	mov	r12,r1
80007168:	e0 a0 09 fc 	rcall	80008560 <fatfs_entry_lfn_invalid>
8000716c:	fe 91 ff 0e 	brne	80006f88 <fatfs_update_file_length+0x7c>
80007170:	02 9c       	mov	r12,r1
80007172:	e0 a0 0a 2b 	rcall	800085c8 <fatfs_entry_sfn_only>
80007176:	fe 90 ff 09 	breq	80006f88 <fatfs_update_file_length+0x7c>
8000717a:	30 ba       	mov	r10,11
8000717c:	40 5b       	lddsp	r11,sp[0x14]
8000717e:	02 9c       	mov	r12,r1
80007180:	e0 a0 1c 87 	rcall	8000aa8e <strncmp>
80007184:	fe 91 ff 02 	brne	80006f88 <fatfs_update_file_length+0x7c>
80007188:	50 61       	stdsp	sp[0x18],r1
8000718a:	36 0c       	mov	r12,96
8000718c:	c5 7b       	rjmp	8000703a <fatfs_update_file_length+0x12e>
8000718e:	06 9c       	mov	r12,r3
80007190:	e0 a0 09 e8 	rcall	80008560 <fatfs_entry_lfn_invalid>
80007194:	fe 91 fe f5 	brne	80006f7e <fatfs_update_file_length+0x72>
80007198:	06 9c       	mov	r12,r3
8000719a:	e0 a0 0a 17 	rcall	800085c8 <fatfs_entry_sfn_only>
8000719e:	fe 90 fe f0 	breq	80006f7e <fatfs_update_file_length+0x72>
800071a2:	30 ba       	mov	r10,11
800071a4:	40 5b       	lddsp	r11,sp[0x14]
800071a6:	06 9c       	mov	r12,r3
800071a8:	e0 a0 1c 73 	rcall	8000aa8e <strncmp>
800071ac:	fe 91 fe e9 	brne	80006f7e <fatfs_update_file_length+0x72>
800071b0:	50 63       	stdsp	sp[0x18],r3
800071b2:	34 0c       	mov	r12,64
800071b4:	c4 3b       	rjmp	8000703a <fatfs_update_file_length+0x12e>
800071b6:	04 9c       	mov	r12,r2
800071b8:	e0 a0 09 d4 	rcall	80008560 <fatfs_entry_lfn_invalid>
800071bc:	fe 91 fe dc 	brne	80006f74 <fatfs_update_file_length+0x68>
800071c0:	04 9c       	mov	r12,r2
800071c2:	e0 a0 0a 03 	rcall	800085c8 <fatfs_entry_sfn_only>
800071c6:	fe 90 fe d7 	breq	80006f74 <fatfs_update_file_length+0x68>
800071ca:	30 ba       	mov	r10,11
800071cc:	40 5b       	lddsp	r11,sp[0x14]
800071ce:	04 9c       	mov	r12,r2
800071d0:	e0 a0 1c 5f 	rcall	8000aa8e <strncmp>
800071d4:	fe 91 fe d0 	brne	80006f74 <fatfs_update_file_length+0x68>
800071d8:	50 62       	stdsp	sp[0x18],r2
800071da:	32 0c       	mov	r12,32
800071dc:	c2 fb       	rjmp	8000703a <fatfs_update_file_length+0x12e>
800071de:	0c 9c       	mov	r12,r6
800071e0:	e0 a0 09 c0 	rcall	80008560 <fatfs_entry_lfn_invalid>
800071e4:	fe 91 fe c3 	brne	80006f6a <fatfs_update_file_length+0x5e>
800071e8:	0c 9c       	mov	r12,r6
800071ea:	e0 a0 09 ef 	rcall	800085c8 <fatfs_entry_sfn_only>
800071ee:	fe 90 fe be 	breq	80006f6a <fatfs_update_file_length+0x5e>
800071f2:	30 ba       	mov	r10,11
800071f4:	40 5b       	lddsp	r11,sp[0x14]
800071f6:	0c 9c       	mov	r12,r6
800071f8:	e0 a0 1c 4b 	rcall	8000aa8e <strncmp>
800071fc:	fe 91 fe b7 	brne	80006f6a <fatfs_update_file_length+0x5e>
80007200:	c1 db       	rjmp	8000703a <fatfs_update_file_length+0x12e>
80007202:	08 9c       	mov	r12,r4
80007204:	e0 a0 09 ae 	rcall	80008560 <fatfs_entry_lfn_invalid>
80007208:	fe 91 fe e6 	brne	80006fd4 <fatfs_update_file_length+0xc8>
8000720c:	08 9c       	mov	r12,r4
8000720e:	e0 a0 09 dd 	rcall	800085c8 <fatfs_entry_sfn_only>
80007212:	fe 90 fe e1 	breq	80006fd4 <fatfs_update_file_length+0xc8>
80007216:	30 ba       	mov	r10,11
80007218:	40 5b       	lddsp	r11,sp[0x14]
8000721a:	08 9c       	mov	r12,r4
8000721c:	e0 a0 1c 39 	rcall	8000aa8e <strncmp>
80007220:	fe 91 fe da 	brne	80006fd4 <fatfs_update_file_length+0xc8>
80007224:	50 64       	stdsp	sp[0x18],r4
80007226:	e0 6c 01 40 	mov	r12,320
8000722a:	c0 8b       	rjmp	8000703a <fatfs_update_file_length+0x12e>
8000722c:	08 9c       	mov	r12,r4
8000722e:	e0 a0 09 99 	rcall	80008560 <fatfs_entry_lfn_invalid>
80007232:	fe 91 fe ca 	brne	80006fc6 <fatfs_update_file_length+0xba>
80007236:	08 9c       	mov	r12,r4
80007238:	e0 a0 09 c8 	rcall	800085c8 <fatfs_entry_sfn_only>
8000723c:	fe 90 fe c5 	breq	80006fc6 <fatfs_update_file_length+0xba>
80007240:	30 ba       	mov	r10,11
80007242:	40 5b       	lddsp	r11,sp[0x14]
80007244:	08 9c       	mov	r12,r4
80007246:	e0 a0 1c 24 	rcall	8000aa8e <strncmp>
8000724a:	fe 91 fe be 	brne	80006fc6 <fatfs_update_file_length+0xba>
8000724e:	50 64       	stdsp	sp[0x18],r4
80007250:	e0 6c 01 20 	mov	r12,288
80007254:	cf 3a       	rjmp	8000703a <fatfs_update_file_length+0x12e>
80007256:	08 9c       	mov	r12,r4
80007258:	e0 a0 09 84 	rcall	80008560 <fatfs_entry_lfn_invalid>
8000725c:	fe 91 fe d8 	brne	8000700c <fatfs_update_file_length+0x100>
80007260:	08 9c       	mov	r12,r4
80007262:	e0 a0 09 b3 	rcall	800085c8 <fatfs_entry_sfn_only>
80007266:	fe 90 fe d3 	breq	8000700c <fatfs_update_file_length+0x100>
8000726a:	30 ba       	mov	r10,11
8000726c:	40 5b       	lddsp	r11,sp[0x14]
8000726e:	08 9c       	mov	r12,r4
80007270:	e0 a0 1c 0f 	rcall	8000aa8e <strncmp>
80007274:	fe 91 fe cc 	brne	8000700c <fatfs_update_file_length+0x100>
80007278:	50 64       	stdsp	sp[0x18],r4
8000727a:	e0 6c 01 c0 	mov	r12,448
8000727e:	cd ea       	rjmp	8000703a <fatfs_update_file_length+0x12e>
80007280:	08 9c       	mov	r12,r4
80007282:	e0 a0 09 6f 	rcall	80008560 <fatfs_entry_lfn_invalid>
80007286:	fe 91 fe bc 	brne	80006ffe <fatfs_update_file_length+0xf2>
8000728a:	08 9c       	mov	r12,r4
8000728c:	e0 a0 09 9e 	rcall	800085c8 <fatfs_entry_sfn_only>
80007290:	fe 90 fe b7 	breq	80006ffe <fatfs_update_file_length+0xf2>
80007294:	30 ba       	mov	r10,11
80007296:	40 5b       	lddsp	r11,sp[0x14]
80007298:	08 9c       	mov	r12,r4
8000729a:	e0 a0 1b fa 	rcall	8000aa8e <strncmp>
8000729e:	fe 91 fe b0 	brne	80006ffe <fatfs_update_file_length+0xf2>
800072a2:	50 64       	stdsp	sp[0x18],r4
800072a4:	e0 6c 01 a0 	mov	r12,416
800072a8:	fe 9f fe c9 	bral	8000703a <fatfs_update_file_length+0x12e>
800072ac:	08 9c       	mov	r12,r4
800072ae:	e0 a0 09 59 	rcall	80008560 <fatfs_entry_lfn_invalid>
800072b2:	fe 91 fe 9f 	brne	80006ff0 <fatfs_update_file_length+0xe4>
800072b6:	08 9c       	mov	r12,r4
800072b8:	e0 a0 09 88 	rcall	800085c8 <fatfs_entry_sfn_only>
800072bc:	fe 90 fe 9a 	breq	80006ff0 <fatfs_update_file_length+0xe4>
800072c0:	30 ba       	mov	r10,11
800072c2:	40 5b       	lddsp	r11,sp[0x14]
800072c4:	08 9c       	mov	r12,r4
800072c6:	e0 a0 1b e4 	rcall	8000aa8e <strncmp>
800072ca:	fe 91 fe 93 	brne	80006ff0 <fatfs_update_file_length+0xe4>
800072ce:	50 64       	stdsp	sp[0x18],r4
800072d0:	e0 6c 01 80 	mov	r12,384
800072d4:	fe 9f fe b3 	bral	8000703a <fatfs_update_file_length+0x12e>
800072d8:	08 9c       	mov	r12,r4
800072da:	e0 a0 09 43 	rcall	80008560 <fatfs_entry_lfn_invalid>
800072de:	fe 91 fe 82 	brne	80006fe2 <fatfs_update_file_length+0xd6>
800072e2:	08 9c       	mov	r12,r4
800072e4:	e0 a0 09 72 	rcall	800085c8 <fatfs_entry_sfn_only>
800072e8:	fe 90 fe 7d 	breq	80006fe2 <fatfs_update_file_length+0xd6>
800072ec:	30 ba       	mov	r10,11
800072ee:	40 5b       	lddsp	r11,sp[0x14]
800072f0:	08 9c       	mov	r12,r4
800072f2:	e0 a0 1b ce 	rcall	8000aa8e <strncmp>
800072f6:	fe 91 fe 76 	brne	80006fe2 <fatfs_update_file_length+0xd6>
800072fa:	50 64       	stdsp	sp[0x18],r4
800072fc:	e0 6c 01 60 	mov	r12,352
80007300:	fe 9f fe 9d 	bral	8000703a <fatfs_update_file_length+0x12e>
80007304:	2f 8d       	sub	sp,-32
80007306:	d8 3a       	popm	r0-r7,pc,r12=0

80007308 <fatfs_list_directory_next>:
80007308:	d4 31       	pushm	r0-r7,lr
8000730a:	fa cd 01 20 	sub	sp,sp,288
8000730e:	18 92       	mov	r2,r12
80007310:	16 91       	mov	r1,r11
80007312:	50 1a       	stdsp	sp[0x4],r10
80007314:	fa c4 ff f6 	sub	r4,sp,-10
80007318:	30 0b       	mov	r11,0
8000731a:	08 9c       	mov	r12,r4
8000731c:	e0 a0 0a 01 	rcall	8000871e <fatfs_lfn_cache_init>
80007320:	e4 c3 ff bc 	sub	r3,r2,-68
80007324:	62 0a       	ld.w	r10,r1[0x0]
80007326:	30 f5       	mov	r5,15
80007328:	62 1b       	ld.w	r11,r1[0x4]
8000732a:	04 9c       	mov	r12,r2
8000732c:	fe b0 fb 62 	rcall	800069f0 <T.41>
80007330:	e0 80 00 ba 	breq	800074a4 <fatfs_list_directory_next+0x19c>
80007334:	e3 37 00 08 	ld.ub	r7,r1[8]
80007338:	ea 07 18 00 	cp.b	r7,r5
8000733c:	e0 88 00 10 	brls	8000735c <fatfs_list_directory_next+0x54>
80007340:	c2 68       	rjmp	8000738c <fatfs_list_directory_next+0x84>
80007342:	e0 cb ff bc 	sub	r11,r0,-68
80007346:	08 9c       	mov	r12,r4
80007348:	e4 0b 00 0b 	add	r11,r2,r11
8000734c:	e0 a0 08 1c 	rcall	80008384 <fatfs_lfn_cache_entry>
80007350:	2f f7       	sub	r7,-1
80007352:	5c 57       	castu.b	r7
80007354:	ea 07 18 00 	cp.b	r7,r5
80007358:	e0 8b 00 1a 	brhi	8000738c <fatfs_list_directory_next+0x84>
8000735c:	ee 00 15 05 	lsl	r0,r7,0x5
80007360:	e6 00 00 06 	add	r6,r3,r0
80007364:	0c 9c       	mov	r12,r6
80007366:	e0 a0 08 f6 	rcall	80008552 <fatfs_entry_lfn_text>
8000736a:	18 9b       	mov	r11,r12
8000736c:	ce b1       	brne	80007342 <fatfs_list_directory_next+0x3a>
8000736e:	50 0b       	stdsp	sp[0x0],r11
80007370:	0c 9c       	mov	r12,r6
80007372:	e0 a0 08 f7 	rcall	80008560 <fatfs_entry_lfn_invalid>
80007376:	40 0b       	lddsp	r11,sp[0x0]
80007378:	c1 10       	breq	8000739a <fatfs_list_directory_next+0x92>
8000737a:	08 9c       	mov	r12,r4
8000737c:	e0 a0 09 d1 	rcall	8000871e <fatfs_lfn_cache_init>
80007380:	2f f7       	sub	r7,-1
80007382:	5c 57       	castu.b	r7
80007384:	ea 07 18 00 	cp.b	r7,r5
80007388:	fe 98 ff ea 	brls	8000735c <fatfs_list_directory_next+0x54>
8000738c:	62 0a       	ld.w	r10,r1[0x0]
8000738e:	30 09       	mov	r9,0
80007390:	2f fa       	sub	r10,-1
80007392:	e3 69 00 08 	st.b	r1[8],r9
80007396:	83 0a       	st.w	r1[0x0],r10
80007398:	cc 8b       	rjmp	80007328 <fatfs_list_directory_next+0x20>
8000739a:	0c 9b       	mov	r11,r6
8000739c:	08 9c       	mov	r12,r4
8000739e:	e0 a0 08 fa 	rcall	80008592 <fatfs_entry_lfn_exists>
800073a2:	18 90       	mov	r0,r12
800073a4:	e0 81 00 82 	brne	800074a8 <fatfs_list_directory_next+0x1a0>
800073a8:	0c 9c       	mov	r12,r6
800073aa:	e0 a0 09 0f 	rcall	800085c8 <fatfs_entry_sfn_only>
800073ae:	cd 10       	breq	80007350 <fatfs_list_directory_next+0x48>
800073b0:	08 9c       	mov	r12,r4
800073b2:	00 9b       	mov	r11,r0
800073b4:	e0 a0 09 b5 	rcall	8000871e <fatfs_lfn_cache_init>
800073b8:	fa cb fe f0 	sub	r11,sp,-272
800073bc:	ec c9 ff fc 	sub	r9,r6,-4
800073c0:	fb 60 01 1c 	st.b	sp[284],r0
800073c4:	16 39       	cp.w	r9,r11
800073c6:	5f 3c       	srlo	r12
800073c8:	fa c8 fe ec 	sub	r8,sp,-276
800073cc:	10 36       	cp.w	r6,r8
800073ce:	5f ba       	srhi	r10
800073d0:	f9 ea 10 0a 	or	r10,r12,r10
800073d4:	f9 d6 c0 02 	bfextu	r12,r6,0x0,0x2
800073d8:	5f 0c       	sreq	r12
800073da:	f9 ea 00 0a 	and	r10,r12,r10
800073de:	e0 0a 18 00 	cp.b	r10,r0
800073e2:	c7 f0       	breq	800074e0 <fatfs_list_directory_next+0x1d8>
800073e4:	72 09       	ld.w	r9,r9[0x0]
800073e6:	91 09       	st.w	r8[0x0],r9
800073e8:	6c 08       	ld.w	r8,r6[0x0]
800073ea:	97 08       	st.w	r11[0x0],r8
800073ec:	ed 38 00 09 	ld.ub	r8,r6[9]
800073f0:	fb 68 01 1a 	st.b	sp[282],r8
800073f4:	ed 39 00 08 	ld.ub	r9,r6[8]
800073f8:	fb 69 01 19 	st.b	sp[281],r9
800073fc:	32 0a       	mov	r10,32
800073fe:	f4 08 18 00 	cp.b	r8,r10
80007402:	c6 b0       	breq	800074d8 <fatfs_list_directory_next+0x1d0>
80007404:	30 1c       	mov	r12,1
80007406:	ed 38 00 0a 	ld.ub	r8,r6[10]
8000740a:	fb 68 01 1b 	st.b	sp[283],r8
8000740e:	32 09       	mov	r9,32
80007410:	f2 08 18 00 	cp.b	r8,r9
80007414:	c5 f0       	breq	800074d2 <fatfs_list_directory_next+0x1ca>
80007416:	32 e8       	mov	r8,46
80007418:	fb 39 01 10 	ld.ub	r9,sp[272]
8000741c:	f0 09 18 00 	cp.b	r9,r8
80007420:	c5 50       	breq	800074ca <fatfs_list_directory_next+0x1c2>
80007422:	fb 68 01 18 	st.b	sp[280],r8
80007426:	40 1c       	lddsp	r12,sp[0x4]
80007428:	e0 a0 0c b0 	rcall	80008d88 <fatfs_get_sfn_display_name>
8000742c:	0c 9c       	mov	r12,r6
8000742e:	e0 a0 08 e3 	rcall	800085f4 <fatfs_entry_is_dir>
80007432:	c4 80       	breq	800074c2 <fatfs_list_directory_next+0x1ba>
80007434:	30 18       	mov	r8,1
80007436:	40 19       	lddsp	r9,sp[0x4]
80007438:	f3 68 01 04 	st.b	r9[260],r8
8000743c:	ed 39 00 1c 	ld.ub	r9,r6[28]
80007440:	ed 38 00 1d 	ld.ub	r8,r6[29]
80007444:	b1 68       	lsl	r8,0x10
80007446:	f1 e9 11 88 	or	r8,r8,r9<<0x18
8000744a:	ed 39 00 1e 	ld.ub	r9,r6[30]
8000744e:	f1 e9 10 88 	or	r8,r8,r9<<0x8
80007452:	ed 39 00 1f 	ld.ub	r9,r6[31]
80007456:	f3 e8 10 08 	or	r8,r9,r8
8000745a:	10 99       	mov	r9,r8
8000745c:	e6 19 00 ff 	andh	r9,0xff,COH
80007460:	f0 0a 15 18 	lsl	r10,r8,0x18
80007464:	f5 e8 13 8a 	or	r10,r10,r8>>0x18
80007468:	e2 18 ff 00 	andl	r8,0xff00,COH
8000746c:	f5 e8 10 88 	or	r8,r10,r8<<0x8
80007470:	f1 e9 12 88 	or	r8,r8,r9>>0x8
80007474:	40 19       	lddsp	r9,sp[0x4]
80007476:	f3 48 01 0c 	st.w	r9[268],r8
8000747a:	ed 38 00 14 	ld.ub	r8,r6[20]
8000747e:	ed 39 00 15 	ld.ub	r9,r6[21]
80007482:	f1 e9 10 89 	or	r9,r8,r9<<0x8
80007486:	ed 3a 00 1b 	ld.ub	r10,r6[27]
8000748a:	ed 38 00 1a 	ld.ub	r8,r6[26]
8000748e:	f1 ea 10 88 	or	r8,r8,r10<<0x8
80007492:	f1 e9 11 08 	or	r8,r8,r9<<0x10
80007496:	40 19       	lddsp	r9,sp[0x4]
80007498:	f3 48 01 08 	st.w	r9[264],r8
8000749c:	2f f7       	sub	r7,-1
8000749e:	30 1c       	mov	r12,1
800074a0:	e3 67 00 08 	st.b	r1[8],r7
800074a4:	2b 8d       	sub	sp,-288
800074a6:	d8 32       	popm	r0-r7,pc
800074a8:	08 9c       	mov	r12,r4
800074aa:	e0 a0 08 3d 	rcall	80008524 <fatfs_lfn_cache_get>
800074ae:	e0 6a 01 03 	mov	r10,259
800074b2:	18 9b       	mov	r11,r12
800074b4:	40 1c       	lddsp	r12,sp[0x4]
800074b6:	e0 a0 1a ff 	rcall	8000aab4 <strncpy>
800074ba:	0c 9c       	mov	r12,r6
800074bc:	e0 a0 08 9c 	rcall	800085f4 <fatfs_entry_is_dir>
800074c0:	cb a1       	brne	80007434 <fatfs_list_directory_next+0x12c>
800074c2:	40 18       	lddsp	r8,sp[0x4]
800074c4:	f1 6c 01 04 	st.b	r8[260],r12
800074c8:	cb ab       	rjmp	8000743c <fatfs_list_directory_next+0x134>
800074ca:	32 08       	mov	r8,32
800074cc:	fb 68 01 18 	st.b	sp[280],r8
800074d0:	ca bb       	rjmp	80007426 <fatfs_list_directory_next+0x11e>
800074d2:	58 0c       	cp.w	r12,0
800074d4:	ca 70       	breq	80007422 <fatfs_list_directory_next+0x11a>
800074d6:	ca 0b       	rjmp	80007416 <fatfs_list_directory_next+0x10e>
800074d8:	f0 09 18 00 	cp.b	r9,r8
800074dc:	5f 1c       	srne	r12
800074de:	c9 4b       	rjmp	80007406 <fatfs_list_directory_next+0xfe>
800074e0:	0d 88       	ld.ub	r8,r6[0x0]
800074e2:	fb 68 01 10 	st.b	sp[272],r8
800074e6:	0d 98       	ld.ub	r8,r6[0x1]
800074e8:	fb 68 01 11 	st.b	sp[273],r8
800074ec:	0d a8       	ld.ub	r8,r6[0x2]
800074ee:	fb 68 01 12 	st.b	sp[274],r8
800074f2:	0d b8       	ld.ub	r8,r6[0x3]
800074f4:	fb 68 01 13 	st.b	sp[275],r8
800074f8:	0d c8       	ld.ub	r8,r6[0x4]
800074fa:	fb 68 01 14 	st.b	sp[276],r8
800074fe:	0d d8       	ld.ub	r8,r6[0x5]
80007500:	fb 68 01 15 	st.b	sp[277],r8
80007504:	0d e8       	ld.ub	r8,r6[0x6]
80007506:	fb 68 01 16 	st.b	sp[278],r8
8000750a:	0d f8       	ld.ub	r8,r6[0x7]
8000750c:	fb 68 01 17 	st.b	sp[279],r8
80007510:	c6 eb       	rjmp	800073ec <fatfs_list_directory_next+0xe4>
80007512:	d7 03       	nop

80007514 <fatfs_write_sector>:
80007514:	eb cd 40 e0 	pushm	r5-r7,lr
80007518:	20 1d       	sub	sp,4
8000751a:	18 96       	mov	r6,r12
8000751c:	16 98       	mov	r8,r11
8000751e:	78 e7       	ld.w	r7,r12[0x38]
80007520:	58 07       	cp.w	r7,0
80007522:	c2 50       	breq	8000756c <fatfs_write_sector+0x58>
80007524:	58 0b       	cp.w	r11,0
80007526:	5f 05       	sreq	r5
80007528:	78 ce       	ld.w	lr,r12[0x30]
8000752a:	58 0e       	cp.w	lr,0
8000752c:	5f 0e       	sreq	lr
8000752e:	fd e5 00 05 	and	r5,lr,r5
80007532:	c1 10       	breq	80007554 <fatfs_write_sector+0x40>
80007534:	78 48       	ld.w	r8,r12[0x10]
80007536:	14 38       	cp.w	r8,r10
80007538:	e0 88 00 1a 	brls	8000756c <fatfs_write_sector+0x58>
8000753c:	78 3c       	ld.w	r12,r12[0xc]
8000753e:	6c 78       	ld.w	r8,r6[0x1c]
80007540:	10 0c       	add	r12,r8
80007542:	14 0c       	add	r12,r10
80007544:	58 09       	cp.w	r9,0
80007546:	c2 d0       	breq	800075a0 <fatfs_write_sector+0x8c>
80007548:	12 9b       	mov	r11,r9
8000754a:	30 1a       	mov	r10,1
8000754c:	5d 17       	icall	r7
8000754e:	2f fd       	sub	sp,-4
80007550:	e3 cd 80 e0 	ldm	sp++,r5-r7,pc
80007554:	58 09       	cp.w	r9,0
80007556:	c1 90       	breq	80007588 <fatfs_write_sector+0x74>
80007558:	58 0e       	cp.w	lr,0
8000755a:	c0 c1       	brne	80007572 <fatfs_write_sector+0x5e>
8000755c:	78 1b       	ld.w	r11,r12[0x4]
8000755e:	20 28       	sub	r8,2
80007560:	19 8c       	ld.ub	r12,r12[0x0]
80007562:	f0 0c 02 4c 	mul	r12,r8,r12
80007566:	16 0c       	add	r12,r11
80007568:	14 0c       	add	r12,r10
8000756a:	ce fb       	rjmp	80007548 <fatfs_write_sector+0x34>
8000756c:	2f fd       	sub	sp,-4
8000756e:	e3 cf 80 e0 	ldm	sp++,r5-r7,pc,r12=0
80007572:	19 8b       	ld.ub	r11,r12[0x0]
80007574:	20 28       	sub	r8,2
80007576:	f9 1c 00 28 	ld.uh	r12,r12[40]
8000757a:	b7 38       	mul	r8,r11
8000757c:	a5 4c       	asr	r12,0x4
8000757e:	6c 1b       	ld.w	r11,r6[0x4]
80007580:	16 0c       	add	r12,r11
80007582:	10 0c       	add	r12,r8
80007584:	14 0c       	add	r12,r10
80007586:	ce 1b       	rjmp	80007548 <fatfs_write_sector+0x34>
80007588:	50 0a       	stdsp	sp[0x0],r10
8000758a:	fe b0 f8 d9 	rcall	8000673c <fatfs_lba_of_cluster>
8000758e:	40 0a       	lddsp	r10,sp[0x0]
80007590:	ec cb ff bc 	sub	r11,r6,-68
80007594:	14 0c       	add	r12,r10
80007596:	30 1a       	mov	r10,1
80007598:	ed 4c 02 44 	st.w	r6[580],r12
8000759c:	5d 17       	icall	r7
8000759e:	cd 8b       	rjmp	8000754e <fatfs_write_sector+0x3a>
800075a0:	ed 4c 02 44 	st.w	r6[580],r12
800075a4:	ec cb ff bc 	sub	r11,r6,-68
800075a8:	30 1a       	mov	r10,1
800075aa:	5d 17       	icall	r7
800075ac:	cd 1b       	rjmp	8000754e <fatfs_write_sector+0x3a>
800075ae:	d7 03       	nop

800075b0 <fatfs_sector_reader>:
800075b0:	eb cd 40 fc 	pushm	r2-r7,lr
800075b4:	58 0b       	cp.w	r11,0
800075b6:	5f 08       	sreq	r8
800075b8:	12 93       	mov	r3,r9
800075ba:	18 97       	mov	r7,r12
800075bc:	78 c9       	ld.w	r9,r12[0x30]
800075be:	14 96       	mov	r6,r10
800075c0:	58 09       	cp.w	r9,0
800075c2:	5f 09       	sreq	r9
800075c4:	12 68       	and	r8,r9
800075c6:	c1 10       	breq	800075e8 <fatfs_sector_reader+0x38>
800075c8:	78 48       	ld.w	r8,r12[0x10]
800075ca:	14 38       	cp.w	r8,r10
800075cc:	e0 88 00 3b 	brls	80007642 <fatfs_sector_reader+0x92>
800075d0:	78 3c       	ld.w	r12,r12[0xc]
800075d2:	6e 78       	ld.w	r8,r7[0x1c]
800075d4:	10 0c       	add	r12,r8
800075d6:	14 0c       	add	r12,r10
800075d8:	58 03       	cp.w	r3,0
800075da:	c2 70       	breq	80007628 <fatfs_sector_reader+0x78>
800075dc:	6e d8       	ld.w	r8,r7[0x34]
800075de:	06 9b       	mov	r11,r3
800075e0:	30 1a       	mov	r10,1
800075e2:	5d 18       	icall	r8
800075e4:	e3 cd 80 fc 	ldm	sp++,r2-r7,pc
800075e8:	19 82       	ld.ub	r2,r12[0x0]
800075ea:	f4 02 0d 08 	divu	r8,r10,r2
800075ee:	10 94       	mov	r4,r8
800075f0:	58 08       	cp.w	r8,0
800075f2:	c0 a0       	breq	80007606 <fatfs_sector_reader+0x56>
800075f4:	30 05       	mov	r5,0
800075f6:	0e 9c       	mov	r12,r7
800075f8:	2f f5       	sub	r5,-1
800075fa:	e0 a0 0e 79 	rcall	800092ec <fatfs_find_next_cluster>
800075fe:	18 9b       	mov	r11,r12
80007600:	0a 34       	cp.w	r4,r5
80007602:	fe 9b ff fa 	brhi	800075f6 <fatfs_sector_reader+0x46>
80007606:	5b fb       	cp.w	r11,-1
80007608:	c1 d0       	breq	80007642 <fatfs_sector_reader+0x92>
8000760a:	6e c8       	ld.w	r8,r7[0x30]
8000760c:	58 08       	cp.w	r8,0
8000760e:	c1 c0       	breq	80007646 <fatfs_sector_reader+0x96>
80007610:	0f 88       	ld.ub	r8,r7[0x0]
80007612:	20 2b       	sub	r11,2
80007614:	b1 3b       	mul	r11,r8
80007616:	6e 18       	ld.w	r8,r7[0x4]
80007618:	f6 08 00 08 	add	r8,r11,r8
8000761c:	a5 34       	mul	r4,r2
8000761e:	08 16       	sub	r6,r4
80007620:	ec 08 00 0c 	add	r12,r6,r8
80007624:	58 03       	cp.w	r3,0
80007626:	cd b1       	brne	800075dc <fatfs_sector_reader+0x2c>
80007628:	ee f8 02 44 	ld.w	r8,r7[580]
8000762c:	18 38       	cp.w	r8,r12
8000762e:	c1 70       	breq	8000765c <fatfs_sector_reader+0xac>
80007630:	ef 4c 02 44 	st.w	r7[580],r12
80007634:	ee cb ff bc 	sub	r11,r7,-68
80007638:	6e d8       	ld.w	r8,r7[0x34]
8000763a:	30 1a       	mov	r10,1
8000763c:	5d 18       	icall	r8
8000763e:	e3 cd 80 fc 	ldm	sp++,r2-r7,pc
80007642:	e3 cf 80 fc 	ldm	sp++,r2-r7,pc,r12=0
80007646:	ef 19 00 28 	ld.uh	r9,r7[40]
8000764a:	a5 49       	asr	r9,0x4
8000764c:	20 2b       	sub	r11,2
8000764e:	6e 18       	ld.w	r8,r7[0x4]
80007650:	f2 08 00 08 	add	r8,r9,r8
80007654:	0f 89       	ld.ub	r9,r7[0x0]
80007656:	f6 09 03 48 	mac	r8,r11,r9
8000765a:	ce 1b       	rjmp	8000761c <fatfs_sector_reader+0x6c>
8000765c:	e3 cf 90 fc 	ldm	sp++,r2-r7,pc,r12=1

80007660 <fatfs_cache_init>:
80007660:	5e ff       	retal	1

80007662 <fatfs_cache_get_next_cluster>:
80007662:	5e fd       	retal	0

80007664 <fatfs_cache_set_next_cluster>:
80007664:	5e ff       	retal	1
80007666:	d7 03       	nop

80007668 <_free_file>:
80007668:	f8 f8 04 3c 	ld.w	r8,r12[1084]
8000766c:	58 08       	cp.w	r8,0
8000766e:	c1 f0       	breq	800076ac <_free_file+0x44>
80007670:	f8 f9 04 40 	ld.w	r9,r12[1088]
80007674:	91 19       	st.w	r8[0x4],r9
80007676:	f8 f8 04 40 	ld.w	r8,r12[1088]
8000767a:	f8 f9 04 3c 	ld.w	r9,r12[1084]
8000767e:	58 08       	cp.w	r8,0
80007680:	c1 e0       	breq	800076bc <_free_file+0x54>
80007682:	91 09       	st.w	r8[0x0],r9
80007684:	e0 6b 20 10 	mov	r11,8208
80007688:	f8 c9 fb c4 	sub	r9,r12,-1084
8000768c:	76 18       	ld.w	r8,r11[0x4]
8000768e:	58 08       	cp.w	r8,0
80007690:	c1 a0       	breq	800076c4 <_free_file+0x5c>
80007692:	f9 48 04 3c 	st.w	r12[1084],r8
80007696:	70 1a       	ld.w	r10,r8[0x4]
80007698:	f9 4a 04 40 	st.w	r12[1088],r10
8000769c:	70 1a       	ld.w	r10,r8[0x4]
8000769e:	58 0a       	cp.w	r10,0
800076a0:	f7 f9 0a 01 	st.weq	r11[0x4],r9
800076a4:	f5 f9 1a 00 	st.wne	r10[0x0],r9
800076a8:	91 19       	st.w	r8[0x4],r9
800076aa:	5e fc       	retal	r12
800076ac:	10 99       	mov	r9,r8
800076ae:	e0 6a 13 10 	mov	r10,4880
800076b2:	f8 f8 04 40 	ld.w	r8,r12[1088]
800076b6:	95 08       	st.w	r10[0x0],r8
800076b8:	58 08       	cp.w	r8,0
800076ba:	ce 41       	brne	80007682 <_free_file+0x1a>
800076bc:	e0 68 13 10 	mov	r8,4880
800076c0:	91 19       	st.w	r8[0x4],r9
800076c2:	ce 1b       	rjmp	80007684 <_free_file+0x1c>
800076c4:	76 08       	ld.w	r8,r11[0x0]
800076c6:	58 08       	cp.w	r8,0
800076c8:	c0 e0       	breq	800076e4 <_free_file+0x7c>
800076ca:	70 0a       	ld.w	r10,r8[0x0]
800076cc:	f9 48 04 40 	st.w	r12[1088],r8
800076d0:	f9 4a 04 3c 	st.w	r12[1084],r10
800076d4:	70 0a       	ld.w	r10,r8[0x0]
800076d6:	58 0a       	cp.w	r10,0
800076d8:	f7 f9 0a 00 	st.weq	r11[0x0],r9
800076dc:	f5 f9 1a 01 	st.wne	r10[0x4],r9
800076e0:	91 09       	st.w	r8[0x0],r9
800076e2:	5e fc       	retal	r12
800076e4:	97 19       	st.w	r11[0x4],r9
800076e6:	97 09       	st.w	r11[0x0],r9
800076e8:	f9 48 04 40 	st.w	r12[1088],r8
800076ec:	f9 48 04 3c 	st.w	r12[1084],r8
800076f0:	5e fc       	retal	r12
800076f2:	d7 03       	nop

800076f4 <fl_init>:
800076f4:	e0 68 17 84 	mov	r8,6020
800076f8:	30 09       	mov	r9,0
800076fa:	f1 49 08 84 	st.w	r8[2180],r9
800076fe:	f1 49 04 3c 	st.w	r8[1084],r9
80007702:	e0 6a 13 10 	mov	r10,4880
80007706:	95 09       	st.w	r10[0x0],r9
80007708:	95 19       	st.w	r10[0x4],r9
8000770a:	f0 c9 fb c4 	sub	r9,r8,-1084
8000770e:	f0 ca f7 80 	sub	r10,r8,-2176
80007712:	f1 49 08 80 	st.w	r8[2176],r9
80007716:	f1 4a 04 40 	st.w	r8[1088],r10
8000771a:	e0 68 20 10 	mov	r8,8208
8000771e:	91 09       	st.w	r8[0x0],r9
80007720:	91 1a       	st.w	r8[0x4],r10
80007722:	30 19       	mov	r9,1
80007724:	e0 68 20 0c 	mov	r8,8204
80007728:	91 09       	st.w	r8[0x0],r9
8000772a:	5e fc       	retal	r12

8000772c <_open_directory>:
8000772c:	eb cd 40 fe 	pushm	r1-r7,lr
80007730:	fa cd 01 24 	sub	sp,sp,292
80007734:	18 93       	mov	r3,r12
80007736:	16 91       	mov	r1,r11
80007738:	e0 6c 13 1c 	mov	r12,4892
8000773c:	fe b0 f8 25 	rcall	80006786 <fatfs_get_root_cluster>
80007740:	18 95       	mov	r5,r12
80007742:	06 9c       	mov	r12,r3
80007744:	e0 a0 0a f4 	rcall	80008d2c <fatfs_total_path_levels>
80007748:	18 92       	mov	r2,r12
8000774a:	c3 35       	brlt	800077b0 <_open_directory+0x84>
8000774c:	30 07       	mov	r7,0
8000774e:	1a 96       	mov	r6,sp
80007750:	fa c4 fe fc 	sub	r4,sp,-260
80007754:	c2 18       	rjmp	80007796 <_open_directory+0x6a>
80007756:	0a 9b       	mov	r11,r5
80007758:	08 99       	mov	r9,r4
8000775a:	1a 9a       	mov	r10,sp
8000775c:	e0 6c 13 1c 	mov	r12,4892
80007760:	fe b0 f9 88 	rcall	80006a70 <fatfs_get_file_entry>
80007764:	c2 30       	breq	800077aa <_open_directory+0x7e>
80007766:	08 9c       	mov	r12,r4
80007768:	e0 a0 07 46 	rcall	800085f4 <fatfs_entry_is_dir>
8000776c:	c1 f0       	breq	800077aa <_open_directory+0x7e>
8000776e:	fb 19 01 18 	ld.uh	r9,sp[280]
80007772:	fb 18 01 1e 	ld.uh	r8,sp[286]
80007776:	f2 05 15 08 	lsl	r5,r9,0x8
8000777a:	eb d5 c0 10 	bfextu	r5,r5,0x0,0x10
8000777e:	eb e9 12 85 	or	r5,r5,r9>>0x8
80007782:	f0 09 15 08 	lsl	r9,r8,0x8
80007786:	b1 65       	lsl	r5,0x10
80007788:	f3 d9 c0 10 	bfextu	r9,r9,0x0,0x10
8000778c:	f3 e8 12 88 	or	r8,r9,r8>>0x8
80007790:	10 05       	add	r5,r8
80007792:	0e 32       	cp.w	r2,r7
80007794:	c0 e5       	brlt	800077b0 <_open_directory+0x84>
80007796:	0e 9b       	mov	r11,r7
80007798:	e0 69 01 04 	mov	r9,260
8000779c:	2f f7       	sub	r7,-1
8000779e:	1a 9a       	mov	r10,sp
800077a0:	06 9c       	mov	r12,r3
800077a2:	e0 a0 0c 11 	rcall	80008fc4 <fatfs_get_substring>
800077a6:	5b fc       	cp.w	r12,-1
800077a8:	cd 71       	brne	80007756 <_open_directory+0x2a>
800077aa:	2b 7d       	sub	sp,-292
800077ac:	e3 cf 80 fe 	ldm	sp++,r1-r7,pc,r12=0
800077b0:	83 05       	st.w	r1[0x0],r5
800077b2:	2b 7d       	sub	sp,-292
800077b4:	e3 cf 90 fe 	ldm	sp++,r1-r7,pc,r12=1

800077b8 <_write_sectors>:
800077b8:	d4 31       	pushm	r0-r7,lr
800077ba:	20 3d       	sub	sp,12
800077bc:	3f f8       	mov	r8,-1
800077be:	12 90       	mov	r0,r9
800077c0:	50 28       	stdsp	sp[0x8],r8
800077c2:	e0 69 13 1c 	mov	r9,4892
800077c6:	50 0a       	stdsp	sp[0x0],r10
800077c8:	13 88       	ld.ub	r8,r9[0x0]
800077ca:	f6 08 0d 06 	divu	r6,r11,r8
800077ce:	18 95       	mov	r5,r12
800077d0:	ec 08 02 42 	mul	r2,r6,r8
800077d4:	0c 94       	mov	r4,r6
800077d6:	f6 02 01 02 	sub	r2,r11,r2
800077da:	f8 f7 02 28 	ld.w	r7,r12[552]
800077de:	e4 00 00 09 	add	r9,r2,r0
800077e2:	12 38       	cp.w	r8,r9
800077e4:	e0 01 17 20 	movhs	r1,r0
800077e8:	f1 d2 e3 11 	subcs	r1,r8,r2
800077ec:	0c 37       	cp.w	r7,r6
800077ee:	c5 b0       	breq	800078a4 <_write_sectors+0xec>
800077f0:	58 06       	cp.w	r6,0
800077f2:	c4 e1       	brne	8000788e <_write_sectors+0xd6>
800077f4:	6a 16       	ld.w	r6,r5[0x4]
800077f6:	30 07       	mov	r7,0
800077f8:	0e 34       	cp.w	r4,r7
800077fa:	e0 88 00 58 	brls	800078aa <_write_sectors+0xf2>
800077fe:	fa c3 ff fc 	sub	r3,sp,-4
80007802:	c0 98       	rjmp	80007814 <_write_sectors+0x5c>
80007804:	50 26       	stdsp	sp[0x8],r6
80007806:	2f f7       	sub	r7,-1
80007808:	40 16       	lddsp	r6,sp[0x4]
8000780a:	5b f6       	cp.w	r6,-1
8000780c:	c1 c0       	breq	80007844 <_write_sectors+0x8c>
8000780e:	0e 34       	cp.w	r4,r7
80007810:	e0 88 00 2a 	brls	80007864 <_write_sectors+0xac>
80007814:	0e 9a       	mov	r10,r7
80007816:	06 99       	mov	r9,r3
80007818:	0a 9b       	mov	r11,r5
8000781a:	e0 6c 13 1c 	mov	r12,4892
8000781e:	c2 2f       	rcall	80007662 <fatfs_cache_get_next_cluster>
80007820:	cf 21       	brne	80007804 <_write_sectors+0x4c>
80007822:	0c 9b       	mov	r11,r6
80007824:	e0 6c 13 1c 	mov	r12,4892
80007828:	e0 a0 0d 62 	rcall	800092ec <fatfs_find_next_cluster>
8000782c:	0e 9a       	mov	r10,r7
8000782e:	18 99       	mov	r9,r12
80007830:	50 1c       	stdsp	sp[0x4],r12
80007832:	0a 9b       	mov	r11,r5
80007834:	e0 6c 13 1c 	mov	r12,4892
80007838:	c1 6f       	rcall	80007664 <fatfs_cache_set_next_cluster>
8000783a:	50 26       	stdsp	sp[0x8],r6
8000783c:	2f f7       	sub	r7,-1
8000783e:	40 16       	lddsp	r6,sp[0x4]
80007840:	5b f6       	cp.w	r6,-1
80007842:	ce 61       	brne	8000780e <_write_sectors+0x56>
80007844:	e0 69 13 1c 	mov	r9,4892
80007848:	13 88       	ld.ub	r8,r9[0x0]
8000784a:	e0 cb 00 01 	sub	r11,r0,1
8000784e:	10 0b       	add	r11,r8
80007850:	f6 08 0d 0a 	divu	r10,r11,r8
80007854:	fa cb ff f8 	sub	r11,sp,-8
80007858:	e0 6c 13 1c 	mov	r12,4892
8000785c:	e0 a0 15 e6 	rcall	8000a428 <fatfs_add_free_space>
80007860:	c1 e0       	breq	8000789c <_write_sectors+0xe4>
80007862:	40 26       	lddsp	r6,sp[0x8]
80007864:	eb 44 02 28 	st.w	r5[552],r4
80007868:	eb 46 02 2c 	st.w	r5[556],r6
8000786c:	0c 9b       	mov	r11,r6
8000786e:	e0 6c 13 1c 	mov	r12,4892
80007872:	fe b0 f7 65 	rcall	8000673c <fatfs_lba_of_cluster>
80007876:	02 99       	mov	r9,r1
80007878:	f8 02 00 0b 	add	r11,r12,r2
8000787c:	40 0a       	lddsp	r10,sp[0x0]
8000787e:	e0 6c 13 1c 	mov	r12,4892
80007882:	fe b0 f7 7a 	rcall	80006776 <fatfs_sector_write>
80007886:	c0 b0       	breq	8000789c <_write_sectors+0xe4>
80007888:	02 9c       	mov	r12,r1
8000788a:	2f dd       	sub	sp,-12
8000788c:	d8 32       	popm	r0-r7,pc
8000788e:	ee c9 ff ff 	sub	r9,r7,-1
80007892:	0c 39       	cp.w	r9,r6
80007894:	cb 01       	brne	800077f4 <_write_sectors+0x3c>
80007896:	f8 f6 02 2c 	ld.w	r6,r12[556]
8000789a:	ca fb       	rjmp	800077f8 <_write_sectors+0x40>
8000789c:	30 01       	mov	r1,0
8000789e:	02 9c       	mov	r12,r1
800078a0:	2f dd       	sub	sp,-12
800078a2:	d8 32       	popm	r0-r7,pc
800078a4:	f8 f6 02 2c 	ld.w	r6,r12[556]
800078a8:	ce 2b       	rjmp	8000786c <_write_sectors+0xb4>
800078aa:	5b f6       	cp.w	r6,-1
800078ac:	cd c1       	brne	80007864 <_write_sectors+0xac>
800078ae:	cc eb       	rjmp	8000784a <_write_sectors+0x92>

800078b0 <_read_sectors>:
800078b0:	d4 31       	pushm	r0-r7,lr
800078b2:	20 1d       	sub	sp,4
800078b4:	12 92       	mov	r2,r9
800078b6:	e0 68 13 1c 	mov	r8,4892
800078ba:	18 96       	mov	r6,r12
800078bc:	11 88       	ld.ub	r8,r8[0x0]
800078be:	14 90       	mov	r0,r10
800078c0:	f6 08 0d 04 	divu	r4,r11,r8
800078c4:	f8 f7 02 28 	ld.w	r7,r12[552]
800078c8:	e8 08 02 41 	mul	r1,r4,r8
800078cc:	08 95       	mov	r5,r4
800078ce:	f6 01 01 01 	sub	r1,r11,r1
800078d2:	e2 09 00 09 	add	r9,r1,r9
800078d6:	12 38       	cp.w	r8,r9
800078d8:	f1 d1 e3 12 	subcs	r2,r8,r1
800078dc:	08 37       	cp.w	r7,r4
800078de:	c3 e0       	breq	8000795a <_read_sectors+0xaa>
800078e0:	58 04       	cp.w	r4,0
800078e2:	c4 41       	brne	8000796a <_read_sectors+0xba>
800078e4:	6c 14       	ld.w	r4,r6[0x4]
800078e6:	30 07       	mov	r7,0
800078e8:	0e 35       	cp.w	r5,r7
800078ea:	e0 88 00 21 	brls	8000792c <_read_sectors+0x7c>
800078ee:	1a 93       	mov	r3,sp
800078f0:	c0 68       	rjmp	800078fc <_read_sectors+0x4c>
800078f2:	2f f7       	sub	r7,-1
800078f4:	40 04       	lddsp	r4,sp[0x0]
800078f6:	0e 35       	cp.w	r5,r7
800078f8:	e0 88 00 1a 	brls	8000792c <_read_sectors+0x7c>
800078fc:	0e 9a       	mov	r10,r7
800078fe:	1a 99       	mov	r9,sp
80007900:	0c 9b       	mov	r11,r6
80007902:	e0 6c 13 1c 	mov	r12,4892
80007906:	ca ee       	rcall	80007662 <fatfs_cache_get_next_cluster>
80007908:	cf 51       	brne	800078f2 <_read_sectors+0x42>
8000790a:	08 9b       	mov	r11,r4
8000790c:	e0 6c 13 1c 	mov	r12,4892
80007910:	e0 a0 0c ee 	rcall	800092ec <fatfs_find_next_cluster>
80007914:	0e 9a       	mov	r10,r7
80007916:	18 99       	mov	r9,r12
80007918:	50 0c       	stdsp	sp[0x0],r12
8000791a:	0c 9b       	mov	r11,r6
8000791c:	e0 6c 13 1c 	mov	r12,4892
80007920:	ca 2e       	rcall	80007664 <fatfs_cache_set_next_cluster>
80007922:	2f f7       	sub	r7,-1
80007924:	40 04       	lddsp	r4,sp[0x0]
80007926:	0e 35       	cp.w	r5,r7
80007928:	fe 9b ff ea 	brhi	800078fc <_read_sectors+0x4c>
8000792c:	5b f4       	cp.w	r4,-1
8000792e:	c1 a0       	breq	80007962 <_read_sectors+0xb2>
80007930:	ed 45 02 28 	st.w	r6[552],r5
80007934:	ed 44 02 2c 	st.w	r6[556],r4
80007938:	08 9b       	mov	r11,r4
8000793a:	e0 6c 13 1c 	mov	r12,4892
8000793e:	fe b0 f6 ff 	rcall	8000673c <fatfs_lba_of_cluster>
80007942:	04 99       	mov	r9,r2
80007944:	f8 01 00 0b 	add	r11,r12,r1
80007948:	00 9a       	mov	r10,r0
8000794a:	e0 6c 13 1c 	mov	r12,4892
8000794e:	fe b0 f7 0c 	rcall	80006766 <fatfs_sector_read>
80007952:	c0 80       	breq	80007962 <_read_sectors+0xb2>
80007954:	04 9c       	mov	r12,r2
80007956:	2f fd       	sub	sp,-4
80007958:	d8 32       	popm	r0-r7,pc
8000795a:	f8 f4 02 2c 	ld.w	r4,r12[556]
8000795e:	5b f4       	cp.w	r4,-1
80007960:	ce c1       	brne	80007938 <_read_sectors+0x88>
80007962:	30 02       	mov	r2,0
80007964:	04 9c       	mov	r12,r2
80007966:	2f fd       	sub	sp,-4
80007968:	d8 32       	popm	r0-r7,pc
8000796a:	ee c8 ff ff 	sub	r8,r7,-1
8000796e:	08 38       	cp.w	r8,r4
80007970:	cb a1       	brne	800078e4 <_read_sectors+0x34>
80007972:	f8 f4 02 2c 	ld.w	r4,r12[556]
80007976:	cb 9b       	rjmp	800078e8 <_read_sectors+0x38>

80007978 <_create_file>:
80007978:	eb cd 40 fc 	pushm	r2-r7,lr
8000797c:	20 bd       	sub	sp,44
8000797e:	e0 68 13 1c 	mov	r8,4892
80007982:	18 93       	mov	r3,r12
80007984:	70 e8       	ld.w	r8,r8[0x38]
80007986:	58 08       	cp.w	r8,0
80007988:	c0 61       	brne	80007994 <_create_file+0x1c>
8000798a:	30 07       	mov	r7,0
8000798c:	0e 9c       	mov	r12,r7
8000798e:	2f 5d       	sub	sp,-44
80007990:	e3 cd 80 fc 	ldm	sp++,r2-r7,pc
80007994:	e0 69 20 10 	mov	r9,8208
80007998:	72 05       	ld.w	r5,r9[0x0]
8000799a:	58 05       	cp.w	r5,0
8000799c:	cf 70       	breq	8000798a <_create_file+0x12>
8000799e:	6a 08       	ld.w	r8,r5[0x0]
800079a0:	58 08       	cp.w	r8,0
800079a2:	f0 0a 17 00 	moveq	r10,r8
800079a6:	eb f8 00 01 	ld.weq	r8,r5[0x4]
800079aa:	f3 f8 0a 00 	st.weq	r9[0x0],r8
800079ae:	eb fa 10 01 	ld.wne	r10,r5[0x4]
800079b2:	f1 fa 1a 01 	st.wne	r8[0x4],r10
800079b6:	eb f8 10 01 	ld.wne	r8,r5[0x4]
800079ba:	eb fa 10 00 	ld.wne	r10,r5[0x0]
800079be:	f3 fa 0a 01 	st.weq	r9[0x4],r10
800079c2:	f1 fa 1a 00 	st.wne	r8[0x0],r10
800079c6:	e0 64 13 10 	mov	r4,4880
800079ca:	68 18       	ld.w	r8,r4[0x4]
800079cc:	58 08       	cp.w	r8,0
800079ce:	e0 80 00 b9 	breq	80007b40 <_create_file+0x1c8>
800079d2:	8b 08       	st.w	r5[0x0],r8
800079d4:	70 19       	ld.w	r9,r8[0x4]
800079d6:	8b 19       	st.w	r5[0x4],r9
800079d8:	70 19       	ld.w	r9,r8[0x4]
800079da:	58 09       	cp.w	r9,0
800079dc:	e9 f5 0a 01 	st.weq	r4[0x4],r5
800079e0:	f3 f5 1a 00 	st.wne	r9[0x0],r5
800079e4:	91 15       	st.w	r8[0x4],r5
800079e6:	ea c7 04 3c 	sub	r7,r5,1084
800079ea:	cd 10       	breq	8000798c <_create_file+0x14>
800079ec:	ea c6 04 28 	sub	r6,r5,1064
800079f0:	e0 6a 01 04 	mov	r10,260
800079f4:	30 0b       	mov	r11,0
800079f6:	0c 9c       	mov	r12,r6
800079f8:	e0 a0 17 c4 	rcall	8000a980 <memset>
800079fc:	ea c5 03 24 	sub	r5,r5,804
80007a00:	e0 6a 01 04 	mov	r10,260
80007a04:	30 0b       	mov	r11,0
80007a06:	0a 9c       	mov	r12,r5
80007a08:	e0 a0 17 bc 	rcall	8000a980 <memset>
80007a0c:	e0 68 01 04 	mov	r8,260
80007a10:	06 9c       	mov	r12,r3
80007a12:	0a 99       	mov	r9,r5
80007a14:	10 9a       	mov	r10,r8
80007a16:	0c 9b       	mov	r11,r6
80007a18:	e0 a0 0b 2e 	rcall	80009074 <fatfs_split_path>
80007a1c:	5b fc       	cp.w	r12,-1
80007a1e:	c1 80       	breq	80007a4e <_create_file+0xd6>
80007a20:	68 04       	ld.w	r4,r4[0x0]
80007a22:	58 04       	cp.w	r4,0
80007a24:	c0 51       	brne	80007a2e <_create_file+0xb6>
80007a26:	c1 88       	rjmp	80007a56 <_create_file+0xde>
80007a28:	68 14       	ld.w	r4,r4[0x4]
80007a2a:	58 04       	cp.w	r4,0
80007a2c:	c1 50       	breq	80007a56 <_create_file+0xde>
80007a2e:	e8 c8 04 3c 	sub	r8,r4,1084
80007a32:	10 37       	cp.w	r7,r8
80007a34:	cf a0       	breq	80007a28 <_create_file+0xb0>
80007a36:	0c 9b       	mov	r11,r6
80007a38:	e8 cc 04 28 	sub	r12,r4,1064
80007a3c:	e0 a0 09 cc 	rcall	80008dd4 <fatfs_compare_names>
80007a40:	cf 40       	breq	80007a28 <_create_file+0xb0>
80007a42:	e8 cc 03 24 	sub	r12,r4,804
80007a46:	0a 9b       	mov	r11,r5
80007a48:	e0 a0 09 c6 	rcall	80008dd4 <fatfs_compare_names>
80007a4c:	ce e0       	breq	80007a28 <_create_file+0xb0>
80007a4e:	0e 9c       	mov	r12,r7
80007a50:	c0 ce       	rcall	80007668 <_free_file>
80007a52:	30 07       	mov	r7,0
80007a54:	c9 cb       	rjmp	8000798c <_create_file+0x14>
80007a56:	ef 39 00 14 	ld.ub	r9,r7[20]
80007a5a:	30 08       	mov	r8,0
80007a5c:	f0 09 18 00 	cp.b	r9,r8
80007a60:	c6 81       	brne	80007b30 <_create_file+0x1b8>
80007a62:	e0 6c 13 1c 	mov	r12,4892
80007a66:	fe b0 f6 90 	rcall	80006786 <fatfs_get_root_cluster>
80007a6a:	18 9b       	mov	r11,r12
80007a6c:	8f 0c       	st.w	r7[0x0],r12
80007a6e:	1a 99       	mov	r9,sp
80007a70:	0a 9a       	mov	r10,r5
80007a72:	e0 6c 13 1c 	mov	r12,4892
80007a76:	fe b0 f7 fd 	rcall	80006a70 <fatfs_get_file_entry>
80007a7a:	58 1c       	cp.w	r12,1
80007a7c:	ce 90       	breq	80007a4e <_create_file+0xd6>
80007a7e:	30 19       	mov	r9,1
80007a80:	30 06       	mov	r6,0
80007a82:	ee ca ff fc 	sub	r10,r7,-4
80007a86:	8f 16       	st.w	r7[0x4],r6
80007a88:	12 9b       	mov	r11,r9
80007a8a:	e0 6c 13 1c 	mov	r12,4892
80007a8e:	e0 a0 15 01 	rcall	8000a490 <fatfs_allocate_free_space>
80007a92:	18 98       	mov	r8,r12
80007a94:	c6 e0       	breq	80007b70 <_create_file+0x1f8>
80007a96:	0c 94       	mov	r4,r6
80007a98:	ee c3 fd e4 	sub	r3,r7,-540
80007a9c:	fa c2 ff e0 	sub	r2,sp,-32
80007aa0:	c1 28       	rjmp	80007ac4 <_create_file+0x14c>
80007aa2:	08 9a       	mov	r10,r4
80007aa4:	04 9b       	mov	r11,r2
80007aa6:	06 9c       	mov	r12,r3
80007aa8:	e0 a0 06 56 	rcall	80008754 <fatfs_lfn_generate_tail>
80007aac:	06 9a       	mov	r10,r3
80007aae:	6e 0b       	ld.w	r11,r7[0x0]
80007ab0:	e0 6c 13 1c 	mov	r12,4892
80007ab4:	fe b0 f8 86 	rcall	80006bc0 <fatfs_sfn_exists>
80007ab8:	18 96       	mov	r6,r12
80007aba:	c1 10       	breq	80007adc <_create_file+0x164>
80007abc:	2f f4       	sub	r4,-1
80007abe:	e0 44 27 0f 	cp.w	r4,9999
80007ac2:	c5 c0       	breq	80007b7a <_create_file+0x202>
80007ac4:	0a 9b       	mov	r11,r5
80007ac6:	04 9c       	mov	r12,r2
80007ac8:	e0 a0 06 a8 	rcall	80008818 <fatfs_lfn_create_sfn>
80007acc:	58 04       	cp.w	r4,0
80007ace:	ce a1       	brne	80007aa2 <_create_file+0x12a>
80007ad0:	30 ba       	mov	r10,11
80007ad2:	04 9b       	mov	r11,r2
80007ad4:	06 9c       	mov	r12,r3
80007ad6:	e0 a0 16 b1 	rcall	8000a838 <memcpy>
80007ada:	ce 9b       	rjmp	80007aac <_create_file+0x134>
80007adc:	e0 44 27 0f 	cp.w	r4,9999
80007ae0:	c4 d0       	breq	80007b7a <_create_file+0x202>
80007ae2:	1a dc       	st.w	--sp,r12
80007ae4:	0a 9a       	mov	r10,r5
80007ae6:	1a dc       	st.w	--sp,r12
80007ae8:	06 99       	mov	r9,r3
80007aea:	6e 18       	ld.w	r8,r7[0x4]
80007aec:	6e 0b       	ld.w	r11,r7[0x0]
80007aee:	e0 6c 13 1c 	mov	r12,4892
80007af2:	e0 a0 0f e3 	rcall	80009ab8 <fatfs_add_file_entry>
80007af6:	2f ed       	sub	sp,-8
80007af8:	18 95       	mov	r5,r12
80007afa:	58 0c       	cp.w	r12,0
80007afc:	c3 00       	breq	80007b5c <_create_file+0x1e4>
80007afe:	3f f8       	mov	r8,-1
80007b00:	0e 9b       	mov	r11,r7
80007b02:	ef 48 02 2c 	st.w	r7[556],r8
80007b06:	ef 48 04 30 	st.w	r7[1072],r8
80007b0a:	ef 48 02 28 	st.w	r7[552],r8
80007b0e:	8f 46       	st.w	r7[0x10],r6
80007b10:	8f 36       	st.w	r7[0xc],r6
80007b12:	8f 26       	st.w	r7[0x8],r6
80007b14:	ef 46 04 34 	st.w	r7[1076],r6
80007b18:	e0 6c 13 1c 	mov	r12,4892
80007b1c:	fe b0 fd a2 	rcall	80007660 <fatfs_cache_init>
80007b20:	e0 6c 13 1c 	mov	r12,4892
80007b24:	e0 a0 0b b8 	rcall	80009294 <fatfs_fat_purge>
80007b28:	0e 9c       	mov	r12,r7
80007b2a:	2f 5d       	sub	sp,-44
80007b2c:	e3 cd 80 fc 	ldm	sp++,r2-r7,pc
80007b30:	0c 9c       	mov	r12,r6
80007b32:	0e 9b       	mov	r11,r7
80007b34:	fe b0 fd fc 	rcall	8000772c <_open_directory>
80007b38:	18 98       	mov	r8,r12
80007b3a:	c1 b0       	breq	80007b70 <_create_file+0x1f8>
80007b3c:	6e 0b       	ld.w	r11,r7[0x0]
80007b3e:	c9 8b       	rjmp	80007a6e <_create_file+0xf6>
80007b40:	68 08       	ld.w	r8,r4[0x0]
80007b42:	58 08       	cp.w	r8,0
80007b44:	c2 10       	breq	80007b86 <_create_file+0x20e>
80007b46:	70 09       	ld.w	r9,r8[0x0]
80007b48:	8b 18       	st.w	r5[0x4],r8
80007b4a:	8b 09       	st.w	r5[0x0],r9
80007b4c:	70 09       	ld.w	r9,r8[0x0]
80007b4e:	58 09       	cp.w	r9,0
80007b50:	e9 f5 0a 00 	st.weq	r4[0x0],r5
80007b54:	f3 f5 1a 01 	st.wne	r9[0x4],r5
80007b58:	91 05       	st.w	r8[0x0],r5
80007b5a:	c4 6b       	rjmp	800079e6 <_create_file+0x6e>
80007b5c:	6e 1b       	ld.w	r11,r7[0x4]
80007b5e:	e0 6c 13 1c 	mov	r12,4892
80007b62:	e0 a0 0d 9f 	rcall	800096a0 <fatfs_free_cluster_chain>
80007b66:	0e 9c       	mov	r12,r7
80007b68:	0a 97       	mov	r7,r5
80007b6a:	fe b0 fd 7f 	rcall	80007668 <_free_file>
80007b6e:	c0 fb       	rjmp	8000798c <_create_file+0x14>
80007b70:	0e 9c       	mov	r12,r7
80007b72:	10 97       	mov	r7,r8
80007b74:	fe b0 fd 7a 	rcall	80007668 <_free_file>
80007b78:	c0 ab       	rjmp	8000798c <_create_file+0x14>
80007b7a:	6e 1b       	ld.w	r11,r7[0x4]
80007b7c:	e0 6c 13 1c 	mov	r12,4892
80007b80:	e0 a0 0d 90 	rcall	800096a0 <fatfs_free_cluster_chain>
80007b84:	c6 5b       	rjmp	80007a4e <_create_file+0xd6>
80007b86:	89 05       	st.w	r4[0x0],r5
80007b88:	89 15       	st.w	r4[0x4],r5
80007b8a:	8b 18       	st.w	r5[0x4],r8
80007b8c:	8b 08       	st.w	r5[0x0],r8
80007b8e:	c2 cb       	rjmp	800079e6 <_create_file+0x6e>

80007b90 <fl_readdir>:
80007b90:	eb cd 40 e0 	pushm	r5-r7,lr
80007b94:	20 1d       	sub	sp,4
80007b96:	e0 69 20 0c 	mov	r9,8204
80007b9a:	18 96       	mov	r6,r12
80007b9c:	16 95       	mov	r5,r11
80007b9e:	72 08       	ld.w	r8,r9[0x0]
80007ba0:	58 08       	cp.w	r8,0
80007ba2:	c1 b0       	breq	80007bd8 <fl_readdir+0x48>
80007ba4:	e0 67 13 1c 	mov	r7,4892
80007ba8:	6e f8       	ld.w	r8,r7[0x3c]
80007baa:	58 08       	cp.w	r8,0
80007bac:	c0 20       	breq	80007bb0 <fl_readdir+0x20>
80007bae:	5d 18       	icall	r8
80007bb0:	0a 9a       	mov	r10,r5
80007bb2:	0c 9b       	mov	r11,r6
80007bb4:	e0 6c 13 1c 	mov	r12,4892
80007bb8:	fe b0 fb a8 	rcall	80007308 <fatfs_list_directory_next>
80007bbc:	6f 08       	ld.w	r8,r7[0x40]
80007bbe:	58 08       	cp.w	r8,0
80007bc0:	c0 40       	breq	80007bc8 <fl_readdir+0x38>
80007bc2:	50 0c       	stdsp	sp[0x0],r12
80007bc4:	5d 18       	icall	r8
80007bc6:	40 0c       	lddsp	r12,sp[0x0]
80007bc8:	58 0c       	cp.w	r12,0
80007bca:	f9 bc 00 ff 	moveq	r12,-1
80007bce:	f9 bc 01 00 	movne	r12,0
80007bd2:	2f fd       	sub	sp,-4
80007bd4:	e3 cd 80 e0 	ldm	sp++,r5-r7,pc
80007bd8:	e0 6a 17 84 	mov	r10,6020
80007bdc:	f5 48 08 84 	st.w	r10[2180],r8
80007be0:	f5 48 04 3c 	st.w	r10[1084],r8
80007be4:	e0 6b 13 10 	mov	r11,4880
80007be8:	97 08       	st.w	r11[0x0],r8
80007bea:	97 18       	st.w	r11[0x4],r8
80007bec:	f4 cc f7 80 	sub	r12,r10,-2176
80007bf0:	e0 68 20 10 	mov	r8,8208
80007bf4:	f5 4c 04 40 	st.w	r10[1088],r12
80007bf8:	f4 cb fb c4 	sub	r11,r10,-1084
80007bfc:	f5 4b 08 80 	st.w	r10[2176],r11
80007c00:	91 1c       	st.w	r8[0x4],r12
80007c02:	91 0b       	st.w	r8[0x0],r11
80007c04:	30 18       	mov	r8,1
80007c06:	93 08       	st.w	r9[0x0],r8
80007c08:	cc eb       	rjmp	80007ba4 <fl_readdir+0x14>
80007c0a:	d7 03       	nop

80007c0c <fl_opendir>:
80007c0c:	eb cd 40 e0 	pushm	r5-r7,lr
80007c10:	20 1d       	sub	sp,4
80007c12:	3f f8       	mov	r8,-1
80007c14:	50 08       	stdsp	sp[0x0],r8
80007c16:	e0 69 20 0c 	mov	r9,8204
80007c1a:	18 95       	mov	r5,r12
80007c1c:	16 96       	mov	r6,r11
80007c1e:	72 08       	ld.w	r8,r9[0x0]
80007c20:	58 08       	cp.w	r8,0
80007c22:	c1 e0       	breq	80007c5e <fl_opendir+0x52>
80007c24:	e0 67 13 1c 	mov	r7,4892
80007c28:	6e f8       	ld.w	r8,r7[0x3c]
80007c2a:	58 08       	cp.w	r8,0
80007c2c:	c0 20       	breq	80007c30 <fl_opendir+0x24>
80007c2e:	5d 18       	icall	r8
80007c30:	0a 9c       	mov	r12,r5
80007c32:	e0 a0 08 7d 	rcall	80008d2c <fatfs_total_path_levels>
80007c36:	5b fc       	cp.w	r12,-1
80007c38:	c2 c0       	breq	80007c90 <fl_opendir+0x84>
80007c3a:	0a 9c       	mov	r12,r5
80007c3c:	1a 9b       	mov	r11,sp
80007c3e:	fe b0 fd 77 	rcall	8000772c <_open_directory>
80007c42:	c3 31       	brne	80007ca8 <fl_opendir+0x9c>
80007c44:	6f 08       	ld.w	r8,r7[0x40]
80007c46:	58 08       	cp.w	r8,0
80007c48:	c0 20       	breq	80007c4c <fl_opendir+0x40>
80007c4a:	5d 18       	icall	r8
80007c4c:	40 0c       	lddsp	r12,sp[0x0]
80007c4e:	5b fc       	cp.w	r12,-1
80007c50:	ec 0c 17 10 	movne	r12,r6
80007c54:	f9 bc 00 00 	moveq	r12,0
80007c58:	2f fd       	sub	sp,-4
80007c5a:	e3 cd 80 e0 	ldm	sp++,r5-r7,pc
80007c5e:	e0 6a 17 84 	mov	r10,6020
80007c62:	f5 48 08 84 	st.w	r10[2180],r8
80007c66:	f5 48 04 3c 	st.w	r10[1084],r8
80007c6a:	e0 6b 13 10 	mov	r11,4880
80007c6e:	97 08       	st.w	r11[0x0],r8
80007c70:	97 18       	st.w	r11[0x4],r8
80007c72:	f4 cc f7 80 	sub	r12,r10,-2176
80007c76:	e0 68 20 10 	mov	r8,8208
80007c7a:	f5 4c 04 40 	st.w	r10[1088],r12
80007c7e:	f4 cb fb c4 	sub	r11,r10,-1084
80007c82:	f5 4b 08 80 	st.w	r10[2176],r11
80007c86:	91 1c       	st.w	r8[0x4],r12
80007c88:	91 0b       	st.w	r8[0x0],r11
80007c8a:	30 18       	mov	r8,1
80007c8c:	93 08       	st.w	r9[0x0],r8
80007c8e:	cc bb       	rjmp	80007c24 <fl_opendir+0x18>
80007c90:	e0 6c 13 1c 	mov	r12,4892
80007c94:	fe b0 f5 79 	rcall	80006786 <fatfs_get_root_cluster>
80007c98:	18 9a       	mov	r10,r12
80007c9a:	50 0c       	stdsp	sp[0x0],r12
80007c9c:	0c 9b       	mov	r11,r6
80007c9e:	e0 6c 13 1c 	mov	r12,4892
80007ca2:	fe b0 f5 74 	rcall	8000678a <fatfs_list_directory_start>
80007ca6:	cc fb       	rjmp	80007c44 <fl_opendir+0x38>
80007ca8:	40 0a       	lddsp	r10,sp[0x0]
80007caa:	cf 9b       	rjmp	80007c9c <fl_opendir+0x90>

80007cac <fl_fflush>:
80007cac:	eb cd 40 c0 	pushm	r6-r7,lr
80007cb0:	e0 69 20 0c 	mov	r9,8204
80007cb4:	18 97       	mov	r7,r12
80007cb6:	72 08       	ld.w	r8,r9[0x0]
80007cb8:	58 08       	cp.w	r8,0
80007cba:	c1 30       	breq	80007ce0 <fl_fflush+0x34>
80007cbc:	58 07       	cp.w	r7,0
80007cbe:	c0 f0       	breq	80007cdc <fl_fflush+0x30>
80007cc0:	e0 66 13 1c 	mov	r6,4892
80007cc4:	6c f8       	ld.w	r8,r6[0x3c]
80007cc6:	58 08       	cp.w	r8,0
80007cc8:	c0 20       	breq	80007ccc <fl_fflush+0x20>
80007cca:	5d 18       	icall	r8
80007ccc:	ee f8 04 34 	ld.w	r8,r7[1076]
80007cd0:	58 08       	cp.w	r8,0
80007cd2:	c2 01       	brne	80007d12 <fl_fflush+0x66>
80007cd4:	6d 08       	ld.w	r8,r6[0x40]
80007cd6:	58 08       	cp.w	r8,0
80007cd8:	c0 20       	breq	80007cdc <fl_fflush+0x30>
80007cda:	5d 18       	icall	r8
80007cdc:	e3 cf 80 c0 	ldm	sp++,r6-r7,pc,r12=0
80007ce0:	e0 6a 17 84 	mov	r10,6020
80007ce4:	f5 48 08 84 	st.w	r10[2180],r8
80007ce8:	f5 48 04 3c 	st.w	r10[1084],r8
80007cec:	e0 6b 13 10 	mov	r11,4880
80007cf0:	97 08       	st.w	r11[0x0],r8
80007cf2:	97 18       	st.w	r11[0x4],r8
80007cf4:	f4 cc f7 80 	sub	r12,r10,-2176
80007cf8:	e0 68 20 10 	mov	r8,8208
80007cfc:	f5 4c 04 40 	st.w	r10[1088],r12
80007d00:	f4 cb fb c4 	sub	r11,r10,-1084
80007d04:	f5 4b 08 80 	st.w	r10[2176],r11
80007d08:	91 1c       	st.w	r8[0x4],r12
80007d0a:	91 0b       	st.w	r8[0x0],r11
80007d0c:	30 18       	mov	r8,1
80007d0e:	93 08       	st.w	r9[0x0],r8
80007d10:	cd 6b       	rjmp	80007cbc <fl_fflush+0x10>
80007d12:	30 19       	mov	r9,1
80007d14:	ee ca fd d0 	sub	r10,r7,-560
80007d18:	ee fb 04 30 	ld.w	r11,r7[1072]
80007d1c:	0e 9c       	mov	r12,r7
80007d1e:	fe b0 fd 4d 	rcall	800077b8 <_write_sectors>
80007d22:	f9 b8 01 00 	movne	r8,0
80007d26:	ef f8 1b 0d 	st.wne	r7[0x434],r8
80007d2a:	cd 5b       	rjmp	80007cd4 <fl_fflush+0x28>

80007d2c <T.96>:
80007d2c:	eb cd 40 fe 	pushm	r1-r7,lr
80007d30:	e0 68 20 0c 	mov	r8,8204
80007d34:	18 95       	mov	r5,r12
80007d36:	16 97       	mov	r7,r11
80007d38:	70 08       	ld.w	r8,r8[0x0]
80007d3a:	58 08       	cp.w	r8,0
80007d3c:	c0 c0       	breq	80007d54 <T.96+0x28>
80007d3e:	58 07       	cp.w	r7,0
80007d40:	5f 09       	sreq	r9
80007d42:	58 05       	cp.w	r5,0
80007d44:	5f 08       	sreq	r8
80007d46:	f3 e8 10 08 	or	r8,r9,r8
80007d4a:	c0 80       	breq	80007d5a <T.96+0x2e>
80007d4c:	3f f6       	mov	r6,-1
80007d4e:	0c 9c       	mov	r12,r6
80007d50:	e3 cd 80 fe 	ldm	sp++,r1-r7,pc
80007d54:	fe b0 fc d0 	rcall	800076f4 <fl_init>
80007d58:	cf 3b       	rjmp	80007d3e <T.96+0x12>
80007d5a:	ef 38 04 38 	ld.ub	r8,r7[1080]
80007d5e:	ed b8 00 00 	bld	r8,0x0
80007d62:	cf 51       	brne	80007d4c <T.96+0x20>
80007d64:	6e 24       	ld.w	r4,r7[0x8]
80007d66:	6e 32       	ld.w	r2,r7[0xc]
80007d68:	04 34       	cp.w	r4,r2
80007d6a:	cf 12       	brcc	80007d4c <T.96+0x20>
80007d6c:	e8 c8 ff ff 	sub	r8,r4,-1
80007d70:	10 32       	cp.w	r2,r8
80007d72:	c4 e2       	brcc	80007e0e <T.96+0xe2>
80007d74:	08 12       	sub	r2,r4
80007d76:	58 02       	cp.w	r2,0
80007d78:	e0 8a 00 50 	brle	80007e18 <T.96+0xec>
80007d7c:	e7 d4 c0 09 	bfextu	r3,r4,0x0,0x9
80007d80:	a9 94       	lsr	r4,0x9
80007d82:	ee c1 fd d0 	sub	r1,r7,-560
80007d86:	30 06       	mov	r6,0
80007d88:	58 03       	cp.w	r3,0
80007d8a:	c2 b1       	brne	80007de0 <T.96+0xb4>
80007d8c:	c2 48       	rjmp	80007dd4 <T.96+0xa8>
80007d8e:	30 19       	mov	r9,1
80007d90:	02 9a       	mov	r10,r1
80007d92:	08 9b       	mov	r11,r4
80007d94:	0e 9c       	mov	r12,r7
80007d96:	fe b0 fd 8d 	rcall	800078b0 <_read_sectors>
80007d9a:	cd a0       	breq	80007d4e <T.96+0x22>
80007d9c:	30 08       	mov	r8,0
80007d9e:	ef 44 04 30 	st.w	r7[1072],r4
80007da2:	ef 48 04 34 	st.w	r7[1076],r8
80007da6:	e0 68 02 00 	mov	r8,512
80007daa:	e2 03 00 0b 	add	r11,r1,r3
80007dae:	f0 03 01 03 	sub	r3,r8,r3
80007db2:	e4 06 01 08 	sub	r8,r2,r6
80007db6:	2f f4       	sub	r4,-1
80007db8:	e6 08 0d 43 	min	r3,r3,r8
80007dbc:	ea 06 00 0c 	add	r12,r5,r6
80007dc0:	06 9a       	mov	r10,r3
80007dc2:	e0 a0 15 3b 	rcall	8000a838 <memcpy>
80007dc6:	6e 28       	ld.w	r8,r7[0x8]
80007dc8:	06 08       	add	r8,r3
80007dca:	8f 28       	st.w	r7[0x8],r8
80007dcc:	06 06       	add	r6,r3
80007dce:	30 03       	mov	r3,0
80007dd0:	04 36       	cp.w	r6,r2
80007dd2:	cb e4       	brge	80007d4e <T.96+0x22>
80007dd4:	e4 06 01 09 	sub	r9,r2,r6
80007dd8:	e0 49 01 ff 	cp.w	r9,511
80007ddc:	e0 89 00 0d 	brgt	80007df6 <T.96+0xca>
80007de0:	ee f8 04 30 	ld.w	r8,r7[1072]
80007de4:	10 34       	cp.w	r4,r8
80007de6:	ce 00       	breq	80007da6 <T.96+0x7a>
80007de8:	ee f8 04 34 	ld.w	r8,r7[1076]
80007dec:	58 08       	cp.w	r8,0
80007dee:	cd 00       	breq	80007d8e <T.96+0x62>
80007df0:	0e 9c       	mov	r12,r7
80007df2:	c5 df       	rcall	80007cac <fl_fflush>
80007df4:	cc db       	rjmp	80007d8e <T.96+0x62>
80007df6:	a9 59       	asr	r9,0x9
80007df8:	ea 06 00 0a 	add	r10,r5,r6
80007dfc:	08 9b       	mov	r11,r4
80007dfe:	0e 9c       	mov	r12,r7
80007e00:	fe b0 fd 58 	rcall	800078b0 <_read_sectors>
80007e04:	ca 50       	breq	80007d4e <T.96+0x22>
80007e06:	18 04       	add	r4,r12
80007e08:	f8 03 15 09 	lsl	r3,r12,0x9
80007e0c:	cd db       	rjmp	80007dc6 <T.96+0x9a>
80007e0e:	e7 d4 c0 09 	bfextu	r3,r4,0x0,0x9
80007e12:	30 12       	mov	r2,1
80007e14:	a9 94       	lsr	r4,0x9
80007e16:	cb 6b       	rjmp	80007d82 <T.96+0x56>
80007e18:	30 06       	mov	r6,0
80007e1a:	c9 ab       	rjmp	80007d4e <T.96+0x22>

80007e1c <fl_fgetc>:
80007e1c:	d4 01       	pushm	lr
80007e1e:	20 1d       	sub	sp,4
80007e20:	30 08       	mov	r8,0
80007e22:	18 9b       	mov	r11,r12
80007e24:	fa cc ff fc 	sub	r12,sp,-4
80007e28:	18 f8       	st.b	--r12,r8
80007e2a:	c8 1f       	rcall	80007d2c <T.96>
80007e2c:	58 1c       	cp.w	r12,1
80007e2e:	fb fc 08 03 	ld.ubeq	r12,sp[0x3]
80007e32:	2f fd       	sub	sp,-4
80007e34:	d8 02       	popm	pc
80007e36:	d7 03       	nop

80007e38 <fl_fclose>:
80007e38:	eb cd 40 c0 	pushm	r6-r7,lr
80007e3c:	e0 69 20 0c 	mov	r9,8204
80007e40:	18 97       	mov	r7,r12
80007e42:	72 08       	ld.w	r8,r9[0x0]
80007e44:	58 08       	cp.w	r8,0
80007e46:	c4 30       	breq	80007ecc <fl_fclose+0x94>
80007e48:	58 07       	cp.w	r7,0
80007e4a:	c3 f0       	breq	80007ec8 <fl_fclose+0x90>
80007e4c:	e0 66 13 1c 	mov	r6,4892
80007e50:	6c f8       	ld.w	r8,r6[0x3c]
80007e52:	58 08       	cp.w	r8,0
80007e54:	c0 20       	breq	80007e58 <fl_fclose+0x20>
80007e56:	5d 18       	icall	r8
80007e58:	0e 9c       	mov	r12,r7
80007e5a:	c2 9f       	rcall	80007cac <fl_fflush>
80007e5c:	6e 48       	ld.w	r8,r7[0x10]
80007e5e:	58 08       	cp.w	r8,0
80007e60:	c4 f1       	brne	80007efe <fl_fclose+0xc6>
80007e62:	30 08       	mov	r8,0
80007e64:	8f 48       	st.w	r7[0x10],r8
80007e66:	8f 28       	st.w	r7[0x8],r8
80007e68:	8f 38       	st.w	r7[0xc],r8
80007e6a:	8f 18       	st.w	r7[0x4],r8
80007e6c:	ef 48 04 34 	st.w	r7[1076],r8
80007e70:	3f f8       	mov	r8,-1
80007e72:	ef 48 04 30 	st.w	r7[1072],r8
80007e76:	ee f8 04 3c 	ld.w	r8,r7[1084]
80007e7a:	58 08       	cp.w	r8,0
80007e7c:	c4 c0       	breq	80007f14 <fl_fclose+0xdc>
80007e7e:	ee f9 04 40 	ld.w	r9,r7[1088]
80007e82:	91 19       	st.w	r8[0x4],r9
80007e84:	ee f9 04 40 	ld.w	r9,r7[1088]
80007e88:	ee f8 04 3c 	ld.w	r8,r7[1084]
80007e8c:	58 09       	cp.w	r9,0
80007e8e:	c4 a0       	breq	80007f22 <fl_fclose+0xea>
80007e90:	93 08       	st.w	r9[0x0],r8
80007e92:	e0 6b 20 10 	mov	r11,8208
80007e96:	ee c9 fb c4 	sub	r9,r7,-1084
80007e9a:	76 18       	ld.w	r8,r11[0x4]
80007e9c:	58 08       	cp.w	r8,0
80007e9e:	c4 60       	breq	80007f2a <fl_fclose+0xf2>
80007ea0:	ef 48 04 3c 	st.w	r7[1084],r8
80007ea4:	70 1a       	ld.w	r10,r8[0x4]
80007ea6:	ef 4a 04 40 	st.w	r7[1088],r10
80007eaa:	70 1a       	ld.w	r10,r8[0x4]
80007eac:	58 0a       	cp.w	r10,0
80007eae:	f7 f9 0a 01 	st.weq	r11[0x4],r9
80007eb2:	f5 f9 1a 00 	st.wne	r10[0x0],r9
80007eb6:	91 19       	st.w	r8[0x4],r9
80007eb8:	e0 6c 13 1c 	mov	r12,4892
80007ebc:	e0 a0 09 ec 	rcall	80009294 <fatfs_fat_purge>
80007ec0:	6d 08       	ld.w	r8,r6[0x40]
80007ec2:	58 08       	cp.w	r8,0
80007ec4:	c0 20       	breq	80007ec8 <fl_fclose+0x90>
80007ec6:	5d 18       	icall	r8
80007ec8:	e3 cd 80 c0 	ldm	sp++,r6-r7,pc
80007ecc:	e0 6a 17 84 	mov	r10,6020
80007ed0:	f5 48 08 84 	st.w	r10[2180],r8
80007ed4:	f5 48 04 3c 	st.w	r10[1084],r8
80007ed8:	e0 6b 13 10 	mov	r11,4880
80007edc:	97 08       	st.w	r11[0x0],r8
80007ede:	97 18       	st.w	r11[0x4],r8
80007ee0:	f4 cc f7 80 	sub	r12,r10,-2176
80007ee4:	e0 68 20 10 	mov	r8,8208
80007ee8:	f5 4c 04 40 	st.w	r10[1088],r12
80007eec:	f4 cb fb c4 	sub	r11,r10,-1084
80007ef0:	f5 4b 08 80 	st.w	r10[2176],r11
80007ef4:	91 1c       	st.w	r8[0x4],r12
80007ef6:	91 0b       	st.w	r8[0x0],r11
80007ef8:	30 18       	mov	r8,1
80007efa:	93 08       	st.w	r9[0x0],r8
80007efc:	ca 6b       	rjmp	80007e48 <fl_fclose+0x10>
80007efe:	6e 39       	ld.w	r9,r7[0xc]
80007f00:	ee ca fd e4 	sub	r10,r7,-540
80007f04:	6e 0b       	ld.w	r11,r7[0x0]
80007f06:	e0 6c 13 1c 	mov	r12,4892
80007f0a:	fe b0 f8 01 	rcall	80006f0c <fatfs_update_file_length>
80007f0e:	30 08       	mov	r8,0
80007f10:	8f 48       	st.w	r7[0x10],r8
80007f12:	ca 8b       	rjmp	80007e62 <fl_fclose+0x2a>
80007f14:	ee f9 04 40 	ld.w	r9,r7[1088]
80007f18:	e0 6a 13 10 	mov	r10,4880
80007f1c:	95 09       	st.w	r10[0x0],r9
80007f1e:	58 09       	cp.w	r9,0
80007f20:	cb 81       	brne	80007e90 <fl_fclose+0x58>
80007f22:	e0 69 13 10 	mov	r9,4880
80007f26:	93 18       	st.w	r9[0x4],r8
80007f28:	cb 5b       	rjmp	80007e92 <fl_fclose+0x5a>
80007f2a:	76 08       	ld.w	r8,r11[0x0]
80007f2c:	58 08       	cp.w	r8,0
80007f2e:	c0 e0       	breq	80007f4a <fl_fclose+0x112>
80007f30:	70 0a       	ld.w	r10,r8[0x0]
80007f32:	ef 48 04 40 	st.w	r7[1088],r8
80007f36:	ef 4a 04 3c 	st.w	r7[1084],r10
80007f3a:	70 0a       	ld.w	r10,r8[0x0]
80007f3c:	58 0a       	cp.w	r10,0
80007f3e:	f7 f9 0a 00 	st.weq	r11[0x0],r9
80007f42:	f5 f9 1a 01 	st.wne	r10[0x4],r9
80007f46:	91 09       	st.w	r8[0x0],r9
80007f48:	cb 8b       	rjmp	80007eb8 <fl_fclose+0x80>
80007f4a:	97 19       	st.w	r11[0x4],r9
80007f4c:	97 09       	st.w	r11[0x0],r9
80007f4e:	ef 48 04 40 	st.w	r7[1088],r8
80007f52:	ef 48 04 3c 	st.w	r7[1084],r8
80007f56:	cb 1b       	rjmp	80007eb8 <fl_fclose+0x80>

80007f58 <fl_attach_media>:
80007f58:	eb cd 40 80 	pushm	r7,lr
80007f5c:	e0 6a 20 0c 	mov	r10,8204
80007f60:	18 98       	mov	r8,r12
80007f62:	74 09       	ld.w	r9,r10[0x0]
80007f64:	58 09       	cp.w	r9,0
80007f66:	c1 00       	breq	80007f86 <fl_attach_media+0x2e>
80007f68:	e0 6c 13 1c 	mov	r12,4892
80007f6c:	99 d8       	st.w	r12[0x34],r8
80007f6e:	99 eb       	st.w	r12[0x38],r11
80007f70:	fe b0 f4 14 	rcall	80006798 <fatfs_init>
80007f74:	18 97       	mov	r7,r12
80007f76:	c2 11       	brne	80007fb8 <fl_attach_media+0x60>
80007f78:	30 19       	mov	r9,1
80007f7a:	e0 68 13 18 	mov	r8,4888
80007f7e:	0e 9c       	mov	r12,r7
80007f80:	91 09       	st.w	r8[0x0],r9
80007f82:	e3 cd 80 80 	ldm	sp++,r7,pc
80007f86:	e0 6c 17 84 	mov	r12,6020
80007f8a:	f9 49 08 84 	st.w	r12[2180],r9
80007f8e:	f9 49 04 3c 	st.w	r12[1084],r9
80007f92:	e0 6e 13 10 	mov	lr,4880
80007f96:	9d 09       	st.w	lr[0x0],r9
80007f98:	9d 19       	st.w	lr[0x4],r9
80007f9a:	f8 c7 fb c4 	sub	r7,r12,-1084
80007f9e:	e0 69 20 10 	mov	r9,8208
80007fa2:	f9 47 08 80 	st.w	r12[2176],r7
80007fa6:	f8 ce f7 80 	sub	lr,r12,-2176
80007faa:	f9 4e 04 40 	st.w	r12[1088],lr
80007fae:	93 1e       	st.w	r9[0x4],lr
80007fb0:	93 07       	st.w	r9[0x0],r7
80007fb2:	30 19       	mov	r9,1
80007fb4:	95 09       	st.w	r10[0x0],r9
80007fb6:	cd 9b       	rjmp	80007f68 <fl_attach_media+0x10>
80007fb8:	fe cc c5 7c 	sub	r12,pc,-14980
80007fbc:	fe b0 d5 4e 	rcall	80002a58 <print_dbg>
80007fc0:	fe cc c5 58 	sub	r12,pc,-15016
80007fc4:	fe b0 d5 4a 	rcall	80002a58 <print_dbg>
80007fc8:	0e 9c       	mov	r12,r7
80007fca:	fe b0 d4 ef 	rcall	800029a8 <print_dbg_hex>
80007fce:	fe cc cf 92 	sub	r12,pc,-12398
80007fd2:	fe b0 d5 43 	rcall	80002a58 <print_dbg>
80007fd6:	0e 9c       	mov	r12,r7
80007fd8:	e3 cd 80 80 	ldm	sp++,r7,pc

80007fdc <_open_file>:
80007fdc:	eb cd 40 fe 	pushm	r1-r7,lr
80007fe0:	20 8d       	sub	sp,32
80007fe2:	e0 61 20 10 	mov	r1,8208
80007fe6:	18 92       	mov	r2,r12
80007fe8:	62 06       	ld.w	r6,r1[0x0]
80007fea:	58 06       	cp.w	r6,0
80007fec:	e0 80 00 f0 	breq	800081cc <_open_file+0x1f0>
80007ff0:	6c 08       	ld.w	r8,r6[0x0]
80007ff2:	58 08       	cp.w	r8,0
80007ff4:	f0 09 17 00 	moveq	r9,r8
80007ff8:	ed f8 00 01 	ld.weq	r8,r6[0x4]
80007ffc:	e3 f8 0a 00 	st.weq	r1[0x0],r8
80008000:	ed f9 10 01 	ld.wne	r9,r6[0x4]
80008004:	f1 f9 1a 01 	st.wne	r8[0x4],r9
80008008:	ed f8 10 01 	ld.wne	r8,r6[0x4]
8000800c:	ed f9 10 00 	ld.wne	r9,r6[0x0]
80008010:	e3 f9 0a 01 	st.weq	r1[0x4],r9
80008014:	f1 f9 1a 00 	st.wne	r8[0x0],r9
80008018:	e0 63 13 10 	mov	r3,4880
8000801c:	66 18       	ld.w	r8,r3[0x4]
8000801e:	58 08       	cp.w	r8,0
80008020:	e0 80 00 db 	breq	800081d6 <_open_file+0x1fa>
80008024:	8d 08       	st.w	r6[0x0],r8
80008026:	70 19       	ld.w	r9,r8[0x4]
80008028:	8d 19       	st.w	r6[0x4],r9
8000802a:	70 19       	ld.w	r9,r8[0x4]
8000802c:	58 09       	cp.w	r9,0
8000802e:	e7 f6 0a 01 	st.weq	r3[0x4],r6
80008032:	f3 f6 1a 00 	st.wne	r9[0x0],r6
80008036:	91 16       	st.w	r8[0x4],r6
80008038:	ec c7 04 3c 	sub	r7,r6,1084
8000803c:	c3 60       	breq	800080a8 <_open_file+0xcc>
8000803e:	ec c5 04 28 	sub	r5,r6,1064
80008042:	e0 6a 01 04 	mov	r10,260
80008046:	30 0b       	mov	r11,0
80008048:	0a 9c       	mov	r12,r5
8000804a:	e0 a0 14 9b 	rcall	8000a980 <memset>
8000804e:	ec c4 03 24 	sub	r4,r6,804
80008052:	e0 6a 01 04 	mov	r10,260
80008056:	30 0b       	mov	r11,0
80008058:	08 9c       	mov	r12,r4
8000805a:	e0 a0 14 93 	rcall	8000a980 <memset>
8000805e:	e0 68 01 04 	mov	r8,260
80008062:	04 9c       	mov	r12,r2
80008064:	08 99       	mov	r9,r4
80008066:	10 9a       	mov	r10,r8
80008068:	0a 9b       	mov	r11,r5
8000806a:	e0 a0 08 05 	rcall	80009074 <fatfs_split_path>
8000806e:	5b fc       	cp.w	r12,-1
80008070:	c1 80       	breq	800080a0 <_open_file+0xc4>
80008072:	66 02       	ld.w	r2,r3[0x0]
80008074:	58 02       	cp.w	r2,0
80008076:	c0 51       	brne	80008080 <_open_file+0xa4>
80008078:	c1 c8       	rjmp	800080b0 <_open_file+0xd4>
8000807a:	64 12       	ld.w	r2,r2[0x4]
8000807c:	58 02       	cp.w	r2,0
8000807e:	c1 90       	breq	800080b0 <_open_file+0xd4>
80008080:	e4 c8 04 3c 	sub	r8,r2,1084
80008084:	10 37       	cp.w	r7,r8
80008086:	cf a0       	breq	8000807a <_open_file+0x9e>
80008088:	0a 9b       	mov	r11,r5
8000808a:	e4 cc 04 28 	sub	r12,r2,1064
8000808e:	e0 a0 06 a3 	rcall	80008dd4 <fatfs_compare_names>
80008092:	cf 40       	breq	8000807a <_open_file+0x9e>
80008094:	e4 cc 03 24 	sub	r12,r2,804
80008098:	08 9b       	mov	r11,r4
8000809a:	e0 a0 06 9d 	rcall	80008dd4 <fatfs_compare_names>
8000809e:	ce e0       	breq	8000807a <_open_file+0x9e>
800080a0:	0e 9c       	mov	r12,r7
800080a2:	fe b0 fa e3 	rcall	80007668 <_free_file>
800080a6:	30 07       	mov	r7,0
800080a8:	0e 9c       	mov	r12,r7
800080aa:	2f 8d       	sub	sp,-32
800080ac:	e3 cd 80 fe 	ldm	sp++,r1-r7,pc
800080b0:	ef 39 00 14 	ld.ub	r9,r7[20]
800080b4:	30 08       	mov	r8,0
800080b6:	f0 09 18 00 	cp.b	r9,r8
800080ba:	c5 70       	breq	80008168 <_open_file+0x18c>
800080bc:	0a 9c       	mov	r12,r5
800080be:	0e 9b       	mov	r11,r7
800080c0:	fe b0 fb 36 	rcall	8000772c <_open_directory>
800080c4:	18 98       	mov	r8,r12
800080c6:	e0 80 00 ab 	breq	8000821c <_open_file+0x240>
800080ca:	6e 0b       	ld.w	r11,r7[0x0]
800080cc:	08 9a       	mov	r10,r4
800080ce:	1a 95       	mov	r5,sp
800080d0:	e0 6c 13 1c 	mov	r12,4892
800080d4:	1a 99       	mov	r9,sp
800080d6:	fe b0 f4 cd 	rcall	80006a70 <fatfs_get_file_entry>
800080da:	c4 e0       	breq	80008176 <_open_file+0x19a>
800080dc:	1a 9c       	mov	r12,sp
800080de:	e0 a0 02 90 	rcall	800085fe <fatfs_entry_is_file>
800080e2:	c4 a0       	breq	80008176 <_open_file+0x19a>
800080e4:	1a 9b       	mov	r11,sp
800080e6:	30 ba       	mov	r10,11
800080e8:	ee cc fd e4 	sub	r12,r7,-540
800080ec:	e0 a0 13 a6 	rcall	8000a838 <memcpy>
800080f0:	40 7a       	lddsp	r10,sp[0x1c]
800080f2:	3f f8       	mov	r8,-1
800080f4:	14 9c       	mov	r12,r10
800080f6:	f4 06 15 18 	lsl	r6,r10,0x18
800080fa:	e6 1c 00 ff 	andh	r12,0xff,COH
800080fe:	ed ea 13 86 	or	r6,r6,r10>>0x18
80008102:	e2 1a ff 00 	andl	r10,0xff00,COH
80008106:	ed ea 10 8a 	or	r10,r6,r10<<0x8
8000810a:	f5 ec 12 8a 	or	r10,r10,r12>>0x8
8000810e:	30 09       	mov	r9,0
80008110:	8f 3a       	st.w	r7[0xc],r10
80008112:	8f 29       	st.w	r7[0x8],r9
80008114:	fb 16 00 14 	ld.uh	r6,sp[20]
80008118:	fb 1a 00 1a 	ld.uh	r10,sp[26]
8000811c:	ef 48 02 2c 	st.w	r7[556],r8
80008120:	ef 48 04 30 	st.w	r7[1072],r8
80008124:	ef 48 02 28 	st.w	r7[552],r8
80008128:	ec 08 15 08 	lsl	r8,r6,0x8
8000812c:	f1 d8 c0 10 	bfextu	r8,r8,0x0,0x10
80008130:	f1 e6 12 86 	or	r6,r8,r6>>0x8
80008134:	f4 08 15 08 	lsl	r8,r10,0x8
80008138:	b1 66       	lsl	r6,0x10
8000813a:	f1 d8 c0 10 	bfextu	r8,r8,0x0,0x10
8000813e:	f1 ea 12 8a 	or	r10,r8,r10>>0x8
80008142:	ec 0a 00 0a 	add	r10,r6,r10
80008146:	0e 9b       	mov	r11,r7
80008148:	8f 49       	st.w	r7[0x10],r9
8000814a:	ef 49 04 34 	st.w	r7[1076],r9
8000814e:	8f 1a       	st.w	r7[0x4],r10
80008150:	e0 6c 13 1c 	mov	r12,4892
80008154:	fe b0 fa 86 	rcall	80007660 <fatfs_cache_init>
80008158:	e0 6c 13 1c 	mov	r12,4892
8000815c:	e0 a0 08 9c 	rcall	80009294 <fatfs_fat_purge>
80008160:	0e 9c       	mov	r12,r7
80008162:	2f 8d       	sub	sp,-32
80008164:	e3 cd 80 fe 	ldm	sp++,r1-r7,pc
80008168:	e0 6c 13 1c 	mov	r12,4892
8000816c:	fe b0 f3 0d 	rcall	80006786 <fatfs_get_root_cluster>
80008170:	18 9b       	mov	r11,r12
80008172:	8f 0c       	st.w	r7[0x0],r12
80008174:	ca cb       	rjmp	800080cc <_open_file+0xf0>
80008176:	6c 08       	ld.w	r8,r6[0x0]
80008178:	58 08       	cp.w	r8,0
8000817a:	f0 09 17 00 	moveq	r9,r8
8000817e:	ef f8 01 10 	ld.weq	r8,r7[0x440]
80008182:	e7 f8 0a 00 	st.weq	r3[0x0],r8
80008186:	ef f9 11 10 	ld.wne	r9,r7[0x440]
8000818a:	f1 f9 1a 01 	st.wne	r8[0x4],r9
8000818e:	ef f8 11 10 	ld.wne	r8,r7[0x440]
80008192:	ed f9 10 00 	ld.wne	r9,r6[0x0]
80008196:	e7 f9 0a 01 	st.weq	r3[0x4],r9
8000819a:	f1 f9 1a 00 	st.wne	r8[0x0],r9
8000819e:	e0 6b 20 10 	mov	r11,8208
800081a2:	62 18       	ld.w	r8,r1[0x4]
800081a4:	ee c9 fb c4 	sub	r9,r7,-1084
800081a8:	58 08       	cp.w	r8,0
800081aa:	c2 40       	breq	800081f2 <_open_file+0x216>
800081ac:	8d 08       	st.w	r6[0x0],r8
800081ae:	70 1a       	ld.w	r10,r8[0x4]
800081b0:	ef 4a 04 40 	st.w	r7[1088],r10
800081b4:	70 1a       	ld.w	r10,r8[0x4]
800081b6:	58 0a       	cp.w	r10,0
800081b8:	f7 f9 0a 01 	st.weq	r11[0x4],r9
800081bc:	f5 f9 1a 00 	st.wne	r10[0x0],r9
800081c0:	30 07       	mov	r7,0
800081c2:	91 19       	st.w	r8[0x4],r9
800081c4:	0e 9c       	mov	r12,r7
800081c6:	2f 8d       	sub	sp,-32
800081c8:	e3 cd 80 fe 	ldm	sp++,r1-r7,pc
800081cc:	0c 97       	mov	r7,r6
800081ce:	0e 9c       	mov	r12,r7
800081d0:	2f 8d       	sub	sp,-32
800081d2:	e3 cd 80 fe 	ldm	sp++,r1-r7,pc
800081d6:	66 08       	ld.w	r8,r3[0x0]
800081d8:	58 08       	cp.w	r8,0
800081da:	c1 c0       	breq	80008212 <_open_file+0x236>
800081dc:	70 09       	ld.w	r9,r8[0x0]
800081de:	8d 18       	st.w	r6[0x4],r8
800081e0:	8d 09       	st.w	r6[0x0],r9
800081e2:	70 09       	ld.w	r9,r8[0x0]
800081e4:	58 09       	cp.w	r9,0
800081e6:	e7 f6 0a 00 	st.weq	r3[0x0],r6
800081ea:	f3 f6 1a 01 	st.wne	r9[0x4],r6
800081ee:	91 06       	st.w	r8[0x0],r6
800081f0:	c2 4b       	rjmp	80008038 <_open_file+0x5c>
800081f2:	76 08       	ld.w	r8,r11[0x0]
800081f4:	58 08       	cp.w	r8,0
800081f6:	c1 80       	breq	80008226 <_open_file+0x24a>
800081f8:	70 0a       	ld.w	r10,r8[0x0]
800081fa:	8d 0a       	st.w	r6[0x0],r10
800081fc:	ef 48 04 40 	st.w	r7[1088],r8
80008200:	70 0a       	ld.w	r10,r8[0x0]
80008202:	58 0a       	cp.w	r10,0
80008204:	f7 f9 0a 00 	st.weq	r11[0x0],r9
80008208:	f5 f9 1a 01 	st.wne	r10[0x4],r9
8000820c:	91 09       	st.w	r8[0x0],r9
8000820e:	30 07       	mov	r7,0
80008210:	c4 cb       	rjmp	800080a8 <_open_file+0xcc>
80008212:	87 06       	st.w	r3[0x0],r6
80008214:	87 16       	st.w	r3[0x4],r6
80008216:	8d 18       	st.w	r6[0x4],r8
80008218:	8d 08       	st.w	r6[0x0],r8
8000821a:	c0 fb       	rjmp	80008038 <_open_file+0x5c>
8000821c:	0e 9c       	mov	r12,r7
8000821e:	10 97       	mov	r7,r8
80008220:	fe b0 fa 24 	rcall	80007668 <_free_file>
80008224:	c4 2b       	rjmp	800080a8 <_open_file+0xcc>
80008226:	97 19       	st.w	r11[0x4],r9
80008228:	97 09       	st.w	r11[0x0],r9
8000822a:	8d 08       	st.w	r6[0x0],r8
8000822c:	ef 48 04 40 	st.w	r7[1088],r8
80008230:	10 97       	mov	r7,r8
80008232:	c3 bb       	rjmp	800080a8 <_open_file+0xcc>

80008234 <fl_fopen>:
80008234:	eb cd 40 fc 	pushm	r2-r7,lr
80008238:	20 1d       	sub	sp,4
8000823a:	e0 69 20 0c 	mov	r9,8204
8000823e:	18 97       	mov	r7,r12
80008240:	72 08       	ld.w	r8,r9[0x0]
80008242:	58 08       	cp.w	r8,0
80008244:	c0 a0       	breq	80008258 <fl_fopen+0x24>
80008246:	e0 68 13 18 	mov	r8,4888
8000824a:	70 08       	ld.w	r8,r8[0x0]
8000824c:	58 08       	cp.w	r8,0
8000824e:	c2 21       	brne	80008292 <fl_fopen+0x5e>
80008250:	30 0c       	mov	r12,0
80008252:	2f fd       	sub	sp,-4
80008254:	e3 cd 80 fc 	ldm	sp++,r2-r7,pc
80008258:	e0 6a 17 84 	mov	r10,6020
8000825c:	f5 48 08 84 	st.w	r10[2180],r8
80008260:	f5 48 04 3c 	st.w	r10[1084],r8
80008264:	e0 6c 13 10 	mov	r12,4880
80008268:	99 08       	st.w	r12[0x0],r8
8000826a:	99 18       	st.w	r12[0x4],r8
8000826c:	f4 c6 f7 80 	sub	r6,r10,-2176
80008270:	e0 68 20 10 	mov	r8,8208
80008274:	f5 46 04 40 	st.w	r10[1088],r6
80008278:	f4 cc fb c4 	sub	r12,r10,-1084
8000827c:	f5 4c 08 80 	st.w	r10[2176],r12
80008280:	91 16       	st.w	r8[0x4],r6
80008282:	91 0c       	st.w	r8[0x0],r12
80008284:	30 18       	mov	r8,1
80008286:	93 08       	st.w	r9[0x0],r8
80008288:	e0 68 13 18 	mov	r8,4888
8000828c:	70 08       	ld.w	r8,r8[0x0]
8000828e:	58 08       	cp.w	r8,0
80008290:	ce 00       	breq	80008250 <fl_fopen+0x1c>
80008292:	58 0b       	cp.w	r11,0
80008294:	5f 09       	sreq	r9
80008296:	58 07       	cp.w	r7,0
80008298:	5f 08       	sreq	r8
8000829a:	f3 e8 10 08 	or	r8,r9,r8
8000829e:	cd 91       	brne	80008250 <fl_fopen+0x1c>
800082a0:	16 9c       	mov	r12,r11
800082a2:	50 0b       	stdsp	sp[0x0],r11
800082a4:	e0 a0 13 d3 	rcall	8000aa4a <strlen>
800082a8:	30 06       	mov	r6,0
800082aa:	fe ca c9 a2 	sub	r10,pc,-13918
800082ae:	0c 98       	mov	r8,r6
800082b0:	40 0b       	lddsp	r11,sp[0x0]
800082b2:	18 38       	cp.w	r8,r12
800082b4:	c1 e4       	brge	800082f0 <fl_fopen+0xbc>
800082b6:	f6 08 07 09 	ld.ub	r9,r11[r8]
800082ba:	22 b9       	sub	r9,43
800082bc:	e0 49 00 4c 	cp.w	r9,76
800082c0:	e0 8b 00 08 	brhi	800082d0 <fl_fopen+0x9c>
800082c4:	f4 09 03 2f 	ld.w	pc,r10[r9<<0x2]
800082c8:	ed b6 00 00 	bld	r6,0x0
800082cc:	c3 81       	brne	8000833c <fl_fopen+0x108>
800082ce:	a1 b6       	sbr	r6,0x1
800082d0:	2f f8       	sub	r8,-1
800082d2:	cf 0b       	rjmp	800082b2 <fl_fopen+0x7e>
800082d4:	e8 16 00 32 	orl	r6,0x32
800082d8:	2f f8       	sub	r8,-1
800082da:	ce cb       	rjmp	800082b2 <fl_fopen+0x7e>
800082dc:	a1 a6       	sbr	r6,0x0
800082de:	2f f8       	sub	r8,-1
800082e0:	ce 9b       	rjmp	800082b2 <fl_fopen+0x7e>
800082e2:	a3 b6       	sbr	r6,0x3
800082e4:	2f f8       	sub	r8,-1
800082e6:	ce 6b       	rjmp	800082b2 <fl_fopen+0x7e>
800082e8:	e8 16 00 26 	orl	r6,0x26
800082ec:	2f f8       	sub	r8,-1
800082ee:	ce 2b       	rjmp	800082b2 <fl_fopen+0x7e>
800082f0:	e0 65 13 1c 	mov	r5,4892
800082f4:	6a e8       	ld.w	r8,r5[0x38]
800082f6:	58 08       	cp.w	r8,0
800082f8:	c3 d0       	breq	80008372 <fl_fopen+0x13e>
800082fa:	6a f8       	ld.w	r8,r5[0x3c]
800082fc:	58 08       	cp.w	r8,0
800082fe:	c0 20       	breq	80008302 <fl_fopen+0xce>
80008300:	5d 18       	icall	r8
80008302:	e9 d6 c0 01 	bfextu	r4,r6,0x0,0x1
80008306:	c2 91       	brne	80008358 <fl_fopen+0x124>
80008308:	0c 93       	mov	r3,r6
8000830a:	e2 13 00 20 	andl	r3,0x20,COH
8000830e:	c3 51       	brne	80008378 <fl_fopen+0x144>
80008310:	06 92       	mov	r2,r3
80008312:	58 04       	cp.w	r4,0
80008314:	c2 c1       	brne	8000836c <fl_fopen+0x138>
80008316:	58 03       	cp.w	r3,0
80008318:	5f 18       	srne	r8
8000831a:	58 02       	cp.w	r2,0
8000831c:	5f 09       	sreq	r9
8000831e:	10 69       	and	r9,r8
80008320:	e8 09 18 00 	cp.b	r9,r4
80008324:	c2 40       	breq	8000836c <fl_fopen+0x138>
80008326:	0c 98       	mov	r8,r6
80008328:	e2 18 00 06 	andl	r8,0x6,COH
8000832c:	c1 d1       	brne	80008366 <fl_fopen+0x132>
8000832e:	08 92       	mov	r2,r4
80008330:	6b 08       	ld.w	r8,r5[0x40]
80008332:	58 08       	cp.w	r8,0
80008334:	c0 20       	breq	80008338 <fl_fopen+0x104>
80008336:	5d 18       	icall	r8
80008338:	04 9c       	mov	r12,r2
8000833a:	c8 cb       	rjmp	80008252 <fl_fopen+0x1e>
8000833c:	ed b6 00 01 	bld	r6,0x1
80008340:	c0 80       	breq	80008350 <fl_fopen+0x11c>
80008342:	ed b6 00 02 	bld	r6,0x2
80008346:	cc 51       	brne	800082d0 <fl_fopen+0x9c>
80008348:	e8 16 00 27 	orl	r6,0x27
8000834c:	2f f8       	sub	r8,-1
8000834e:	cb 2b       	rjmp	800082b2 <fl_fopen+0x7e>
80008350:	e8 16 00 31 	orl	r6,0x31
80008354:	2f f8       	sub	r8,-1
80008356:	ca eb       	rjmp	800082b2 <fl_fopen+0x7e>
80008358:	0e 9c       	mov	r12,r7
8000835a:	c4 1e       	rcall	80007fdc <_open_file>
8000835c:	18 92       	mov	r2,r12
8000835e:	cd 50       	breq	80008308 <fl_fopen+0xd4>
80008360:	e5 66 04 38 	st.b	r2[1080],r6
80008364:	ce 6b       	rjmp	80008330 <fl_fopen+0xfc>
80008366:	0e 9c       	mov	r12,r7
80008368:	c3 ae       	rcall	80007fdc <_open_file>
8000836a:	18 92       	mov	r2,r12
8000836c:	58 02       	cp.w	r2,0
8000836e:	cf 91       	brne	80008360 <fl_fopen+0x12c>
80008370:	ce 0b       	rjmp	80008330 <fl_fopen+0xfc>
80008372:	e2 16 00 d9 	andl	r6,0xd9,COH
80008376:	cc 2b       	rjmp	800082fa <fl_fopen+0xc6>
80008378:	0e 9c       	mov	r12,r7
8000837a:	fe b0 fa ff 	rcall	80007978 <_create_file>
8000837e:	18 92       	mov	r2,r12
80008380:	cc 9b       	rjmp	80008312 <fl_fopen+0xde>
80008382:	d7 03       	nop

80008384 <fatfs_lfn_cache_entry>:
80008384:	d4 01       	pushm	lr
80008386:	31 48       	mov	r8,20
80008388:	17 89       	ld.ub	r9,r11[0x0]
8000838a:	f3 d9 c0 05 	bfextu	r9,r9,0x0,0x5
8000838e:	f0 09 18 00 	cp.b	r9,r8
80008392:	e0 8b 00 c8 	brhi	80008522 <fatfs_lfn_cache_entry+0x19e>
80008396:	58 09       	cp.w	r9,0
80008398:	e0 80 00 c5 	breq	80008522 <fatfs_lfn_cache_entry+0x19e>
8000839c:	30 08       	mov	r8,0
8000839e:	f9 3a 01 05 	ld.ub	r10,r12[261]
800083a2:	f0 0a 18 00 	cp.b	r10,r8
800083a6:	f9 f9 0f 05 	st.beq	r12[0x105],r9
800083aa:	20 19       	sub	r9,1
800083ac:	f2 09 00 18 	add	r8,r9,r9<<0x1
800083b0:	17 9e       	ld.ub	lr,r11[0x1]
800083b2:	f2 08 00 29 	add	r9,r9,r8<<0x2
800083b6:	f8 09 00 08 	add	r8,r12,r9
800083ba:	10 9a       	mov	r10,r8
800083bc:	14 ce       	st.b	r10++,lr
800083be:	17 be       	ld.ub	lr,r11[0x3]
800083c0:	b4 8e       	st.b	r10[0x0],lr
800083c2:	17 da       	ld.ub	r10,r11[0x5]
800083c4:	b0 aa       	st.b	r8[0x2],r10
800083c6:	17 fa       	ld.ub	r10,r11[0x7]
800083c8:	b0 ba       	st.b	r8[0x3],r10
800083ca:	f7 3a 00 09 	ld.ub	r10,r11[9]
800083ce:	b0 ca       	st.b	r8[0x4],r10
800083d0:	f7 3a 00 0e 	ld.ub	r10,r11[14]
800083d4:	b0 da       	st.b	r8[0x5],r10
800083d6:	f7 3a 00 10 	ld.ub	r10,r11[16]
800083da:	b0 ea       	st.b	r8[0x6],r10
800083dc:	f7 3a 00 12 	ld.ub	r10,r11[18]
800083e0:	b0 fa       	st.b	r8[0x7],r10
800083e2:	f7 3a 00 14 	ld.ub	r10,r11[20]
800083e6:	f1 6a 00 08 	st.b	r8[8],r10
800083ea:	f7 3a 00 16 	ld.ub	r10,r11[22]
800083ee:	f1 6a 00 09 	st.b	r8[9],r10
800083f2:	f7 3a 00 18 	ld.ub	r10,r11[24]
800083f6:	f1 6a 00 0a 	st.b	r8[10],r10
800083fa:	f7 3a 00 1c 	ld.ub	r10,r11[28]
800083fe:	f1 6a 00 0b 	st.b	r8[11],r10
80008402:	f7 3a 00 1e 	ld.ub	r10,r11[30]
80008406:	11 8b       	ld.ub	r11,r8[0x0]
80008408:	f1 6a 00 0c 	st.b	r8[12],r10
8000840c:	3f fa       	mov	r10,-1
8000840e:	f4 0b 18 00 	cp.b	r11,r10
80008412:	f9 ba 00 20 	moveq	r10,32
80008416:	f1 fa 0e 00 	st.beq	r8[0x0],r10
8000841a:	f8 09 00 08 	add	r8,r12,r9
8000841e:	3f fa       	mov	r10,-1
80008420:	2f f8       	sub	r8,-1
80008422:	11 8b       	ld.ub	r11,r8[0x0]
80008424:	f4 0b 18 00 	cp.b	r11,r10
80008428:	f9 ba 00 20 	moveq	r10,32
8000842c:	f1 fa 0e 00 	st.beq	r8[0x0],r10
80008430:	f8 09 00 08 	add	r8,r12,r9
80008434:	3f fa       	mov	r10,-1
80008436:	2f e8       	sub	r8,-2
80008438:	11 8b       	ld.ub	r11,r8[0x0]
8000843a:	f4 0b 18 00 	cp.b	r11,r10
8000843e:	f9 ba 00 20 	moveq	r10,32
80008442:	f1 fa 0e 00 	st.beq	r8[0x0],r10
80008446:	f8 09 00 08 	add	r8,r12,r9
8000844a:	3f fa       	mov	r10,-1
8000844c:	2f d8       	sub	r8,-3
8000844e:	11 8b       	ld.ub	r11,r8[0x0]
80008450:	f4 0b 18 00 	cp.b	r11,r10
80008454:	f9 ba 00 20 	moveq	r10,32
80008458:	f1 fa 0e 00 	st.beq	r8[0x0],r10
8000845c:	f8 09 00 08 	add	r8,r12,r9
80008460:	3f fa       	mov	r10,-1
80008462:	2f c8       	sub	r8,-4
80008464:	11 8b       	ld.ub	r11,r8[0x0]
80008466:	f4 0b 18 00 	cp.b	r11,r10
8000846a:	f9 ba 00 20 	moveq	r10,32
8000846e:	f1 fa 0e 00 	st.beq	r8[0x0],r10
80008472:	f8 09 00 08 	add	r8,r12,r9
80008476:	3f fa       	mov	r10,-1
80008478:	2f b8       	sub	r8,-5
8000847a:	11 8b       	ld.ub	r11,r8[0x0]
8000847c:	f4 0b 18 00 	cp.b	r11,r10
80008480:	f9 ba 00 20 	moveq	r10,32
80008484:	f1 fa 0e 00 	st.beq	r8[0x0],r10
80008488:	f8 09 00 08 	add	r8,r12,r9
8000848c:	3f fa       	mov	r10,-1
8000848e:	2f a8       	sub	r8,-6
80008490:	11 8b       	ld.ub	r11,r8[0x0]
80008492:	f4 0b 18 00 	cp.b	r11,r10
80008496:	f9 ba 00 20 	moveq	r10,32
8000849a:	f1 fa 0e 00 	st.beq	r8[0x0],r10
8000849e:	f8 09 00 08 	add	r8,r12,r9
800084a2:	3f fa       	mov	r10,-1
800084a4:	2f 98       	sub	r8,-7
800084a6:	11 8b       	ld.ub	r11,r8[0x0]
800084a8:	f4 0b 18 00 	cp.b	r11,r10
800084ac:	f9 ba 00 20 	moveq	r10,32
800084b0:	f1 fa 0e 00 	st.beq	r8[0x0],r10
800084b4:	f8 09 00 08 	add	r8,r12,r9
800084b8:	3f fa       	mov	r10,-1
800084ba:	2f 88       	sub	r8,-8
800084bc:	11 8b       	ld.ub	r11,r8[0x0]
800084be:	f4 0b 18 00 	cp.b	r11,r10
800084c2:	f9 ba 00 20 	moveq	r10,32
800084c6:	f1 fa 0e 00 	st.beq	r8[0x0],r10
800084ca:	f8 09 00 08 	add	r8,r12,r9
800084ce:	3f fa       	mov	r10,-1
800084d0:	2f 78       	sub	r8,-9
800084d2:	11 8b       	ld.ub	r11,r8[0x0]
800084d4:	f4 0b 18 00 	cp.b	r11,r10
800084d8:	f9 ba 00 20 	moveq	r10,32
800084dc:	f1 fa 0e 00 	st.beq	r8[0x0],r10
800084e0:	f8 09 00 08 	add	r8,r12,r9
800084e4:	3f fa       	mov	r10,-1
800084e6:	2f 68       	sub	r8,-10
800084e8:	11 8b       	ld.ub	r11,r8[0x0]
800084ea:	f4 0b 18 00 	cp.b	r11,r10
800084ee:	f9 ba 00 20 	moveq	r10,32
800084f2:	f1 fa 0e 00 	st.beq	r8[0x0],r10
800084f6:	f8 09 00 08 	add	r8,r12,r9
800084fa:	3f fa       	mov	r10,-1
800084fc:	2f 58       	sub	r8,-11
800084fe:	11 8b       	ld.ub	r11,r8[0x0]
80008500:	f4 0b 18 00 	cp.b	r11,r10
80008504:	f9 ba 00 20 	moveq	r10,32
80008508:	f1 fa 0e 00 	st.beq	r8[0x0],r10
8000850c:	f8 09 00 09 	add	r9,r12,r9
80008510:	3f f8       	mov	r8,-1
80008512:	2f 49       	sub	r9,-12
80008514:	13 8a       	ld.ub	r10,r9[0x0]
80008516:	f0 0a 18 00 	cp.b	r10,r8
8000851a:	f9 b8 00 20 	moveq	r8,32
8000851e:	f3 f8 0e 00 	st.beq	r9[0x0],r8
80008522:	d8 02       	popm	pc

80008524 <fatfs_lfn_cache_get>:
80008524:	f9 38 01 05 	ld.ub	r8,r12[261]
80008528:	31 49       	mov	r9,20
8000852a:	f2 08 18 00 	cp.b	r8,r9
8000852e:	c0 e0       	breq	8000854a <fatfs_lfn_cache_get+0x26>
80008530:	58 08       	cp.w	r8,0
80008532:	c0 31       	brne	80008538 <fatfs_lfn_cache_get+0x14>
80008534:	b8 88       	st.b	r12[0x0],r8
80008536:	5e fc       	retal	r12
80008538:	f0 08 00 19 	add	r9,r8,r8<<0x1
8000853c:	f0 09 00 28 	add	r8,r8,r9<<0x2
80008540:	30 09       	mov	r9,0
80008542:	f8 08 00 08 	add	r8,r12,r8
80008546:	b0 89       	st.b	r8[0x0],r9
80008548:	5e fc       	retal	r12
8000854a:	30 08       	mov	r8,0
8000854c:	f9 68 01 04 	st.b	r12[260],r8
80008550:	5e fc       	retal	r12

80008552 <fatfs_entry_lfn_text>:
80008552:	f9 38 00 0b 	ld.ub	r8,r12[11]
80008556:	f1 d8 c0 04 	bfextu	r8,r8,0x0,0x4
8000855a:	58 f8       	cp.w	r8,15
8000855c:	5f 0c       	sreq	r12
8000855e:	5e fc       	retal	r12

80008560 <fatfs_entry_lfn_invalid>:
80008560:	3e 58       	mov	r8,-27
80008562:	19 89       	ld.ub	r9,r12[0x0]
80008564:	f0 09 18 00 	cp.b	r9,r8
80008568:	5f 0a       	sreq	r10
8000856a:	30 08       	mov	r8,0
8000856c:	f0 09 18 00 	cp.b	r9,r8
80008570:	5f 09       	sreq	r9
80008572:	f5 e9 10 09 	or	r9,r10,r9
80008576:	f0 09 18 00 	cp.b	r9,r8
8000857a:	c0 b1       	brne	80008590 <fatfs_entry_lfn_invalid+0x30>
8000857c:	f9 38 00 0b 	ld.ub	r8,r12[11]
80008580:	30 89       	mov	r9,8
80008582:	f2 08 18 00 	cp.b	r8,r9
80008586:	c0 50       	breq	80008590 <fatfs_entry_lfn_invalid+0x30>
80008588:	e2 18 00 06 	andl	r8,0x6,COH
8000858c:	5f 1c       	srne	r12
8000858e:	5e fc       	retal	r12
80008590:	5e ff       	retal	1

80008592 <fatfs_entry_lfn_exists>:
80008592:	f7 38 00 0b 	ld.ub	r8,r11[11]
80008596:	30 f9       	mov	r9,15
80008598:	f2 08 18 00 	cp.b	r8,r9
8000859c:	c1 50       	breq	800085c6 <fatfs_entry_lfn_exists+0x34>
8000859e:	17 89       	ld.ub	r9,r11[0x0]
800085a0:	58 09       	cp.w	r9,0
800085a2:	c1 20       	breq	800085c6 <fatfs_entry_lfn_exists+0x34>
800085a4:	3e 5a       	mov	r10,-27
800085a6:	f4 09 18 00 	cp.b	r9,r10
800085aa:	c0 e0       	breq	800085c6 <fatfs_entry_lfn_exists+0x34>
800085ac:	30 89       	mov	r9,8
800085ae:	f2 08 18 00 	cp.b	r8,r9
800085b2:	c0 a0       	breq	800085c6 <fatfs_entry_lfn_exists+0x34>
800085b4:	e2 18 00 06 	andl	r8,0x6,COH
800085b8:	c0 71       	brne	800085c6 <fatfs_entry_lfn_exists+0x34>
800085ba:	f9 39 01 05 	ld.ub	r9,r12[261]
800085be:	f0 09 18 00 	cp.b	r9,r8
800085c2:	5f 1c       	srne	r12
800085c4:	5e fc       	retal	r12
800085c6:	5e fd       	retal	0

800085c8 <fatfs_entry_sfn_only>:
800085c8:	f9 38 00 0b 	ld.ub	r8,r12[11]
800085cc:	30 f9       	mov	r9,15
800085ce:	f2 08 18 00 	cp.b	r8,r9
800085d2:	c1 00       	breq	800085f2 <fatfs_entry_sfn_only+0x2a>
800085d4:	19 89       	ld.ub	r9,r12[0x0]
800085d6:	58 09       	cp.w	r9,0
800085d8:	c0 d0       	breq	800085f2 <fatfs_entry_sfn_only+0x2a>
800085da:	3e 5a       	mov	r10,-27
800085dc:	f4 09 18 00 	cp.b	r9,r10
800085e0:	c0 90       	breq	800085f2 <fatfs_entry_sfn_only+0x2a>
800085e2:	30 89       	mov	r9,8
800085e4:	f2 08 18 00 	cp.b	r8,r9
800085e8:	c0 50       	breq	800085f2 <fatfs_entry_sfn_only+0x2a>
800085ea:	e2 18 00 06 	andl	r8,0x6,COH
800085ee:	5f 0c       	sreq	r12
800085f0:	5e fc       	retal	r12
800085f2:	5e fd       	retal	0

800085f4 <fatfs_entry_is_dir>:
800085f4:	f9 3c 00 0b 	ld.ub	r12,r12[11]
800085f8:	f9 dc c0 81 	bfextu	r12,r12,0x4,0x1
800085fc:	5e fc       	retal	r12

800085fe <fatfs_entry_is_file>:
800085fe:	f9 3c 00 0b 	ld.ub	r12,r12[11]
80008602:	f9 dc c0 a1 	bfextu	r12,r12,0x5,0x1
80008606:	5e fc       	retal	r12

80008608 <fatfs_sfn_create_entry>:
80008608:	eb cd 40 e0 	pushm	r5-r7,lr
8000860c:	f8 c7 ff fc 	sub	r7,r12,-4
80008610:	0e 39       	cp.w	r9,r7
80008612:	5f b5       	srhi	r5
80008614:	f2 ce ff fc 	sub	lr,r9,-4
80008618:	1c 3c       	cp.w	r12,lr
8000861a:	5f b6       	srhi	r6
8000861c:	eb e6 10 06 	or	r6,r5,r6
80008620:	f3 ec 10 05 	or	r5,r9,r12
80008624:	eb d5 c0 02 	bfextu	r5,r5,0x0,0x2
80008628:	5f 05       	sreq	r5
8000862a:	eb e6 00 06 	and	r6,r5,r6
8000862e:	c6 70       	breq	800086fc <fatfs_sfn_create_entry+0xf4>
80008630:	78 06       	ld.w	r6,r12[0x0]
80008632:	93 06       	st.w	r9[0x0],r6
80008634:	6e 07       	ld.w	r7,r7[0x0]
80008636:	9d 07       	st.w	lr[0x0],r7
80008638:	f9 3e 00 08 	ld.ub	lr,r12[8]
8000863c:	f3 6e 00 08 	st.b	r9[8],lr
80008640:	f9 3e 00 09 	ld.ub	lr,r12[9]
80008644:	f3 6e 00 09 	st.b	r9[9],lr
80008648:	f9 3c 00 0a 	ld.ub	r12,r12[10]
8000864c:	f3 6c 00 0a 	st.b	r9[10],r12
80008650:	30 0c       	mov	r12,0
80008652:	30 0e       	mov	lr,0
80008654:	f3 6c 00 19 	st.b	r9[25],r12
80008658:	f3 6c 00 0d 	st.b	r9[13],r12
8000865c:	f3 6c 00 0e 	st.b	r9[14],r12
80008660:	f3 6c 00 0f 	st.b	r9[15],r12
80008664:	f3 6c 00 11 	st.b	r9[17],r12
80008668:	f3 6c 00 13 	st.b	r9[19],r12
8000866c:	f3 6c 00 16 	st.b	r9[22],r12
80008670:	f3 6c 00 17 	st.b	r9[23],r12
80008674:	32 0c       	mov	r12,32
80008676:	58 08       	cp.w	r8,0
80008678:	f3 fc 0e 0b 	st.beq	r9[0xb],r12
8000867c:	f9 b8 01 10 	movne	r8,16
80008680:	f3 f8 1e 0b 	st.bne	r9[0xb],r8
80008684:	f3 6e 00 0c 	st.b	r9[12],lr
80008688:	f1 da c0 10 	bfextu	r8,r10,0x0,0x10
8000868c:	b1 8a       	lsr	r10,0x10
8000868e:	f4 0e 16 08 	lsr	lr,r10,0x8
80008692:	fd ea 10 8a 	or	r10,lr,r10<<0x8
80008696:	5c 7a       	castu.h	r10
80008698:	f3 6a 00 15 	st.b	r9[21],r10
8000869c:	a9 8a       	lsr	r10,0x8
8000869e:	f3 6a 00 14 	st.b	r9[20],r10
800086a2:	f0 0a 16 08 	lsr	r10,r8,0x8
800086a6:	f5 e8 10 88 	or	r8,r10,r8<<0x8
800086aa:	5c 78       	castu.h	r8
800086ac:	f3 68 00 1b 	st.b	r9[27],r8
800086b0:	a9 88       	lsr	r8,0x8
800086b2:	f3 68 00 1a 	st.b	r9[26],r8
800086b6:	f6 08 15 18 	lsl	r8,r11,0x18
800086ba:	f1 eb 13 88 	or	r8,r8,r11>>0x18
800086be:	f3 6c 00 10 	st.b	r9[16],r12
800086c2:	f3 6c 00 12 	st.b	r9[18],r12
800086c6:	f3 6c 00 18 	st.b	r9[24],r12
800086ca:	16 9c       	mov	r12,r11
800086cc:	e2 1b ff 00 	andl	r11,0xff00,COH
800086d0:	e6 1c 00 ff 	andh	r12,0xff,COH
800086d4:	f1 eb 10 8b 	or	r11,r8,r11<<0x8
800086d8:	f7 ec 12 8b 	or	r11,r11,r12>>0x8
800086dc:	f6 08 16 18 	lsr	r8,r11,0x18
800086e0:	f3 6b 00 1f 	st.b	r9[31],r11
800086e4:	f3 68 00 1c 	st.b	r9[28],r8
800086e8:	f1 db c2 08 	bfextu	r8,r11,0x10,0x8
800086ec:	f7 db c1 08 	bfextu	r11,r11,0x8,0x8
800086f0:	f3 68 00 1d 	st.b	r9[29],r8
800086f4:	f3 6b 00 1e 	st.b	r9[30],r11
800086f8:	e3 cd 80 e0 	ldm	sp++,r5-r7,pc
800086fc:	19 8e       	ld.ub	lr,r12[0x0]
800086fe:	b2 8e       	st.b	r9[0x0],lr
80008700:	19 9e       	ld.ub	lr,r12[0x1]
80008702:	b2 9e       	st.b	r9[0x1],lr
80008704:	19 ae       	ld.ub	lr,r12[0x2]
80008706:	b2 ae       	st.b	r9[0x2],lr
80008708:	19 be       	ld.ub	lr,r12[0x3]
8000870a:	b2 be       	st.b	r9[0x3],lr
8000870c:	19 ce       	ld.ub	lr,r12[0x4]
8000870e:	b2 ce       	st.b	r9[0x4],lr
80008710:	19 de       	ld.ub	lr,r12[0x5]
80008712:	b2 de       	st.b	r9[0x5],lr
80008714:	19 ee       	ld.ub	lr,r12[0x6]
80008716:	b2 ee       	st.b	r9[0x6],lr
80008718:	19 fe       	ld.ub	lr,r12[0x7]
8000871a:	b2 fe       	st.b	r9[0x7],lr
8000871c:	c8 eb       	rjmp	80008638 <fatfs_sfn_create_entry+0x30>

8000871e <fatfs_lfn_cache_init>:
8000871e:	30 08       	mov	r8,0
80008720:	f9 68 01 05 	st.b	r12[261],r8
80008724:	58 0b       	cp.w	r11,0
80008726:	5e 0c       	reteq	r12
80008728:	30 0a       	mov	r10,0
8000872a:	14 99       	mov	r9,r10
8000872c:	f8 0a 00 08 	add	r8,r12,r10
80008730:	10 c9       	st.b	r8++,r9
80008732:	10 c9       	st.b	r8++,r9
80008734:	10 c9       	st.b	r8++,r9
80008736:	10 c9       	st.b	r8++,r9
80008738:	10 c9       	st.b	r8++,r9
8000873a:	10 c9       	st.b	r8++,r9
8000873c:	10 c9       	st.b	r8++,r9
8000873e:	10 c9       	st.b	r8++,r9
80008740:	10 c9       	st.b	r8++,r9
80008742:	10 c9       	st.b	r8++,r9
80008744:	10 c9       	st.b	r8++,r9
80008746:	10 c9       	st.b	r8++,r9
80008748:	b0 89       	st.b	r8[0x0],r9
8000874a:	2f 3a       	sub	r10,-13
8000874c:	e0 4a 01 04 	cp.w	r10,260
80008750:	ce e1       	brne	8000872c <fatfs_lfn_cache_init+0xe>
80008752:	5e fc       	retal	r12

80008754 <fatfs_lfn_generate_tail>:
80008754:	eb cd 40 fc 	pushm	r2-r7,lr
80008758:	20 bd       	sub	sp,44
8000875a:	18 96       	mov	r6,r12
8000875c:	e0 5a 86 9f 	cp.w	r10,99999
80008760:	e0 88 00 05 	brls	8000876a <fatfs_lfn_generate_tail+0x16>
80008764:	2f 5d       	sub	sp,-44
80008766:	e3 cf 80 fc 	ldm	sp++,r2-r7,pc,r12=0
8000876a:	30 09       	mov	r9,0
8000876c:	fa c7 ff e0 	sub	r7,sp,-32
80008770:	30 08       	mov	r8,0
80008772:	ee e9 00 00 	st.d	r7[0],r8
80008776:	fe c9 cc fe 	sub	r9,pc,-13058
8000877a:	f3 3c 00 10 	ld.ub	r12,r9[16]
8000877e:	fb 6c 00 10 	st.b	sp[16],r12
80008782:	30 0c       	mov	r12,0
80008784:	8f 2c       	st.w	r7[0x8],r12
80008786:	37 ec       	mov	r12,126
80008788:	fb 6c 00 20 	st.b	sp[32],r12
8000878c:	f2 e4 00 00 	ld.d	r4,r9[0]
80008790:	fa e5 00 00 	st.d	sp[0],r4
80008794:	f2 e4 00 08 	ld.d	r4,r9[8]
80008798:	fa e5 00 08 	st.d	sp[8],r4
8000879c:	fa c5 ff ec 	sub	r5,sp,-20
800087a0:	e0 64 cc cd 	mov	r4,52429
800087a4:	ea 14 cc cc 	orh	r4,0xcccc
800087a8:	0a 99       	mov	r9,r5
800087aa:	c0 28       	rjmp	800087ae <fatfs_lfn_generate_tail+0x5a>
800087ac:	10 99       	mov	r9,r8
800087ae:	f4 04 06 42 	mulu.d	r2,r10,r4
800087b2:	e6 0c 16 03 	lsr	r12,r3,0x3
800087b6:	f8 0c 00 2e 	add	lr,r12,r12<<0x2
800087ba:	12 98       	mov	r8,r9
800087bc:	f4 0e 01 1a 	sub	r10,r10,lr<<0x1
800087c0:	fa ce ff d4 	sub	lr,sp,-44
800087c4:	fc 0a 00 0a 	add	r10,lr,r10
800087c8:	f5 3a ff d4 	ld.ub	r10,r10[-44]
800087cc:	10 ca       	st.b	r8++,r10
800087ce:	18 9a       	mov	r10,r12
800087d0:	58 0c       	cp.w	r12,0
800087d2:	ce d1       	brne	800087ac <fatfs_lfn_generate_tail+0x58>
800087d4:	b0 8c       	st.b	r8[0x0],r12
800087d6:	0a 39       	cp.w	r9,r5
800087d8:	c1 c3       	brcs	80008810 <fatfs_lfn_generate_tail+0xbc>
800087da:	fa c8 ff df 	sub	r8,sp,-33
800087de:	13 8a       	ld.ub	r10,r9[0x0]
800087e0:	10 ca       	st.b	r8++,r10
800087e2:	20 19       	sub	r9,1
800087e4:	0a 39       	cp.w	r9,r5
800087e6:	cf c2       	brcc	800087de <fatfs_lfn_generate_tail+0x8a>
800087e8:	30 09       	mov	r9,0
800087ea:	30 ba       	mov	r10,11
800087ec:	b0 89       	st.b	r8[0x0],r9
800087ee:	0c 9c       	mov	r12,r6
800087f0:	e0 a0 10 24 	rcall	8000a838 <memcpy>
800087f4:	0e 9c       	mov	r12,r7
800087f6:	e0 a0 11 2a 	rcall	8000aa4a <strlen>
800087fa:	0e 9b       	mov	r11,r7
800087fc:	18 9a       	mov	r10,r12
800087fe:	f8 0c 11 08 	rsub	r12,r12,8
80008802:	ec 0c 00 0c 	add	r12,r6,r12
80008806:	e0 a0 10 19 	rcall	8000a838 <memcpy>
8000880a:	2f 5d       	sub	sp,-44
8000880c:	e3 cf 90 fc 	ldm	sp++,r2-r7,pc,r12=1
80008810:	fa c8 ff df 	sub	r8,sp,-33
80008814:	ce ab       	rjmp	800087e8 <fatfs_lfn_generate_tail+0x94>
80008816:	d7 03       	nop

80008818 <fatfs_lfn_create_sfn>:
80008818:	eb cd 40 fc 	pushm	r2-r7,lr
8000881c:	20 1d       	sub	sp,4
8000881e:	16 97       	mov	r7,r11
80008820:	18 94       	mov	r4,r12
80008822:	16 9c       	mov	r12,r11
80008824:	e0 a0 11 13 	rcall	8000aa4a <strlen>
80008828:	32 e3       	mov	r3,46
8000882a:	18 96       	mov	r6,r12
8000882c:	0f 88       	ld.ub	r8,r7[0x0]
8000882e:	e6 08 18 00 	cp.b	r8,r3
80008832:	e0 80 00 98 	breq	80008962 <fatfs_lfn_create_sfn+0x14a>
80008836:	30 ba       	mov	r10,11
80008838:	32 0b       	mov	r11,32
8000883a:	08 9c       	mov	r12,r4
8000883c:	e0 a0 10 a2 	rcall	8000a980 <memset>
80008840:	0c 95       	mov	r5,r6
80008842:	30 3a       	mov	r10,3
80008844:	32 0b       	mov	r11,32
80008846:	1a 9c       	mov	r12,sp
80008848:	e0 a0 10 9c 	rcall	8000a980 <memset>
8000884c:	58 06       	cp.w	r6,0
8000884e:	e0 8a 00 62 	brle	80008912 <fatfs_lfn_create_sfn+0xfa>
80008852:	3f f9       	mov	r9,-1
80008854:	30 08       	mov	r8,0
80008856:	ee 08 07 0a 	ld.ub	r10,r7[r8]
8000885a:	e6 0a 18 00 	cp.b	r10,r3
8000885e:	f0 09 17 00 	moveq	r9,r8
80008862:	2f f8       	sub	r8,-1
80008864:	10 36       	cp.w	r6,r8
80008866:	cf 81       	brne	80008856 <fatfs_lfn_create_sfn+0x3e>
80008868:	5b f9       	cp.w	r9,-1
8000886a:	c2 b0       	breq	800088c0 <fatfs_lfn_create_sfn+0xa8>
8000886c:	f2 c8 ff ff 	sub	r8,r9,-1
80008870:	10 36       	cp.w	r6,r8
80008872:	e0 8a 00 0a 	brle	80008886 <fatfs_lfn_create_sfn+0x6e>
80008876:	fa ca ff fc 	sub	r10,sp,-4
8000887a:	ee 08 07 0b 	ld.ub	r11,r7[r8]
8000887e:	10 0a       	add	r10,r8
80008880:	12 1a       	sub	r10,r9
80008882:	f5 6b ff fb 	st.b	r10[-5],r11
80008886:	2f f8       	sub	r8,-1
80008888:	10 36       	cp.w	r6,r8
8000888a:	e0 8a 00 0a 	brle	8000889e <fatfs_lfn_create_sfn+0x86>
8000888e:	fa ca ff fc 	sub	r10,sp,-4
80008892:	ee 08 07 0b 	ld.ub	r11,r7[r8]
80008896:	10 0a       	add	r10,r8
80008898:	12 1a       	sub	r10,r9
8000889a:	f5 6b ff fb 	st.b	r10[-5],r11
8000889e:	2f f8       	sub	r8,-1
800088a0:	10 36       	cp.w	r6,r8
800088a2:	e0 8a 00 0b 	brle	800088b8 <fatfs_lfn_create_sfn+0xa0>
800088a6:	ee 08 07 0a 	ld.ub	r10,r7[r8]
800088aa:	fa cb ff fc 	sub	r11,sp,-4
800088ae:	f6 08 00 08 	add	r8,r11,r8
800088b2:	12 18       	sub	r8,r9
800088b4:	f1 6a ff fb 	st.b	r8[-5],r10
800088b8:	58 09       	cp.w	r9,0
800088ba:	e0 8a 00 2c 	brle	80008912 <fatfs_lfn_create_sfn+0xfa>
800088be:	12 95       	mov	r5,r9
800088c0:	30 0a       	mov	r10,0
800088c2:	32 ee       	mov	lr,46
800088c4:	14 99       	mov	r9,r10
800088c6:	32 03       	mov	r3,32
800088c8:	14 96       	mov	r6,r10
800088ca:	31 92       	mov	r2,25
800088cc:	c0 98       	rjmp	800088de <fatfs_lfn_create_sfn+0xc6>
800088ce:	e8 0a 0b 0c 	st.b	r4[r10],r12
800088d2:	2f fa       	sub	r10,-1
800088d4:	58 8a       	cp.w	r10,8
800088d6:	c1 e0       	breq	80008912 <fatfs_lfn_create_sfn+0xfa>
800088d8:	2f f9       	sub	r9,-1
800088da:	0a 39       	cp.w	r9,r5
800088dc:	c1 b4       	brge	80008912 <fatfs_lfn_create_sfn+0xfa>
800088de:	ee 09 07 08 	ld.ub	r8,r7[r9]
800088e2:	fc 08 18 00 	cp.b	r8,lr
800088e6:	5f 1c       	srne	r12
800088e8:	e6 08 18 00 	cp.b	r8,r3
800088ec:	5f 1b       	srne	r11
800088ee:	f9 eb 00 0b 	and	r11,r12,r11
800088f2:	ec 0b 18 00 	cp.b	r11,r6
800088f6:	ce f0       	breq	800088d4 <fatfs_lfn_create_sfn+0xbc>
800088f8:	f0 cc 00 20 	sub	r12,r8,32
800088fc:	f0 cb 00 61 	sub	r11,r8,97
80008900:	e4 0b 18 00 	cp.b	r11,r2
80008904:	fe 98 ff e5 	brls	800088ce <fatfs_lfn_create_sfn+0xb6>
80008908:	e8 0a 0b 08 	st.b	r4[r10],r8
8000890c:	2f fa       	sub	r10,-1
8000890e:	58 8a       	cp.w	r10,8
80008910:	ce 41       	brne	800088d8 <fatfs_lfn_create_sfn+0xc0>
80008912:	1b 88       	ld.ub	r8,sp[0x0]
80008914:	31 99       	mov	r9,25
80008916:	f0 ca 00 61 	sub	r10,r8,97
8000891a:	f2 0a 18 00 	cp.b	r10,r9
8000891e:	f7 b8 08 20 	subls	r8,32
80008922:	31 99       	mov	r9,25
80008924:	e9 68 00 08 	st.b	r4[8],r8
80008928:	1b 98       	ld.ub	r8,sp[0x1]
8000892a:	f0 ca 00 61 	sub	r10,r8,97
8000892e:	f2 0a 18 00 	cp.b	r10,r9
80008932:	f7 b8 08 20 	subls	r8,32
80008936:	e9 68 00 09 	st.b	r4[9],r8
8000893a:	31 99       	mov	r9,25
8000893c:	1b a8       	ld.ub	r8,sp[0x2]
8000893e:	f0 ca 00 61 	sub	r10,r8,97
80008942:	f2 0a 18 00 	cp.b	r10,r9
80008946:	e0 88 00 07 	brls	80008954 <fatfs_lfn_create_sfn+0x13c>
8000894a:	e9 68 00 0a 	st.b	r4[10],r8
8000894e:	2f fd       	sub	sp,-4
80008950:	e3 cf 90 fc 	ldm	sp++,r2-r7,pc,r12=1
80008954:	22 08       	sub	r8,32
80008956:	30 1c       	mov	r12,1
80008958:	e9 68 00 0a 	st.b	r4[10],r8
8000895c:	2f fd       	sub	sp,-4
8000895e:	e3 cd 80 fc 	ldm	sp++,r2-r7,pc
80008962:	2f fd       	sub	sp,-4
80008964:	e3 cf 80 fc 	ldm	sp++,r2-r7,pc,r12=0

80008968 <fatfs_lfn_entries_required>:
80008968:	d4 01       	pushm	lr
8000896a:	e0 a0 10 70 	rcall	8000aa4a <strlen>
8000896e:	c0 e0       	breq	8000898a <fatfs_lfn_entries_required+0x22>
80008970:	f8 c8 ff f4 	sub	r8,r12,-12
80008974:	e0 6b ec 4f 	mov	r11,60495
80008978:	ea 1b 4e c4 	orh	r11,0x4ec4
8000897c:	f0 09 14 1f 	asr	r9,r8,0x1f
80008980:	f0 0b 04 4a 	muls.d	r10,r8,r11
80008984:	f6 0c 14 02 	asr	r12,r11,0x2
80008988:	12 1c       	sub	r12,r9
8000898a:	d8 02       	popm	pc

8000898c <fatfs_filename_to_lfn>:
8000898c:	eb cd 40 fe 	pushm	r1-r7,lr
80008990:	20 dd       	sub	sp,52
80008992:	14 96       	mov	r6,r10
80008994:	12 91       	mov	r1,r9
80008996:	fe c9 cf 0a 	sub	r9,pc,-12534
8000899a:	72 ca       	ld.w	r10,r9[0x30]
8000899c:	16 97       	mov	r7,r11
8000899e:	50 ca       	stdsp	sp[0x30],r10
800089a0:	f2 ea 00 00 	ld.d	r10,r9[0]
800089a4:	fa eb 00 00 	st.d	sp[0],r10
800089a8:	f2 ea 00 08 	ld.d	r10,r9[8]
800089ac:	fa eb 00 08 	st.d	sp[8],r10
800089b0:	f2 ea 00 10 	ld.d	r10,r9[16]
800089b4:	fa eb 00 10 	st.d	sp[16],r10
800089b8:	f2 ea 00 18 	ld.d	r10,r9[24]
800089bc:	fa eb 00 18 	st.d	sp[24],r10
800089c0:	f2 ea 00 20 	ld.d	r10,r9[32]
800089c4:	fa eb 00 20 	st.d	sp[32],r10
800089c8:	f2 ea 00 28 	ld.d	r10,r9[40]
800089cc:	18 93       	mov	r3,r12
800089ce:	fa eb 00 28 	st.d	sp[40],r10
800089d2:	e0 a0 10 3c 	rcall	8000aa4a <strlen>
800089d6:	18 95       	mov	r5,r12
800089d8:	e0 80 01 60 	breq	80008c98 <fatfs_filename_to_lfn+0x30c>
800089dc:	f8 c8 ff f4 	sub	r8,r12,-12
800089e0:	e0 6b ec 4f 	mov	r11,60495
800089e4:	ea 1b 4e c4 	orh	r11,0x4ec4
800089e8:	f0 09 14 1f 	asr	r9,r8,0x1f
800089ec:	f0 0b 04 4a 	muls.d	r10,r8,r11
800089f0:	f6 02 14 02 	asr	r2,r11,0x2
800089f4:	12 12       	sub	r2,r9
800089f6:	20 12       	sub	r2,1
800089f8:	ec 06 00 14 	add	r4,r6,r6<<0x1
800089fc:	32 0a       	mov	r10,32
800089fe:	ec 04 00 24 	add	r4,r6,r4<<0x2
80008a02:	30 0b       	mov	r11,0
80008a04:	0e 9c       	mov	r12,r7
80008a06:	e0 a0 0f bd 	rcall	8000a980 <memset>
80008a0a:	0c 32       	cp.w	r2,r6
80008a0c:	e0 80 01 48 	breq	80008c9c <fatfs_filename_to_lfn+0x310>
80008a10:	2f f6       	sub	r6,-1
80008a12:	5c 56       	castu.b	r6
80008a14:	30 f8       	mov	r8,15
80008a16:	ae 86       	st.b	r7[0x0],r6
80008a18:	ef 61 00 0d 	st.b	r7[13],r1
80008a1c:	ef 68 00 0b 	st.b	r7[11],r8
80008a20:	08 35       	cp.w	r5,r4
80008a22:	e0 89 00 9e 	brgt	80008b5e <fatfs_filename_to_lfn+0x1d2>
80008a26:	e0 80 01 40 	breq	80008ca6 <fatfs_filename_to_lfn+0x31a>
80008a2a:	40 09       	lddsp	r9,sp[0x0]
80008a2c:	3f f8       	mov	r8,-1
80008a2e:	ee 09 0b 08 	st.b	r7[r9],r8
80008a32:	ee 09 00 09 	add	r9,r7,r9
80008a36:	b2 98       	st.b	r9[0x1],r8
80008a38:	e8 c8 ff ff 	sub	r8,r4,-1
80008a3c:	10 35       	cp.w	r5,r8
80008a3e:	e0 8a 00 9a 	brle	80008b72 <fatfs_filename_to_lfn+0x1e6>
80008a42:	e6 08 07 09 	ld.ub	r9,r3[r8]
80008a46:	40 18       	lddsp	r8,sp[0x4]
80008a48:	ee 08 0b 09 	st.b	r7[r8],r9
80008a4c:	e8 c8 ff fe 	sub	r8,r4,-2
80008a50:	10 35       	cp.w	r5,r8
80008a52:	e0 89 00 9f 	brgt	80008b90 <fatfs_filename_to_lfn+0x204>
80008a56:	10 35       	cp.w	r5,r8
80008a58:	e0 80 01 65 	breq	80008d22 <fatfs_filename_to_lfn+0x396>
80008a5c:	40 29       	lddsp	r9,sp[0x8]
80008a5e:	3f f8       	mov	r8,-1
80008a60:	ee 09 0b 08 	st.b	r7[r9],r8
80008a64:	ee 09 00 09 	add	r9,r7,r9
80008a68:	b2 98       	st.b	r9[0x1],r8
80008a6a:	e8 c8 ff fd 	sub	r8,r4,-3
80008a6e:	10 35       	cp.w	r5,r8
80008a70:	e0 8a 00 9a 	brle	80008ba4 <fatfs_filename_to_lfn+0x218>
80008a74:	e6 08 07 09 	ld.ub	r9,r3[r8]
80008a78:	40 38       	lddsp	r8,sp[0xc]
80008a7a:	ee 08 0b 09 	st.b	r7[r8],r9
80008a7e:	e8 c8 ff fc 	sub	r8,r4,-4
80008a82:	10 35       	cp.w	r5,r8
80008a84:	e0 89 00 9f 	brgt	80008bc2 <fatfs_filename_to_lfn+0x236>
80008a88:	10 35       	cp.w	r5,r8
80008a8a:	e0 80 01 42 	breq	80008d0e <fatfs_filename_to_lfn+0x382>
80008a8e:	40 49       	lddsp	r9,sp[0x10]
80008a90:	3f f8       	mov	r8,-1
80008a92:	ee 09 0b 08 	st.b	r7[r9],r8
80008a96:	ee 09 00 09 	add	r9,r7,r9
80008a9a:	b2 98       	st.b	r9[0x1],r8
80008a9c:	e8 c8 ff fb 	sub	r8,r4,-5
80008aa0:	10 35       	cp.w	r5,r8
80008aa2:	e0 8a 00 9a 	brle	80008bd6 <fatfs_filename_to_lfn+0x24a>
80008aa6:	e6 08 07 09 	ld.ub	r9,r3[r8]
80008aaa:	40 58       	lddsp	r8,sp[0x14]
80008aac:	ee 08 0b 09 	st.b	r7[r8],r9
80008ab0:	e8 c8 ff fa 	sub	r8,r4,-6
80008ab4:	10 35       	cp.w	r5,r8
80008ab6:	e0 89 00 9e 	brgt	80008bf2 <fatfs_filename_to_lfn+0x266>
80008aba:	10 35       	cp.w	r5,r8
80008abc:	e0 80 01 09 	breq	80008cce <fatfs_filename_to_lfn+0x342>
80008ac0:	40 69       	lddsp	r9,sp[0x18]
80008ac2:	3f f8       	mov	r8,-1
80008ac4:	ee 09 0b 08 	st.b	r7[r9],r8
80008ac8:	ee 09 00 09 	add	r9,r7,r9
80008acc:	b2 98       	st.b	r9[0x1],r8
80008ace:	e8 c8 ff f9 	sub	r8,r4,-7
80008ad2:	10 35       	cp.w	r5,r8
80008ad4:	e0 8a 00 99 	brle	80008c06 <fatfs_filename_to_lfn+0x27a>
80008ad8:	e6 08 07 09 	ld.ub	r9,r3[r8]
80008adc:	40 78       	lddsp	r8,sp[0x1c]
80008ade:	ee 08 0b 09 	st.b	r7[r8],r9
80008ae2:	e8 c8 ff f8 	sub	r8,r4,-8
80008ae6:	10 35       	cp.w	r5,r8
80008ae8:	e0 89 00 9d 	brgt	80008c22 <fatfs_filename_to_lfn+0x296>
80008aec:	10 35       	cp.w	r5,r8
80008aee:	e0 80 00 e6 	breq	80008cba <fatfs_filename_to_lfn+0x32e>
80008af2:	40 89       	lddsp	r9,sp[0x20]
80008af4:	3f f8       	mov	r8,-1
80008af6:	ee 09 0b 08 	st.b	r7[r9],r8
80008afa:	ee 09 00 09 	add	r9,r7,r9
80008afe:	b2 98       	st.b	r9[0x1],r8
80008b00:	e8 c8 ff f7 	sub	r8,r4,-9
80008b04:	10 35       	cp.w	r5,r8
80008b06:	e0 8a 00 98 	brle	80008c36 <fatfs_filename_to_lfn+0x2aa>
80008b0a:	e6 08 07 09 	ld.ub	r9,r3[r8]
80008b0e:	40 98       	lddsp	r8,sp[0x24]
80008b10:	ee 08 0b 09 	st.b	r7[r8],r9
80008b14:	e8 c8 ff f6 	sub	r8,r4,-10
80008b18:	10 35       	cp.w	r5,r8
80008b1a:	e0 89 00 9c 	brgt	80008c52 <fatfs_filename_to_lfn+0x2c6>
80008b1e:	10 35       	cp.w	r5,r8
80008b20:	e0 80 00 ed 	breq	80008cfa <fatfs_filename_to_lfn+0x36e>
80008b24:	40 a9       	lddsp	r9,sp[0x28]
80008b26:	3f f8       	mov	r8,-1
80008b28:	ee 09 0b 08 	st.b	r7[r9],r8
80008b2c:	ee 09 00 09 	add	r9,r7,r9
80008b30:	b2 98       	st.b	r9[0x1],r8
80008b32:	e8 c8 ff f5 	sub	r8,r4,-11
80008b36:	10 35       	cp.w	r5,r8
80008b38:	e0 8a 00 97 	brle	80008c66 <fatfs_filename_to_lfn+0x2da>
80008b3c:	e6 08 07 09 	ld.ub	r9,r3[r8]
80008b40:	40 b8       	lddsp	r8,sp[0x2c]
80008b42:	ee 08 0b 09 	st.b	r7[r8],r9
80008b46:	2f 44       	sub	r4,-12
80008b48:	08 35       	cp.w	r5,r4
80008b4a:	e0 8a 00 9b 	brle	80008c80 <fatfs_filename_to_lfn+0x2f4>
80008b4e:	e6 04 07 09 	ld.ub	r9,r3[r4]
80008b52:	40 c8       	lddsp	r8,sp[0x30]
80008b54:	ee 08 0b 09 	st.b	r7[r8],r9
80008b58:	2f 3d       	sub	sp,-52
80008b5a:	e3 cd 80 fe 	ldm	sp++,r1-r7,pc
80008b5e:	e6 04 07 09 	ld.ub	r9,r3[r4]
80008b62:	40 08       	lddsp	r8,sp[0x0]
80008b64:	ee 08 0b 09 	st.b	r7[r8],r9
80008b68:	e8 c8 ff ff 	sub	r8,r4,-1
80008b6c:	10 35       	cp.w	r5,r8
80008b6e:	fe 99 ff 6a 	brgt	80008a42 <fatfs_filename_to_lfn+0xb6>
80008b72:	10 35       	cp.w	r5,r8
80008b74:	e0 80 00 d2 	breq	80008d18 <fatfs_filename_to_lfn+0x38c>
80008b78:	40 19       	lddsp	r9,sp[0x4]
80008b7a:	3f f8       	mov	r8,-1
80008b7c:	ee 09 0b 08 	st.b	r7[r9],r8
80008b80:	ee 09 00 09 	add	r9,r7,r9
80008b84:	b2 98       	st.b	r9[0x1],r8
80008b86:	e8 c8 ff fe 	sub	r8,r4,-2
80008b8a:	10 35       	cp.w	r5,r8
80008b8c:	fe 9a ff 65 	brle	80008a56 <fatfs_filename_to_lfn+0xca>
80008b90:	e6 08 07 09 	ld.ub	r9,r3[r8]
80008b94:	40 28       	lddsp	r8,sp[0x8]
80008b96:	ee 08 0b 09 	st.b	r7[r8],r9
80008b9a:	e8 c8 ff fd 	sub	r8,r4,-3
80008b9e:	10 35       	cp.w	r5,r8
80008ba0:	fe 99 ff 6a 	brgt	80008a74 <fatfs_filename_to_lfn+0xe8>
80008ba4:	10 35       	cp.w	r5,r8
80008ba6:	e0 80 00 af 	breq	80008d04 <fatfs_filename_to_lfn+0x378>
80008baa:	40 39       	lddsp	r9,sp[0xc]
80008bac:	3f f8       	mov	r8,-1
80008bae:	ee 09 0b 08 	st.b	r7[r9],r8
80008bb2:	ee 09 00 09 	add	r9,r7,r9
80008bb6:	b2 98       	st.b	r9[0x1],r8
80008bb8:	e8 c8 ff fc 	sub	r8,r4,-4
80008bbc:	10 35       	cp.w	r5,r8
80008bbe:	fe 9a ff 65 	brle	80008a88 <fatfs_filename_to_lfn+0xfc>
80008bc2:	e6 08 07 09 	ld.ub	r9,r3[r8]
80008bc6:	40 48       	lddsp	r8,sp[0x10]
80008bc8:	ee 08 0b 09 	st.b	r7[r8],r9
80008bcc:	e8 c8 ff fb 	sub	r8,r4,-5
80008bd0:	10 35       	cp.w	r5,r8
80008bd2:	fe 99 ff 6a 	brgt	80008aa6 <fatfs_filename_to_lfn+0x11a>
80008bd6:	10 35       	cp.w	r5,r8
80008bd8:	c7 60       	breq	80008cc4 <fatfs_filename_to_lfn+0x338>
80008bda:	40 59       	lddsp	r9,sp[0x14]
80008bdc:	3f f8       	mov	r8,-1
80008bde:	ee 09 0b 08 	st.b	r7[r9],r8
80008be2:	ee 09 00 09 	add	r9,r7,r9
80008be6:	b2 98       	st.b	r9[0x1],r8
80008be8:	e8 c8 ff fa 	sub	r8,r4,-6
80008bec:	10 35       	cp.w	r5,r8
80008bee:	fe 9a ff 66 	brle	80008aba <fatfs_filename_to_lfn+0x12e>
80008bf2:	e6 08 07 09 	ld.ub	r9,r3[r8]
80008bf6:	40 68       	lddsp	r8,sp[0x18]
80008bf8:	ee 08 0b 09 	st.b	r7[r8],r9
80008bfc:	e8 c8 ff f9 	sub	r8,r4,-7
80008c00:	10 35       	cp.w	r5,r8
80008c02:	fe 99 ff 6b 	brgt	80008ad8 <fatfs_filename_to_lfn+0x14c>
80008c06:	10 35       	cp.w	r5,r8
80008c08:	c5 40       	breq	80008cb0 <fatfs_filename_to_lfn+0x324>
80008c0a:	40 79       	lddsp	r9,sp[0x1c]
80008c0c:	3f f8       	mov	r8,-1
80008c0e:	ee 09 0b 08 	st.b	r7[r9],r8
80008c12:	ee 09 00 09 	add	r9,r7,r9
80008c16:	b2 98       	st.b	r9[0x1],r8
80008c18:	e8 c8 ff f8 	sub	r8,r4,-8
80008c1c:	10 35       	cp.w	r5,r8
80008c1e:	fe 9a ff 67 	brle	80008aec <fatfs_filename_to_lfn+0x160>
80008c22:	e6 08 07 09 	ld.ub	r9,r3[r8]
80008c26:	40 88       	lddsp	r8,sp[0x20]
80008c28:	ee 08 0b 09 	st.b	r7[r8],r9
80008c2c:	e8 c8 ff f7 	sub	r8,r4,-9
80008c30:	10 35       	cp.w	r5,r8
80008c32:	fe 99 ff 6c 	brgt	80008b0a <fatfs_filename_to_lfn+0x17e>
80008c36:	10 35       	cp.w	r5,r8
80008c38:	c5 c0       	breq	80008cf0 <fatfs_filename_to_lfn+0x364>
80008c3a:	40 99       	lddsp	r9,sp[0x24]
80008c3c:	3f f8       	mov	r8,-1
80008c3e:	ee 09 0b 08 	st.b	r7[r9],r8
80008c42:	ee 09 00 09 	add	r9,r7,r9
80008c46:	b2 98       	st.b	r9[0x1],r8
80008c48:	e8 c8 ff f6 	sub	r8,r4,-10
80008c4c:	10 35       	cp.w	r5,r8
80008c4e:	fe 9a ff 68 	brle	80008b1e <fatfs_filename_to_lfn+0x192>
80008c52:	e6 08 07 09 	ld.ub	r9,r3[r8]
80008c56:	40 a8       	lddsp	r8,sp[0x28]
80008c58:	ee 08 0b 09 	st.b	r7[r8],r9
80008c5c:	e8 c8 ff f5 	sub	r8,r4,-11
80008c60:	10 35       	cp.w	r5,r8
80008c62:	fe 99 ff 6d 	brgt	80008b3c <fatfs_filename_to_lfn+0x1b0>
80008c66:	10 35       	cp.w	r5,r8
80008c68:	c3 80       	breq	80008cd8 <fatfs_filename_to_lfn+0x34c>
80008c6a:	40 b9       	lddsp	r9,sp[0x2c]
80008c6c:	3f f8       	mov	r8,-1
80008c6e:	ee 09 0b 08 	st.b	r7[r9],r8
80008c72:	ee 09 00 09 	add	r9,r7,r9
80008c76:	b2 98       	st.b	r9[0x1],r8
80008c78:	2f 44       	sub	r4,-12
80008c7a:	08 35       	cp.w	r5,r4
80008c7c:	fe 99 ff 69 	brgt	80008b4e <fatfs_filename_to_lfn+0x1c2>
80008c80:	08 35       	cp.w	r5,r4
80008c82:	c3 00       	breq	80008ce2 <fatfs_filename_to_lfn+0x356>
80008c84:	40 c9       	lddsp	r9,sp[0x30]
80008c86:	3f f8       	mov	r8,-1
80008c88:	ee 09 0b 08 	st.b	r7[r9],r8
80008c8c:	ee 09 00 09 	add	r9,r7,r9
80008c90:	b2 98       	st.b	r9[0x1],r8
80008c92:	2f 3d       	sub	sp,-52
80008c94:	e3 cd 80 fe 	ldm	sp++,r1-r7,pc
80008c98:	3f f2       	mov	r2,-1
80008c9a:	ca fa       	rjmp	800089f8 <fatfs_filename_to_lfn+0x6c>
80008c9c:	e4 c6 ff ff 	sub	r6,r2,-1
80008ca0:	a7 a6       	sbr	r6,0x6
80008ca2:	5c 56       	castu.b	r6
80008ca4:	cb 8a       	rjmp	80008a14 <fatfs_filename_to_lfn+0x88>
80008ca6:	30 09       	mov	r9,0
80008ca8:	40 08       	lddsp	r8,sp[0x0]
80008caa:	ee 08 0b 09 	st.b	r7[r8],r9
80008cae:	c5 db       	rjmp	80008b68 <fatfs_filename_to_lfn+0x1dc>
80008cb0:	30 09       	mov	r9,0
80008cb2:	40 78       	lddsp	r8,sp[0x1c]
80008cb4:	ee 08 0b 09 	st.b	r7[r8],r9
80008cb8:	c1 5b       	rjmp	80008ae2 <fatfs_filename_to_lfn+0x156>
80008cba:	30 09       	mov	r9,0
80008cbc:	40 88       	lddsp	r8,sp[0x20]
80008cbe:	ee 08 0b 09 	st.b	r7[r8],r9
80008cc2:	cb 5b       	rjmp	80008c2c <fatfs_filename_to_lfn+0x2a0>
80008cc4:	30 09       	mov	r9,0
80008cc6:	40 58       	lddsp	r8,sp[0x14]
80008cc8:	ee 08 0b 09 	st.b	r7[r8],r9
80008ccc:	cf 2a       	rjmp	80008ab0 <fatfs_filename_to_lfn+0x124>
80008cce:	30 09       	mov	r9,0
80008cd0:	40 68       	lddsp	r8,sp[0x18]
80008cd2:	ee 08 0b 09 	st.b	r7[r8],r9
80008cd6:	c9 3b       	rjmp	80008bfc <fatfs_filename_to_lfn+0x270>
80008cd8:	30 09       	mov	r9,0
80008cda:	40 b8       	lddsp	r8,sp[0x2c]
80008cdc:	ee 08 0b 09 	st.b	r7[r8],r9
80008ce0:	c3 3b       	rjmp	80008b46 <fatfs_filename_to_lfn+0x1ba>
80008ce2:	30 09       	mov	r9,0
80008ce4:	40 c8       	lddsp	r8,sp[0x30]
80008ce6:	ee 08 0b 09 	st.b	r7[r8],r9
80008cea:	2f 3d       	sub	sp,-52
80008cec:	e3 cd 80 fe 	ldm	sp++,r1-r7,pc
80008cf0:	30 09       	mov	r9,0
80008cf2:	40 98       	lddsp	r8,sp[0x24]
80008cf4:	ee 08 0b 09 	st.b	r7[r8],r9
80008cf8:	c0 eb       	rjmp	80008b14 <fatfs_filename_to_lfn+0x188>
80008cfa:	30 09       	mov	r9,0
80008cfc:	40 a8       	lddsp	r8,sp[0x28]
80008cfe:	ee 08 0b 09 	st.b	r7[r8],r9
80008d02:	ca db       	rjmp	80008c5c <fatfs_filename_to_lfn+0x2d0>
80008d04:	30 09       	mov	r9,0
80008d06:	40 38       	lddsp	r8,sp[0xc]
80008d08:	ee 08 0b 09 	st.b	r7[r8],r9
80008d0c:	cb 9a       	rjmp	80008a7e <fatfs_filename_to_lfn+0xf2>
80008d0e:	30 09       	mov	r9,0
80008d10:	40 48       	lddsp	r8,sp[0x10]
80008d12:	ee 08 0b 09 	st.b	r7[r8],r9
80008d16:	c5 bb       	rjmp	80008bcc <fatfs_filename_to_lfn+0x240>
80008d18:	30 09       	mov	r9,0
80008d1a:	40 18       	lddsp	r8,sp[0x4]
80008d1c:	ee 08 0b 09 	st.b	r7[r8],r9
80008d20:	c9 6a       	rjmp	80008a4c <fatfs_filename_to_lfn+0xc0>
80008d22:	30 09       	mov	r9,0
80008d24:	40 28       	lddsp	r8,sp[0x8]
80008d26:	ee 08 0b 09 	st.b	r7[r8],r9
80008d2a:	c3 8b       	rjmp	80008b9a <fatfs_filename_to_lfn+0x20e>

80008d2c <fatfs_total_path_levels>:
80008d2c:	58 0c       	cp.w	r12,0
80008d2e:	c2 b0       	breq	80008d84 <fatfs_total_path_levels+0x58>
80008d30:	19 89       	ld.ub	r9,r12[0x0]
80008d32:	32 f8       	mov	r8,47
80008d34:	f0 09 18 00 	cp.b	r9,r8
80008d38:	c1 d0       	breq	80008d72 <fatfs_total_path_levels+0x46>
80008d3a:	19 99       	ld.ub	r9,r12[0x1]
80008d3c:	33 a8       	mov	r8,58
80008d3e:	f0 09 18 00 	cp.b	r9,r8
80008d42:	c1 c1       	brne	80008d7a <fatfs_total_path_levels+0x4e>
80008d44:	f8 c8 ff fd 	sub	r8,r12,-3
80008d48:	35 ca       	mov	r10,92
80008d4a:	11 89       	ld.ub	r9,r8[0x0]
80008d4c:	58 09       	cp.w	r9,0
80008d4e:	c1 c0       	breq	80008d86 <fatfs_total_path_levels+0x5a>
80008d50:	30 0c       	mov	r12,0
80008d52:	c0 58       	rjmp	80008d5c <fatfs_total_path_levels+0x30>
80008d54:	2f f8       	sub	r8,-1
80008d56:	11 89       	ld.ub	r9,r8[0x0]
80008d58:	58 09       	cp.w	r9,0
80008d5a:	c0 b0       	breq	80008d70 <fatfs_total_path_levels+0x44>
80008d5c:	f2 0a 18 00 	cp.b	r10,r9
80008d60:	cf a1       	brne	80008d54 <fatfs_total_path_levels+0x28>
80008d62:	2f f8       	sub	r8,-1
80008d64:	2f fc       	sub	r12,-1
80008d66:	11 89       	ld.ub	r9,r8[0x0]
80008d68:	58 09       	cp.w	r9,0
80008d6a:	cf 91       	brne	80008d5c <fatfs_total_path_levels+0x30>
80008d6c:	20 1c       	sub	r12,1
80008d6e:	5e fc       	retal	r12
80008d70:	5e fc       	retal	r12
80008d72:	f8 c8 ff ff 	sub	r8,r12,-1
80008d76:	32 fa       	mov	r10,47
80008d78:	ce 9b       	rjmp	80008d4a <fatfs_total_path_levels+0x1e>
80008d7a:	19 a9       	ld.ub	r9,r12[0x2]
80008d7c:	35 c8       	mov	r8,92
80008d7e:	f0 09 18 00 	cp.b	r9,r8
80008d82:	ce 10       	breq	80008d44 <fatfs_total_path_levels+0x18>
80008d84:	5e fe       	retal	-1
80008d86:	5e fe       	retal	-1

80008d88 <fatfs_get_sfn_display_name>:
80008d88:	eb cd 40 e0 	pushm	r5-r7,lr
80008d8c:	30 09       	mov	r9,0
80008d8e:	32 06       	mov	r6,32
80008d90:	12 9e       	mov	lr,r9
80008d92:	31 95       	mov	r5,25
80008d94:	58 b9       	cp.w	r9,11
80008d96:	5f a7       	srle	r7
80008d98:	17 88       	ld.ub	r8,r11[0x0]
80008d9a:	2f fb       	sub	r11,-1
80008d9c:	fc 08 18 00 	cp.b	r8,lr
80008da0:	5f 1a       	srne	r10
80008da2:	ef ea 00 0a 	and	r10,r7,r10
80008da6:	14 97       	mov	r7,r10
80008da8:	fc 0a 18 00 	cp.b	r10,lr
80008dac:	c1 10       	breq	80008dce <fatfs_get_sfn_display_name+0x46>
80008dae:	ec 08 18 00 	cp.b	r8,r6
80008db2:	cf 10       	breq	80008d94 <fatfs_get_sfn_display_name+0xc>
80008db4:	2f f9       	sub	r9,-1
80008db6:	f0 c7 ff e0 	sub	r7,r8,-32
80008dba:	f0 ca 00 41 	sub	r10,r8,65
80008dbe:	ea 0a 18 00 	cp.b	r10,r5
80008dc2:	e0 8b 00 04 	brhi	80008dca <fatfs_get_sfn_display_name+0x42>
80008dc6:	f1 d7 c0 08 	bfextu	r8,r7,0x0,0x8
80008dca:	18 c8       	st.b	r12++,r8
80008dcc:	ce 4b       	rjmp	80008d94 <fatfs_get_sfn_display_name+0xc>
80008dce:	b8 8a       	st.b	r12[0x0],r10
80008dd0:	e3 cf 90 e0 	ldm	sp++,r5-r7,pc,r12=1

80008dd4 <fatfs_compare_names>:
80008dd4:	d4 31       	pushm	r0-r7,lr
80008dd6:	20 4d       	sub	sp,16
80008dd8:	18 97       	mov	r7,r12
80008dda:	19 84       	ld.ub	r4,r12[0x0]
80008ddc:	58 04       	cp.w	r4,0
80008dde:	e0 80 00 e9 	breq	80008fb0 <fatfs_compare_names+0x1dc>
80008de2:	18 99       	mov	r9,r12
80008de4:	08 9a       	mov	r10,r4
80008de6:	30 08       	mov	r8,0
80008de8:	3f f6       	mov	r6,-1
80008dea:	32 ec       	mov	r12,46
80008dec:	f4 0c 18 00 	cp.b	r12,r10
80008df0:	f0 06 17 00 	moveq	r6,r8
80008df4:	2f f9       	sub	r9,-1
80008df6:	2f f8       	sub	r8,-1
80008df8:	13 8a       	ld.ub	r10,r9[0x0]
80008dfa:	58 0a       	cp.w	r10,0
80008dfc:	cf 81       	brne	80008dec <fatfs_compare_names+0x18>
80008dfe:	17 83       	ld.ub	r3,r11[0x0]
80008e00:	58 03       	cp.w	r3,0
80008e02:	e0 80 00 d9 	breq	80008fb4 <fatfs_compare_names+0x1e0>
80008e06:	06 98       	mov	r8,r3
80008e08:	16 9a       	mov	r10,r11
80008e0a:	30 09       	mov	r9,0
80008e0c:	3f f5       	mov	r5,-1
80008e0e:	32 ec       	mov	r12,46
80008e10:	f0 0c 18 00 	cp.b	r12,r8
80008e14:	f2 05 17 00 	moveq	r5,r9
80008e18:	2f fa       	sub	r10,-1
80008e1a:	2f f9       	sub	r9,-1
80008e1c:	15 88       	ld.ub	r8,r10[0x0]
80008e1e:	58 08       	cp.w	r8,0
80008e20:	cf 81       	brne	80008e10 <fatfs_compare_names+0x3c>
80008e22:	5b f5       	cp.w	r5,-1
80008e24:	5f 1a       	srne	r10
80008e26:	5b f6       	cp.w	r6,-1
80008e28:	5f 09       	sreq	r9
80008e2a:	f5 e9 00 09 	and	r9,r10,r9
80008e2e:	f0 09 18 00 	cp.b	r9,r8
80008e32:	c1 e1       	brne	80008e6e <fatfs_compare_names+0x9a>
80008e34:	5b f5       	cp.w	r5,-1
80008e36:	5f 09       	sreq	r9
80008e38:	5b f6       	cp.w	r6,-1
80008e3a:	5f 18       	srne	r8
80008e3c:	10 69       	and	r9,r8
80008e3e:	c1 81       	brne	80008e6e <fatfs_compare_names+0x9a>
80008e40:	58 08       	cp.w	r8,0
80008e42:	c4 c0       	breq	80008eda <fatfs_compare_names+0x106>
80008e44:	ea c8 ff ff 	sub	r8,r5,-1
80008e48:	50 0b       	stdsp	sp[0x0],r11
80008e4a:	f6 08 00 00 	add	r0,r11,r8
80008e4e:	ec c1 ff ff 	sub	r1,r6,-1
80008e52:	50 26       	stdsp	sp[0x8],r6
80008e54:	ee 01 00 01 	add	r1,r7,r1
80008e58:	50 15       	stdsp	sp[0x4],r5
80008e5a:	02 9c       	mov	r12,r1
80008e5c:	e0 a0 0d f7 	rcall	8000aa4a <strlen>
80008e60:	18 92       	mov	r2,r12
80008e62:	00 9c       	mov	r12,r0
80008e64:	e0 a0 0d f3 	rcall	8000aa4a <strlen>
80008e68:	40 0b       	lddsp	r11,sp[0x0]
80008e6a:	18 32       	cp.w	r2,r12
80008e6c:	c0 40       	breq	80008e74 <fatfs_compare_names+0xa0>
80008e6e:	30 0c       	mov	r12,0
80008e70:	2f cd       	sub	sp,-16
80008e72:	d8 32       	popm	r0-r7,pc
80008e74:	58 02       	cp.w	r2,0
80008e76:	e0 80 00 a3 	breq	80008fbc <fatfs_compare_names+0x1e8>
80008e7a:	30 08       	mov	r8,0
80008e7c:	31 9c       	mov	r12,25
80008e7e:	50 34       	stdsp	sp[0xc],r4
80008e80:	c1 68       	rjmp	80008eac <fatfs_compare_names+0xd8>
80008e82:	12 94       	mov	r4,r9
80008e84:	f4 ce 00 41 	sub	lr,r10,65
80008e88:	f8 0e 18 00 	cp.b	lr,r12
80008e8c:	e0 88 00 23 	brls	80008ed2 <fatfs_compare_names+0xfe>
80008e90:	14 9e       	mov	lr,r10
80008e92:	e8 0e 01 0e 	sub	lr,r4,lr
80008e96:	ce c1       	brne	80008e6e <fatfs_compare_names+0x9a>
80008e98:	58 09       	cp.w	r9,0
80008e9a:	e0 80 00 90 	breq	80008fba <fatfs_compare_names+0x1e6>
80008e9e:	58 0a       	cp.w	r10,0
80008ea0:	e0 80 00 8d 	breq	80008fba <fatfs_compare_names+0x1e6>
80008ea4:	2f f8       	sub	r8,-1
80008ea6:	10 32       	cp.w	r2,r8
80008ea8:	e0 80 00 89 	breq	80008fba <fatfs_compare_names+0x1e6>
80008eac:	e2 08 07 09 	ld.ub	r9,r1[r8]
80008eb0:	e0 08 07 0a 	ld.ub	r10,r0[r8]
80008eb4:	f2 ce 00 41 	sub	lr,r9,65
80008eb8:	f8 0e 18 00 	cp.b	lr,r12
80008ebc:	fe 9b ff e3 	brhi	80008e82 <fatfs_compare_names+0xae>
80008ec0:	f2 c4 ff e0 	sub	r4,r9,-32
80008ec4:	f4 ce 00 41 	sub	lr,r10,65
80008ec8:	5c 54       	castu.b	r4
80008eca:	f8 0e 18 00 	cp.b	lr,r12
80008ece:	fe 9b ff e1 	brhi	80008e90 <fatfs_compare_names+0xbc>
80008ed2:	f4 ce ff e0 	sub	lr,r10,-32
80008ed6:	5c 5e       	castu.b	lr
80008ed8:	cd db       	rjmp	80008e92 <fatfs_compare_names+0xbe>
80008eda:	50 0b       	stdsp	sp[0x0],r11
80008edc:	0e 9c       	mov	r12,r7
80008ede:	e0 a0 0d b6 	rcall	8000aa4a <strlen>
80008ee2:	40 0b       	lddsp	r11,sp[0x0]
80008ee4:	18 96       	mov	r6,r12
80008ee6:	16 9c       	mov	r12,r11
80008ee8:	50 26       	stdsp	sp[0x8],r6
80008eea:	e0 a0 0d b0 	rcall	8000aa4a <strlen>
80008eee:	40 0b       	lddsp	r11,sp[0x0]
80008ef0:	50 1c       	stdsp	sp[0x4],r12
80008ef2:	58 06       	cp.w	r6,0
80008ef4:	c1 60       	breq	80008f20 <fatfs_compare_names+0x14c>
80008ef6:	40 29       	lddsp	r9,sp[0x8]
80008ef8:	32 08       	mov	r8,32
80008efa:	20 19       	sub	r9,1
80008efc:	ee 09 00 09 	add	r9,r7,r9
80008f00:	13 85       	ld.ub	r5,r9[0x0]
80008f02:	f0 05 18 00 	cp.b	r5,r8
80008f06:	c0 d1       	brne	80008f20 <fatfs_compare_names+0x14c>
80008f08:	f2 07 01 08 	sub	r8,r9,r7
80008f0c:	c0 68       	rjmp	80008f18 <fatfs_compare_names+0x144>
80008f0e:	20 18       	sub	r8,1
80008f10:	13 7a       	ld.ub	r10,--r9
80008f12:	ea 0a 18 00 	cp.b	r10,r5
80008f16:	c0 41       	brne	80008f1e <fatfs_compare_names+0x14a>
80008f18:	20 16       	sub	r6,1
80008f1a:	10 9e       	mov	lr,r8
80008f1c:	cf 91       	brne	80008f0e <fatfs_compare_names+0x13a>
80008f1e:	1c 96       	mov	r6,lr
80008f20:	58 0c       	cp.w	r12,0
80008f22:	c1 60       	breq	80008f4e <fatfs_compare_names+0x17a>
80008f24:	40 19       	lddsp	r9,sp[0x4]
80008f26:	32 08       	mov	r8,32
80008f28:	20 19       	sub	r9,1
80008f2a:	f6 09 00 09 	add	r9,r11,r9
80008f2e:	13 85       	ld.ub	r5,r9[0x0]
80008f30:	f0 05 18 00 	cp.b	r5,r8
80008f34:	c0 d1       	brne	80008f4e <fatfs_compare_names+0x17a>
80008f36:	f2 0b 01 08 	sub	r8,r9,r11
80008f3a:	c0 68       	rjmp	80008f46 <fatfs_compare_names+0x172>
80008f3c:	20 18       	sub	r8,1
80008f3e:	13 7a       	ld.ub	r10,--r9
80008f40:	ea 0a 18 00 	cp.b	r10,r5
80008f44:	c0 41       	brne	80008f4c <fatfs_compare_names+0x178>
80008f46:	20 1c       	sub	r12,1
80008f48:	10 9e       	mov	lr,r8
80008f4a:	cf 91       	brne	80008f3c <fatfs_compare_names+0x168>
80008f4c:	1c 9c       	mov	r12,lr
80008f4e:	18 36       	cp.w	r6,r12
80008f50:	c8 f1       	brne	80008e6e <fatfs_compare_names+0x9a>
80008f52:	58 06       	cp.w	r6,0
80008f54:	c3 60       	breq	80008fc0 <fatfs_compare_names+0x1ec>
80008f56:	30 08       	mov	r8,0
80008f58:	31 99       	mov	r9,25
80008f5a:	c1 88       	rjmp	80008f8a <fatfs_compare_names+0x1b6>
80008f5c:	08 9c       	mov	r12,r4
80008f5e:	e6 ca 00 41 	sub	r10,r3,65
80008f62:	f2 0a 18 00 	cp.b	r10,r9
80008f66:	e0 88 00 21 	brls	80008fa8 <fatfs_compare_names+0x1d4>
80008f6a:	06 9a       	mov	r10,r3
80008f6c:	f4 0c 18 00 	cp.b	r12,r10
80008f70:	fe 91 ff 7f 	brne	80008e6e <fatfs_compare_names+0x9a>
80008f74:	58 04       	cp.w	r4,0
80008f76:	c2 50       	breq	80008fc0 <fatfs_compare_names+0x1ec>
80008f78:	58 03       	cp.w	r3,0
80008f7a:	c2 30       	breq	80008fc0 <fatfs_compare_names+0x1ec>
80008f7c:	2f f8       	sub	r8,-1
80008f7e:	10 36       	cp.w	r6,r8
80008f80:	c2 00       	breq	80008fc0 <fatfs_compare_names+0x1ec>
80008f82:	ee 08 07 04 	ld.ub	r4,r7[r8]
80008f86:	f6 08 07 03 	ld.ub	r3,r11[r8]
80008f8a:	08 9a       	mov	r10,r4
80008f8c:	24 1a       	sub	r10,65
80008f8e:	f2 0a 18 00 	cp.b	r10,r9
80008f92:	fe 9b ff e5 	brhi	80008f5c <fatfs_compare_names+0x188>
80008f96:	08 9c       	mov	r12,r4
80008f98:	e6 ca 00 41 	sub	r10,r3,65
80008f9c:	2e 0c       	sub	r12,-32
80008f9e:	5c 5c       	castu.b	r12
80008fa0:	f2 0a 18 00 	cp.b	r10,r9
80008fa4:	fe 9b ff e3 	brhi	80008f6a <fatfs_compare_names+0x196>
80008fa8:	e6 ca ff e0 	sub	r10,r3,-32
80008fac:	5c 5a       	castu.b	r10
80008fae:	cd fb       	rjmp	80008f6c <fatfs_compare_names+0x198>
80008fb0:	3f f6       	mov	r6,-1
80008fb2:	c2 6b       	rjmp	80008dfe <fatfs_compare_names+0x2a>
80008fb4:	30 19       	mov	r9,1
80008fb6:	3f f5       	mov	r5,-1
80008fb8:	c4 0b       	rjmp	80008e38 <fatfs_compare_names+0x64>
80008fba:	40 34       	lddsp	r4,sp[0xc]
80008fbc:	0a 9c       	mov	r12,r5
80008fbe:	c9 ab       	rjmp	80008ef2 <fatfs_compare_names+0x11e>
80008fc0:	30 1c       	mov	r12,1
80008fc2:	c5 7b       	rjmp	80008e70 <fatfs_compare_names+0x9c>

80008fc4 <fatfs_get_substring>:
80008fc4:	eb cd 40 f8 	pushm	r3-r7,lr
80008fc8:	20 3d       	sub	sp,12
80008fca:	58 0c       	cp.w	r12,0
80008fcc:	5f 08       	sreq	r8
80008fce:	58 09       	cp.w	r9,0
80008fd0:	5f a7       	srle	r7
80008fd2:	ef e8 10 08 	or	r8,r7,r8
80008fd6:	c4 61       	brne	80009062 <fatfs_get_substring+0x9e>
80008fd8:	19 8e       	ld.ub	lr,r12[0x0]
80008fda:	32 f8       	mov	r8,47
80008fdc:	f0 0e 18 00 	cp.b	lr,r8
80008fe0:	c4 40       	breq	80009068 <fatfs_get_substring+0xa4>
80008fe2:	19 9e       	ld.ub	lr,r12[0x1]
80008fe4:	33 a8       	mov	r8,58
80008fe6:	f0 0e 18 00 	cp.b	lr,r8
80008fea:	c3 71       	brne	80009058 <fatfs_get_substring+0x94>
80008fec:	f8 c6 ff fd 	sub	r6,r12,-3
80008ff0:	35 c7       	mov	r7,92
80008ff2:	50 2b       	stdsp	sp[0x8],r11
80008ff4:	50 1a       	stdsp	sp[0x4],r10
80008ff6:	50 09       	stdsp	sp[0x0],r9
80008ff8:	0c 9c       	mov	r12,r6
80008ffa:	e0 a0 0d 28 	rcall	8000aa4a <strlen>
80008ffe:	40 2b       	lddsp	r11,sp[0x8]
80009000:	40 1a       	lddsp	r10,sp[0x4]
80009002:	40 09       	lddsp	r9,sp[0x0]
80009004:	e0 8a 00 36 	brle	80009070 <fatfs_get_substring+0xac>
80009008:	30 04       	mov	r4,0
8000900a:	20 19       	sub	r9,1
8000900c:	08 95       	mov	r5,r4
8000900e:	08 98       	mov	r8,r4
80009010:	c0 48       	rjmp	80009018 <fatfs_get_substring+0x54>
80009012:	2f f8       	sub	r8,-1
80009014:	10 3c       	cp.w	r12,r8
80009016:	c1 70       	breq	80009044 <fatfs_get_substring+0x80>
80009018:	ec 08 07 0e 	ld.ub	lr,r6[r8]
8000901c:	0e 93       	mov	r3,r7
8000901e:	ee 0e 18 00 	cp.b	lr,r7
80009022:	f7 b5 00 ff 	subeq	r5,-1
80009026:	16 35       	cp.w	r5,r11
80009028:	cf 51       	brne	80009012 <fatfs_get_substring+0x4e>
8000902a:	0e 93       	mov	r3,r7
8000902c:	fc 07 18 00 	cp.b	r7,lr
80009030:	cf 10       	breq	80009012 <fatfs_get_substring+0x4e>
80009032:	08 39       	cp.w	r9,r4
80009034:	fe 9a ff ef 	brle	80009012 <fatfs_get_substring+0x4e>
80009038:	f4 04 0b 0e 	st.b	r10[r4],lr
8000903c:	2f f8       	sub	r8,-1
8000903e:	2f f4       	sub	r4,-1
80009040:	10 3c       	cp.w	r12,r8
80009042:	ce b1       	brne	80009018 <fatfs_get_substring+0x54>
80009044:	30 08       	mov	r8,0
80009046:	f4 04 0b 08 	st.b	r10[r4],r8
8000904a:	15 89       	ld.ub	r9,r10[0x0]
8000904c:	f0 09 18 00 	cp.b	r9,r8
80009050:	c0 90       	breq	80009062 <fatfs_get_substring+0x9e>
80009052:	2f dd       	sub	sp,-12
80009054:	e3 cf 80 f8 	ldm	sp++,r3-r7,pc,r12=0
80009058:	19 ae       	ld.ub	lr,r12[0x2]
8000905a:	35 c8       	mov	r8,92
8000905c:	f0 0e 18 00 	cp.b	lr,r8
80009060:	cc 60       	breq	80008fec <fatfs_get_substring+0x28>
80009062:	2f dd       	sub	sp,-12
80009064:	e3 cf c0 f8 	ldm	sp++,r3-r7,pc,r12=-1
80009068:	f8 c6 ff ff 	sub	r6,r12,-1
8000906c:	32 f7       	mov	r7,47
8000906e:	cc 2b       	rjmp	80008ff2 <fatfs_get_substring+0x2e>
80009070:	30 04       	mov	r4,0
80009072:	ce 9b       	rjmp	80009044 <fatfs_get_substring+0x80>

80009074 <fatfs_split_path>:
80009074:	eb cd 40 fc 	pushm	r2-r7,lr
80009078:	18 97       	mov	r7,r12
8000907a:	16 95       	mov	r5,r11
8000907c:	14 93       	mov	r3,r10
8000907e:	12 96       	mov	r6,r9
80009080:	58 0c       	cp.w	r12,0
80009082:	c4 60       	breq	8000910e <fatfs_split_path+0x9a>
80009084:	19 8b       	ld.ub	r11,r12[0x0]
80009086:	32 fa       	mov	r10,47
80009088:	f4 0b 18 00 	cp.b	r11,r10
8000908c:	c4 30       	breq	80009112 <fatfs_split_path+0x9e>
8000908e:	19 9a       	ld.ub	r10,r12[0x1]
80009090:	33 a9       	mov	r9,58
80009092:	f2 0a 18 00 	cp.b	r10,r9
80009096:	c3 71       	brne	80009104 <fatfs_split_path+0x90>
80009098:	ee ca ff fd 	sub	r10,r7,-3
8000909c:	35 cc       	mov	r12,92
8000909e:	15 8b       	ld.ub	r11,r10[0x0]
800090a0:	58 0b       	cp.w	r11,0
800090a2:	c3 60       	breq	8000910e <fatfs_split_path+0x9a>
800090a4:	30 04       	mov	r4,0
800090a6:	c0 58       	rjmp	800090b0 <fatfs_split_path+0x3c>
800090a8:	2f fa       	sub	r10,-1
800090aa:	15 8b       	ld.ub	r11,r10[0x0]
800090ac:	58 0b       	cp.w	r11,0
800090ae:	c0 a0       	breq	800090c2 <fatfs_split_path+0x4e>
800090b0:	f8 0b 18 00 	cp.b	r11,r12
800090b4:	cf a1       	brne	800090a8 <fatfs_split_path+0x34>
800090b6:	2f fa       	sub	r10,-1
800090b8:	2f f4       	sub	r4,-1
800090ba:	15 8b       	ld.ub	r11,r10[0x0]
800090bc:	58 0b       	cp.w	r11,0
800090be:	cf 91       	brne	800090b0 <fatfs_split_path+0x3c>
800090c0:	c0 28       	rjmp	800090c4 <fatfs_split_path+0x50>
800090c2:	2f f4       	sub	r4,-1
800090c4:	20 14       	sub	r4,1
800090c6:	10 99       	mov	r9,r8
800090c8:	0c 9a       	mov	r10,r6
800090ca:	08 9b       	mov	r11,r4
800090cc:	0e 9c       	mov	r12,r7
800090ce:	c7 bf       	rcall	80008fc4 <fatfs_get_substring>
800090d0:	18 92       	mov	r2,r12
800090d2:	c1 e1       	brne	8000910e <fatfs_split_path+0x9a>
800090d4:	58 04       	cp.w	r4,0
800090d6:	c2 20       	breq	8000911a <fatfs_split_path+0xa6>
800090d8:	0e 9c       	mov	r12,r7
800090da:	e0 a0 0c b8 	rcall	8000aa4a <strlen>
800090de:	18 94       	mov	r4,r12
800090e0:	0c 9c       	mov	r12,r6
800090e2:	e0 a0 0c b4 	rcall	8000aa4a <strlen>
800090e6:	e8 0c 01 0c 	sub	r12,r4,r12
800090ea:	0e 9b       	mov	r11,r7
800090ec:	f8 03 0d 43 	min	r3,r12,r3
800090f0:	0a 9c       	mov	r12,r5
800090f2:	06 9a       	mov	r10,r3
800090f4:	e0 a0 0b a2 	rcall	8000a838 <memcpy>
800090f8:	06 05       	add	r5,r3
800090fa:	04 9c       	mov	r12,r2
800090fc:	eb 62 ff ff 	st.b	r5[-1],r2
80009100:	e3 cd 80 fc 	ldm	sp++,r2-r7,pc
80009104:	19 aa       	ld.ub	r10,r12[0x2]
80009106:	35 c9       	mov	r9,92
80009108:	f2 0a 18 00 	cp.b	r10,r9
8000910c:	cc 60       	breq	80009098 <fatfs_split_path+0x24>
8000910e:	e3 cf c0 fc 	ldm	sp++,r2-r7,pc,r12=-1
80009112:	f8 ca ff ff 	sub	r10,r12,-1
80009116:	32 fc       	mov	r12,47
80009118:	cc 3b       	rjmp	8000909e <fatfs_split_path+0x2a>
8000911a:	aa 84       	st.b	r5[0x0],r4
8000911c:	08 9c       	mov	r12,r4
8000911e:	e3 cd 80 fc 	ldm	sp++,r2-r7,pc
80009122:	d7 03       	nop

80009124 <fatfs_fat_writeback>:
80009124:	eb cd 40 80 	pushm	r7,lr
80009128:	16 97       	mov	r7,r11
8000912a:	58 0b       	cp.w	r11,0
8000912c:	c1 e0       	breq	80009168 <fatfs_fat_writeback+0x44>
8000912e:	f6 f8 02 04 	ld.w	r8,r11[516]
80009132:	58 08       	cp.w	r8,0
80009134:	c1 80       	breq	80009164 <fatfs_fat_writeback+0x40>
80009136:	78 e8       	ld.w	r8,r12[0x38]
80009138:	58 08       	cp.w	r8,0
8000913a:	c1 20       	breq	8000915e <fatfs_fat_writeback+0x3a>
8000913c:	78 8b       	ld.w	r11,r12[0x20]
8000913e:	ee f9 02 00 	ld.w	r9,r7[512]
80009142:	78 5a       	ld.w	r10,r12[0x14]
80009144:	f2 0a 01 0a 	sub	r10,r9,r10
80009148:	f4 cc ff ff 	sub	r12,r10,-1
8000914c:	16 3c       	cp.w	r12,r11
8000914e:	f9 ba 08 01 	movls	r10,1
80009152:	f7 da eb 1a 	subhi	r10,r11,r10
80009156:	12 9c       	mov	r12,r9
80009158:	0e 9b       	mov	r11,r7
8000915a:	5d 18       	icall	r8
8000915c:	c0 60       	breq	80009168 <fatfs_fat_writeback+0x44>
8000915e:	30 08       	mov	r8,0
80009160:	ef 48 02 04 	st.w	r7[516],r8
80009164:	e3 cf 90 80 	ldm	sp++,r7,pc,r12=1
80009168:	e3 cf 80 80 	ldm	sp++,r7,pc,r12=0

8000916c <fatfs_set_fs_info_next_free_cluster>:
8000916c:	d4 21       	pushm	r4-r7,lr
8000916e:	18 96       	mov	r6,r12
80009170:	16 95       	mov	r5,r11
80009172:	78 c8       	ld.w	r8,r12[0x30]
80009174:	58 08       	cp.w	r8,0
80009176:	c0 21       	brne	8000917a <fatfs_set_fs_info_next_free_cluster+0xe>
80009178:	d8 22       	popm	r4-r7,pc
8000917a:	f9 14 00 18 	ld.uh	r4,r12[24]
8000917e:	78 78       	ld.w	r8,r12[0x1c]
80009180:	f8 f7 02 54 	ld.w	r7,r12[596]
80009184:	10 04       	add	r4,r8
80009186:	58 07       	cp.w	r7,0
80009188:	c6 00       	breq	80009248 <fatfs_set_fs_info_next_free_cluster+0xdc>
8000918a:	30 09       	mov	r9,0
8000918c:	c0 38       	rjmp	80009192 <fatfs_set_fs_info_next_free_cluster+0x26>
8000918e:	0e 99       	mov	r9,r7
80009190:	10 97       	mov	r7,r8
80009192:	ee f8 02 00 	ld.w	r8,r7[512]
80009196:	10 34       	cp.w	r4,r8
80009198:	c0 53       	brcs	800091a2 <fatfs_set_fs_info_next_free_cluster+0x36>
8000919a:	f0 ca ff ff 	sub	r10,r8,-1
8000919e:	14 34       	cp.w	r4,r10
800091a0:	c4 93       	brcs	80009232 <fatfs_set_fs_info_next_free_cluster+0xc6>
800091a2:	ee f8 02 0c 	ld.w	r8,r7[524]
800091a6:	58 08       	cp.w	r8,0
800091a8:	cf 31       	brne	8000918e <fatfs_set_fs_info_next_free_cluster+0x22>
800091aa:	58 09       	cp.w	r9,0
800091ac:	f3 f8 1a 83 	st.wne	r9[0x20c],r8
800091b0:	ed f9 0a 95 	st.weq	r6[0x254],r9
800091b4:	ee f8 02 0c 	ld.w	r8,r7[524]
800091b8:	58 08       	cp.w	r8,0
800091ba:	ce a1       	brne	8000918e <fatfs_set_fs_info_next_free_cluster+0x22>
800091bc:	ec f8 02 54 	ld.w	r8,r6[596]
800091c0:	ef 48 02 0c 	st.w	r7[524],r8
800091c4:	ed 47 02 54 	st.w	r6[596],r7
800091c8:	ee f8 02 04 	ld.w	r8,r7[516]
800091cc:	58 08       	cp.w	r8,0
800091ce:	c3 f1       	brne	8000924c <fatfs_set_fs_info_next_free_cluster+0xe0>
800091d0:	ef 44 02 00 	st.w	r7[512],r4
800091d4:	08 9c       	mov	r12,r4
800091d6:	6c d8       	ld.w	r8,r6[0x34]
800091d8:	0e 94       	mov	r4,r7
800091da:	30 1a       	mov	r10,1
800091dc:	0e 9b       	mov	r11,r7
800091de:	5d 18       	icall	r8
800091e0:	c3 00       	breq	80009240 <fatfs_set_fs_info_next_free_cluster+0xd4>
800091e2:	ef 47 02 08 	st.w	r7[520],r7
800091e6:	e9 65 01 ec 	st.b	r4[492],r5
800091ea:	ea 09 16 08 	lsr	r9,r5,0x8
800091ee:	ee f8 02 08 	ld.w	r8,r7[520]
800091f2:	f1 69 01 ed 	st.b	r8[493],r9
800091f6:	ea 09 16 10 	lsr	r9,r5,0x10
800091fa:	ee f8 02 08 	ld.w	r8,r7[520]
800091fe:	f1 69 01 ee 	st.b	r8[494],r9
80009202:	ea 09 16 18 	lsr	r9,r5,0x18
80009206:	ee f8 02 08 	ld.w	r8,r7[520]
8000920a:	f1 69 01 ef 	st.b	r8[495],r9
8000920e:	30 1a       	mov	r10,1
80009210:	ef 4a 02 04 	st.w	r7[516],r10
80009214:	8d 95       	st.w	r6[0x24],r5
80009216:	6c e8       	ld.w	r8,r6[0x38]
80009218:	58 08       	cp.w	r8,0
8000921a:	c0 50       	breq	80009224 <fatfs_set_fs_info_next_free_cluster+0xb8>
8000921c:	0e 9b       	mov	r11,r7
8000921e:	ee fc 02 00 	ld.w	r12,r7[512]
80009222:	5d 18       	icall	r8
80009224:	3f f8       	mov	r8,-1
80009226:	ef 48 02 00 	st.w	r7[512],r8
8000922a:	30 08       	mov	r8,0
8000922c:	ef 48 02 04 	st.w	r7[516],r8
80009230:	d8 22       	popm	r4-r7,pc
80009232:	10 14       	sub	r4,r8
80009234:	a9 74       	lsl	r4,0x9
80009236:	ee 04 00 04 	add	r4,r7,r4
8000923a:	ef 44 02 08 	st.w	r7[520],r4
8000923e:	cd 4b       	rjmp	800091e6 <fatfs_set_fs_info_next_free_cluster+0x7a>
80009240:	3f f8       	mov	r8,-1
80009242:	ef 48 02 00 	st.w	r7[512],r8
80009246:	d8 22       	popm	r4-r7,pc
80009248:	0e 98       	mov	r8,r7
8000924a:	cb bb       	rjmp	800091c0 <fatfs_set_fs_info_next_free_cluster+0x54>
8000924c:	0e 9b       	mov	r11,r7
8000924e:	0c 9c       	mov	r12,r6
80009250:	c6 af       	rcall	80009124 <fatfs_fat_writeback>
80009252:	cb f1       	brne	800091d0 <fatfs_set_fs_info_next_free_cluster+0x64>
80009254:	c9 2b       	rjmp	80009178 <fatfs_set_fs_info_next_free_cluster+0xc>
80009256:	d7 03       	nop

80009258 <fatfs_fat_init>:
80009258:	eb cd 40 e0 	pushm	r5-r7,lr
8000925c:	3f f8       	mov	r8,-1
8000925e:	18 97       	mov	r7,r12
80009260:	30 06       	mov	r6,0
80009262:	f9 48 04 58 	st.w	r12[1112],r8
80009266:	f9 46 02 54 	st.w	r12[596],r6
8000926a:	f9 46 04 5c 	st.w	r12[1116],r6
8000926e:	f8 c5 fd a8 	sub	r5,r12,-600
80009272:	e0 6a 02 00 	mov	r10,512
80009276:	0c 9b       	mov	r11,r6
80009278:	0a 9c       	mov	r12,r5
8000927a:	e0 a0 0b 83 	rcall	8000a980 <memset>
8000927e:	ee f8 02 54 	ld.w	r8,r7[596]
80009282:	ef 46 04 60 	st.w	r7[1120],r6
80009286:	ef 45 02 54 	st.w	r7[596],r5
8000928a:	ef 48 04 64 	st.w	r7[1124],r8
8000928e:	e3 cd 80 e0 	ldm	sp++,r5-r7,pc
80009292:	d7 03       	nop

80009294 <fatfs_fat_purge>:
80009294:	eb cd 40 e0 	pushm	r5-r7,lr
80009298:	18 96       	mov	r6,r12
8000929a:	f8 f7 02 54 	ld.w	r7,r12[596]
8000929e:	58 07       	cp.w	r7,0
800092a0:	c2 30       	breq	800092e6 <fatfs_fat_purge+0x52>
800092a2:	30 05       	mov	r5,0
800092a4:	c0 58       	rjmp	800092ae <fatfs_fat_purge+0x1a>
800092a6:	ee f7 02 0c 	ld.w	r7,r7[524]
800092aa:	58 07       	cp.w	r7,0
800092ac:	c1 d0       	breq	800092e6 <fatfs_fat_purge+0x52>
800092ae:	ee f8 02 04 	ld.w	r8,r7[516]
800092b2:	58 08       	cp.w	r8,0
800092b4:	cf 90       	breq	800092a6 <fatfs_fat_purge+0x12>
800092b6:	6c e8       	ld.w	r8,r6[0x38]
800092b8:	58 08       	cp.w	r8,0
800092ba:	c1 00       	breq	800092da <fatfs_fat_purge+0x46>
800092bc:	6c 89       	ld.w	r9,r6[0x20]
800092be:	ee fc 02 00 	ld.w	r12,r7[512]
800092c2:	6c 5b       	ld.w	r11,r6[0x14]
800092c4:	f8 0b 01 0b 	sub	r11,r12,r11
800092c8:	f2 0b 01 0a 	sub	r10,r9,r11
800092cc:	2f fb       	sub	r11,-1
800092ce:	12 3b       	cp.w	r11,r9
800092d0:	f9 ba 08 01 	movls	r10,1
800092d4:	0e 9b       	mov	r11,r7
800092d6:	5d 18       	icall	r8
800092d8:	c0 80       	breq	800092e8 <fatfs_fat_purge+0x54>
800092da:	ef 45 02 04 	st.w	r7[516],r5
800092de:	ee f7 02 0c 	ld.w	r7,r7[524]
800092e2:	58 07       	cp.w	r7,0
800092e4:	ce 51       	brne	800092ae <fatfs_fat_purge+0x1a>
800092e6:	30 1c       	mov	r12,1
800092e8:	e3 cd 80 e0 	ldm	sp++,r5-r7,pc

800092ec <fatfs_find_next_cluster>:
800092ec:	eb cd 40 f8 	pushm	r3-r7,lr
800092f0:	18 96       	mov	r6,r12
800092f2:	58 0b       	cp.w	r11,0
800092f4:	f6 03 17 10 	movne	r3,r11
800092f8:	f9 b3 00 02 	moveq	r3,2
800092fc:	78 c8       	ld.w	r8,r12[0x30]
800092fe:	58 08       	cp.w	r8,0
80009300:	c5 a1       	brne	800093b4 <fatfs_find_next_cluster+0xc8>
80009302:	e6 04 16 08 	lsr	r4,r3,0x8
80009306:	6c 55       	ld.w	r5,r6[0x14]
80009308:	ec f7 02 54 	ld.w	r7,r6[596]
8000930c:	e8 05 00 05 	add	r5,r4,r5
80009310:	58 07       	cp.w	r7,0
80009312:	c7 80       	breq	80009402 <fatfs_find_next_cluster+0x116>
80009314:	30 09       	mov	r9,0
80009316:	c0 38       	rjmp	8000931c <fatfs_find_next_cluster+0x30>
80009318:	0e 99       	mov	r9,r7
8000931a:	10 97       	mov	r7,r8
8000931c:	ee f8 02 00 	ld.w	r8,r7[512]
80009320:	10 35       	cp.w	r5,r8
80009322:	c0 53       	brcs	8000932c <fatfs_find_next_cluster+0x40>
80009324:	f0 ca ff ff 	sub	r10,r8,-1
80009328:	14 35       	cp.w	r5,r10
8000932a:	c4 83       	brcs	800093ba <fatfs_find_next_cluster+0xce>
8000932c:	ee f8 02 0c 	ld.w	r8,r7[524]
80009330:	58 08       	cp.w	r8,0
80009332:	cf 31       	brne	80009318 <fatfs_find_next_cluster+0x2c>
80009334:	58 09       	cp.w	r9,0
80009336:	f3 f8 1a 83 	st.wne	r9[0x20c],r8
8000933a:	ed f9 0a 95 	st.weq	r6[0x254],r9
8000933e:	ee f8 02 0c 	ld.w	r8,r7[524]
80009342:	58 08       	cp.w	r8,0
80009344:	ce a1       	brne	80009318 <fatfs_find_next_cluster+0x2c>
80009346:	ec f8 02 54 	ld.w	r8,r6[596]
8000934a:	ef 48 02 0c 	st.w	r7[524],r8
8000934e:	ed 47 02 54 	st.w	r6[596],r7
80009352:	ee f8 02 04 	ld.w	r8,r7[516]
80009356:	58 08       	cp.w	r8,0
80009358:	c5 71       	brne	80009406 <fatfs_find_next_cluster+0x11a>
8000935a:	ef 45 02 00 	st.w	r7[512],r5
8000935e:	0a 9c       	mov	r12,r5
80009360:	6c d8       	ld.w	r8,r6[0x34]
80009362:	0e 95       	mov	r5,r7
80009364:	30 1a       	mov	r10,1
80009366:	0e 9b       	mov	r11,r7
80009368:	5d 18       	icall	r8
8000936a:	c4 70       	breq	800093f8 <fatfs_find_next_cluster+0x10c>
8000936c:	eb 47 02 08 	st.w	r5[520],r7
80009370:	6c c8       	ld.w	r8,r6[0x30]
80009372:	58 08       	cp.w	r8,0
80009374:	c2 c0       	breq	800093cc <fatfs_find_next_cluster+0xe0>
80009376:	e8 08 15 07 	lsl	r8,r4,0x7
8000937a:	e6 08 01 08 	sub	r8,r3,r8
8000937e:	a3 68       	lsl	r8,0x2
80009380:	5c 78       	castu.h	r8
80009382:	ea 08 07 09 	ld.ub	r9,r5[r8]
80009386:	10 05       	add	r5,r8
80009388:	0b 98       	ld.ub	r8,r5[0x1]
8000938a:	a9 68       	lsl	r8,0x8
8000938c:	0b bc       	ld.ub	r12,r5[0x3]
8000938e:	0b aa       	ld.ub	r10,r5[0x2]
80009390:	b9 6c       	lsl	r12,0x18
80009392:	b1 6a       	lsl	r10,0x10
80009394:	14 0c       	add	r12,r10
80009396:	12 0c       	add	r12,r9
80009398:	10 0c       	add	r12,r8
8000939a:	30 88       	mov	r8,8
8000939c:	ea 18 f0 00 	orh	r8,0xf000
800093a0:	f9 dc c0 1c 	bfextu	r12,r12,0x0,0x1c
800093a4:	f8 08 00 08 	add	r8,r12,r8
800093a8:	58 78       	cp.w	r8,7
800093aa:	e0 8b 00 25 	brhi	800093f4 <fatfs_find_next_cluster+0x108>
800093ae:	3f fc       	mov	r12,-1
800093b0:	e3 cd 80 f8 	ldm	sp++,r3-r7,pc
800093b4:	e6 04 16 07 	lsr	r4,r3,0x7
800093b8:	ca 7b       	rjmp	80009306 <fatfs_find_next_cluster+0x1a>
800093ba:	10 15       	sub	r5,r8
800093bc:	a9 75       	lsl	r5,0x9
800093be:	ee 05 00 05 	add	r5,r7,r5
800093c2:	ef 45 02 08 	st.w	r7[520],r5
800093c6:	6c c8       	ld.w	r8,r6[0x30]
800093c8:	58 08       	cp.w	r8,0
800093ca:	cd 61       	brne	80009376 <fatfs_find_next_cluster+0x8a>
800093cc:	e8 08 15 08 	lsl	r8,r4,0x8
800093d0:	e6 08 01 08 	sub	r8,r3,r8
800093d4:	a1 78       	lsl	r8,0x1
800093d6:	5c 78       	castu.h	r8
800093d8:	ea 08 07 09 	ld.ub	r9,r5[r8]
800093dc:	ea 08 00 08 	add	r8,r5,r8
800093e0:	11 9c       	ld.ub	r12,r8[0x1]
800093e2:	a9 6c       	lsl	r12,0x8
800093e4:	12 0c       	add	r12,r9
800093e6:	fe 79 00 08 	mov	r9,-65528
800093ea:	f8 09 00 08 	add	r8,r12,r9
800093ee:	58 78       	cp.w	r8,7
800093f0:	fe 98 ff df 	brls	800093ae <fatfs_find_next_cluster+0xc2>
800093f4:	e3 cd 80 f8 	ldm	sp++,r3-r7,pc
800093f8:	3f fc       	mov	r12,-1
800093fa:	ef 4c 02 00 	st.w	r7[512],r12
800093fe:	e3 cd 80 f8 	ldm	sp++,r3-r7,pc
80009402:	0e 98       	mov	r8,r7
80009404:	ca 3b       	rjmp	8000934a <fatfs_find_next_cluster+0x5e>
80009406:	0e 9b       	mov	r11,r7
80009408:	0c 9c       	mov	r12,r6
8000940a:	c8 de       	rcall	80009124 <fatfs_fat_writeback>
8000940c:	ca 71       	brne	8000935a <fatfs_find_next_cluster+0x6e>
8000940e:	3f fc       	mov	r12,-1
80009410:	cd 0b       	rjmp	800093b0 <fatfs_find_next_cluster+0xc4>
80009412:	d7 03       	nop

80009414 <fatfs_fat_set_cluster>:
80009414:	eb cd 40 fc 	pushm	r2-r7,lr
80009418:	18 96       	mov	r6,r12
8000941a:	16 93       	mov	r3,r11
8000941c:	14 95       	mov	r5,r10
8000941e:	78 c8       	ld.w	r8,r12[0x30]
80009420:	58 08       	cp.w	r8,0
80009422:	c4 f1       	brne	800094c0 <fatfs_fat_set_cluster+0xac>
80009424:	f6 04 16 08 	lsr	r4,r11,0x8
80009428:	6c 52       	ld.w	r2,r6[0x14]
8000942a:	ec f7 02 54 	ld.w	r7,r6[596]
8000942e:	e8 02 00 02 	add	r2,r4,r2
80009432:	58 07       	cp.w	r7,0
80009434:	c7 70       	breq	80009522 <fatfs_fat_set_cluster+0x10e>
80009436:	30 09       	mov	r9,0
80009438:	c0 38       	rjmp	8000943e <fatfs_fat_set_cluster+0x2a>
8000943a:	0e 99       	mov	r9,r7
8000943c:	10 97       	mov	r7,r8
8000943e:	ee f8 02 00 	ld.w	r8,r7[512]
80009442:	10 32       	cp.w	r2,r8
80009444:	c0 53       	brcs	8000944e <fatfs_fat_set_cluster+0x3a>
80009446:	f0 ca ff ff 	sub	r10,r8,-1
8000944a:	14 32       	cp.w	r2,r10
8000944c:	c3 d3       	brcs	800094c6 <fatfs_fat_set_cluster+0xb2>
8000944e:	ee f8 02 0c 	ld.w	r8,r7[524]
80009452:	58 08       	cp.w	r8,0
80009454:	cf 31       	brne	8000943a <fatfs_fat_set_cluster+0x26>
80009456:	58 09       	cp.w	r9,0
80009458:	f3 f8 1a 83 	st.wne	r9[0x20c],r8
8000945c:	ed f9 0a 95 	st.weq	r6[0x254],r9
80009460:	ee f8 02 0c 	ld.w	r8,r7[524]
80009464:	58 08       	cp.w	r8,0
80009466:	ce a1       	brne	8000943a <fatfs_fat_set_cluster+0x26>
80009468:	ec f8 02 54 	ld.w	r8,r6[596]
8000946c:	ef 48 02 0c 	st.w	r7[524],r8
80009470:	ed 47 02 54 	st.w	r6[596],r7
80009474:	ee f8 02 04 	ld.w	r8,r7[516]
80009478:	58 08       	cp.w	r8,0
8000947a:	c5 61       	brne	80009526 <fatfs_fat_set_cluster+0x112>
8000947c:	ef 42 02 00 	st.w	r7[512],r2
80009480:	04 9c       	mov	r12,r2
80009482:	6c d8       	ld.w	r8,r6[0x34]
80009484:	30 1a       	mov	r10,1
80009486:	0e 9b       	mov	r11,r7
80009488:	5d 18       	icall	r8
8000948a:	0e 99       	mov	r9,r7
8000948c:	c4 60       	breq	80009518 <fatfs_fat_set_cluster+0x104>
8000948e:	ef 47 02 08 	st.w	r7[520],r7
80009492:	6c c8       	ld.w	r8,r6[0x30]
80009494:	58 08       	cp.w	r8,0
80009496:	c2 21       	brne	800094da <fatfs_fat_set_cluster+0xc6>
80009498:	e8 08 15 08 	lsl	r8,r4,0x8
8000949c:	e6 08 01 08 	sub	r8,r3,r8
800094a0:	a1 78       	lsl	r8,0x1
800094a2:	5c 78       	castu.h	r8
800094a4:	f2 08 0b 05 	st.b	r9[r8],r5
800094a8:	eb d5 c1 08 	bfextu	r5,r5,0x8,0x8
800094ac:	ee f9 02 08 	ld.w	r9,r7[520]
800094b0:	f2 08 00 08 	add	r8,r9,r8
800094b4:	b0 95       	st.b	r8[0x1],r5
800094b6:	30 1c       	mov	r12,1
800094b8:	ef 4c 02 04 	st.w	r7[516],r12
800094bc:	e3 cd 80 fc 	ldm	sp++,r2-r7,pc
800094c0:	f6 04 16 07 	lsr	r4,r11,0x7
800094c4:	cb 2b       	rjmp	80009428 <fatfs_fat_set_cluster+0x14>
800094c6:	e4 08 01 09 	sub	r9,r2,r8
800094ca:	a9 79       	lsl	r9,0x9
800094cc:	ee 09 00 09 	add	r9,r7,r9
800094d0:	ef 49 02 08 	st.w	r7[520],r9
800094d4:	6c c8       	ld.w	r8,r6[0x30]
800094d6:	58 08       	cp.w	r8,0
800094d8:	ce 00       	breq	80009498 <fatfs_fat_set_cluster+0x84>
800094da:	ea 0a 16 08 	lsr	r10,r5,0x8
800094de:	e8 08 15 07 	lsl	r8,r4,0x7
800094e2:	e6 08 01 08 	sub	r8,r3,r8
800094e6:	a3 68       	lsl	r8,0x2
800094e8:	5c 78       	castu.h	r8
800094ea:	f2 08 0b 05 	st.b	r9[r8],r5
800094ee:	ee f9 02 08 	ld.w	r9,r7[520]
800094f2:	10 09       	add	r9,r8
800094f4:	b2 9a       	st.b	r9[0x1],r10
800094f6:	ea 0a 16 10 	lsr	r10,r5,0x10
800094fa:	ee f9 02 08 	ld.w	r9,r7[520]
800094fe:	10 09       	add	r9,r8
80009500:	b2 aa       	st.b	r9[0x2],r10
80009502:	b9 85       	lsr	r5,0x18
80009504:	ee f9 02 08 	ld.w	r9,r7[520]
80009508:	f2 08 00 08 	add	r8,r9,r8
8000950c:	b0 b5       	st.b	r8[0x3],r5
8000950e:	30 1c       	mov	r12,1
80009510:	ef 4c 02 04 	st.w	r7[516],r12
80009514:	e3 cd 80 fc 	ldm	sp++,r2-r7,pc
80009518:	3f f8       	mov	r8,-1
8000951a:	ef 48 02 00 	st.w	r7[512],r8
8000951e:	e3 cd 80 fc 	ldm	sp++,r2-r7,pc
80009522:	0e 98       	mov	r8,r7
80009524:	ca 4b       	rjmp	8000946c <fatfs_fat_set_cluster+0x58>
80009526:	0e 9b       	mov	r11,r7
80009528:	0c 9c       	mov	r12,r6
8000952a:	fe b0 fd fd 	rcall	80009124 <fatfs_fat_writeback>
8000952e:	ca 71       	brne	8000947c <fatfs_fat_set_cluster+0x68>
80009530:	cf 2b       	rjmp	80009514 <fatfs_fat_set_cluster+0x100>
80009532:	d7 03       	nop

80009534 <fatfs_fat_add_cluster_to_chain>:
80009534:	d4 31       	pushm	r0-r7,lr
80009536:	18 96       	mov	r6,r12
80009538:	14 90       	mov	r0,r10
8000953a:	5b fb       	cp.w	r11,-1
8000953c:	e0 80 00 a5 	breq	80009686 <fatfs_fat_add_cluster_to_chain+0x152>
80009540:	16 92       	mov	r2,r11
80009542:	78 c8       	ld.w	r8,r12[0x30]
80009544:	30 81       	mov	r1,8
80009546:	ea 11 f0 00 	orh	r1,0xf000
8000954a:	58 02       	cp.w	r2,0
8000954c:	e4 03 17 10 	movne	r3,r2
80009550:	f9 b3 00 02 	moveq	r3,2
80009554:	58 08       	cp.w	r8,0
80009556:	c5 c1       	brne	8000960e <fatfs_fat_add_cluster_to_chain+0xda>
80009558:	e6 04 16 08 	lsr	r4,r3,0x8
8000955c:	6c 55       	ld.w	r5,r6[0x14]
8000955e:	ec f7 02 54 	ld.w	r7,r6[596]
80009562:	e8 05 00 05 	add	r5,r4,r5
80009566:	58 07       	cp.w	r7,0
80009568:	c5 c0       	breq	80009620 <fatfs_fat_add_cluster_to_chain+0xec>
8000956a:	30 09       	mov	r9,0
8000956c:	c0 38       	rjmp	80009572 <fatfs_fat_add_cluster_to_chain+0x3e>
8000956e:	0e 99       	mov	r9,r7
80009570:	10 97       	mov	r7,r8
80009572:	ee f8 02 00 	ld.w	r8,r7[512]
80009576:	10 35       	cp.w	r5,r8
80009578:	c0 63       	brcs	80009584 <fatfs_fat_add_cluster_to_chain+0x50>
8000957a:	f0 ca ff ff 	sub	r10,r8,-1
8000957e:	14 35       	cp.w	r5,r10
80009580:	e0 83 00 84 	brlo	80009688 <fatfs_fat_add_cluster_to_chain+0x154>
80009584:	ee f8 02 0c 	ld.w	r8,r7[524]
80009588:	58 08       	cp.w	r8,0
8000958a:	cf 21       	brne	8000956e <fatfs_fat_add_cluster_to_chain+0x3a>
8000958c:	58 09       	cp.w	r9,0
8000958e:	f3 f8 1a 83 	st.wne	r9[0x20c],r8
80009592:	ed f9 0a 95 	st.weq	r6[0x254],r9
80009596:	ee f8 02 0c 	ld.w	r8,r7[524]
8000959a:	58 08       	cp.w	r8,0
8000959c:	ce 91       	brne	8000956e <fatfs_fat_add_cluster_to_chain+0x3a>
8000959e:	ec f8 02 54 	ld.w	r8,r6[596]
800095a2:	ef 48 02 0c 	st.w	r7[524],r8
800095a6:	ed 47 02 54 	st.w	r6[596],r7
800095aa:	ee f8 02 04 	ld.w	r8,r7[516]
800095ae:	58 08       	cp.w	r8,0
800095b0:	c4 11       	brne	80009632 <fatfs_fat_add_cluster_to_chain+0xfe>
800095b2:	ef 45 02 00 	st.w	r7[512],r5
800095b6:	0a 9c       	mov	r12,r5
800095b8:	6c d8       	ld.w	r8,r6[0x34]
800095ba:	0e 95       	mov	r5,r7
800095bc:	30 1a       	mov	r10,1
800095be:	0e 9b       	mov	r11,r7
800095c0:	5d 18       	icall	r8
800095c2:	c6 a0       	breq	80009696 <fatfs_fat_add_cluster_to_chain+0x162>
800095c4:	ef 47 02 08 	st.w	r7[520],r7
800095c8:	58 07       	cp.w	r7,0
800095ca:	c3 90       	breq	8000963c <fatfs_fat_add_cluster_to_chain+0x108>
800095cc:	6c c8       	ld.w	r8,r6[0x30]
800095ce:	58 08       	cp.w	r8,0
800095d0:	c3 f1       	brne	8000964e <fatfs_fat_add_cluster_to_chain+0x11a>
800095d2:	e8 0a 15 08 	lsl	r10,r4,0x8
800095d6:	e6 0a 01 0a 	sub	r10,r3,r10
800095da:	a1 7a       	lsl	r10,0x1
800095dc:	5c 7a       	castu.h	r10
800095de:	ea 0a 07 0b 	ld.ub	r11,r5[r10]
800095e2:	ea 0a 00 0a 	add	r10,r5,r10
800095e6:	15 99       	ld.ub	r9,r10[0x1]
800095e8:	a9 69       	lsl	r9,0x8
800095ea:	16 09       	add	r9,r11
800095ec:	fe 7b 00 08 	mov	r11,-65528
800095f0:	f2 0b 00 0a 	add	r10,r9,r11
800095f4:	58 7a       	cp.w	r10,7
800095f6:	e0 88 00 23 	brls	8000963c <fatfs_fat_add_cluster_to_chain+0x108>
800095fa:	58 09       	cp.w	r9,0
800095fc:	c4 50       	breq	80009686 <fatfs_fat_add_cluster_to_chain+0x152>
800095fe:	12 92       	mov	r2,r9
80009600:	58 02       	cp.w	r2,0
80009602:	e4 03 17 10 	movne	r3,r2
80009606:	f9 b3 00 02 	moveq	r3,2
8000960a:	58 08       	cp.w	r8,0
8000960c:	ca 60       	breq	80009558 <fatfs_fat_add_cluster_to_chain+0x24>
8000960e:	e6 04 16 07 	lsr	r4,r3,0x7
80009612:	6c 55       	ld.w	r5,r6[0x14]
80009614:	ec f7 02 54 	ld.w	r7,r6[596]
80009618:	e8 05 00 05 	add	r5,r4,r5
8000961c:	58 07       	cp.w	r7,0
8000961e:	ca 61       	brne	8000956a <fatfs_fat_add_cluster_to_chain+0x36>
80009620:	0e 98       	mov	r8,r7
80009622:	ef 48 02 0c 	st.w	r7[524],r8
80009626:	ed 47 02 54 	st.w	r6[596],r7
8000962a:	ee f8 02 04 	ld.w	r8,r7[516]
8000962e:	58 08       	cp.w	r8,0
80009630:	cc 10       	breq	800095b2 <fatfs_fat_add_cluster_to_chain+0x7e>
80009632:	0e 9b       	mov	r11,r7
80009634:	0c 9c       	mov	r12,r6
80009636:	fe b0 fd 77 	rcall	80009124 <fatfs_fat_writeback>
8000963a:	cb c1       	brne	800095b2 <fatfs_fat_add_cluster_to_chain+0x7e>
8000963c:	04 9b       	mov	r11,r2
8000963e:	00 9a       	mov	r10,r0
80009640:	0c 9c       	mov	r12,r6
80009642:	ce 9e       	rcall	80009414 <fatfs_fat_set_cluster>
80009644:	00 9b       	mov	r11,r0
80009646:	0c 9c       	mov	r12,r6
80009648:	3f fa       	mov	r10,-1
8000964a:	ce 5e       	rcall	80009414 <fatfs_fat_set_cluster>
8000964c:	da 3a       	popm	r0-r7,pc,r12=1
8000964e:	e8 09 15 07 	lsl	r9,r4,0x7
80009652:	e6 09 01 09 	sub	r9,r3,r9
80009656:	a3 69       	lsl	r9,0x2
80009658:	5c 79       	castu.h	r9
8000965a:	ea 09 07 0b 	ld.ub	r11,r5[r9]
8000965e:	12 05       	add	r5,r9
80009660:	0b 9a       	ld.ub	r10,r5[0x1]
80009662:	a9 6a       	lsl	r10,0x8
80009664:	0b bc       	ld.ub	r12,r5[0x3]
80009666:	0b a9       	ld.ub	r9,r5[0x2]
80009668:	b9 6c       	lsl	r12,0x18
8000966a:	b1 69       	lsl	r9,0x10
8000966c:	f8 09 00 09 	add	r9,r12,r9
80009670:	16 09       	add	r9,r11
80009672:	14 09       	add	r9,r10
80009674:	f3 d9 c0 1c 	bfextu	r9,r9,0x0,0x1c
80009678:	f2 01 00 0a 	add	r10,r9,r1
8000967c:	58 7a       	cp.w	r10,7
8000967e:	fe 98 ff df 	brls	8000963c <fatfs_fat_add_cluster_to_chain+0x108>
80009682:	58 09       	cp.w	r9,0
80009684:	cb d1       	brne	800095fe <fatfs_fat_add_cluster_to_chain+0xca>
80009686:	d8 3a       	popm	r0-r7,pc,r12=0
80009688:	10 15       	sub	r5,r8
8000968a:	a9 75       	lsl	r5,0x9
8000968c:	ee 05 00 05 	add	r5,r7,r5
80009690:	ef 45 02 08 	st.w	r7[520],r5
80009694:	c9 cb       	rjmp	800095cc <fatfs_fat_add_cluster_to_chain+0x98>
80009696:	3f f8       	mov	r8,-1
80009698:	ef 48 02 00 	st.w	r7[512],r8
8000969c:	cd 0b       	rjmp	8000963c <fatfs_fat_add_cluster_to_chain+0x108>
8000969e:	d7 03       	nop

800096a0 <fatfs_free_cluster_chain>:
800096a0:	d4 31       	pushm	r0-r7,lr
800096a2:	30 10       	mov	r0,1
800096a4:	16 94       	mov	r4,r11
800096a6:	18 95       	mov	r5,r12
800096a8:	30 01       	mov	r1,0
800096aa:	e8 c8 00 01 	sub	r8,r4,1
800096ae:	5b d8       	cp.w	r8,-3
800096b0:	e0 8b 00 b5 	brhi	8000981a <fatfs_free_cluster_chain+0x17a>
800096b4:	6a c8       	ld.w	r8,r5[0x30]
800096b6:	58 08       	cp.w	r8,0
800096b8:	e0 81 00 b2 	brne	8000981c <fatfs_free_cluster_chain+0x17c>
800096bc:	e8 03 16 08 	lsr	r3,r4,0x8
800096c0:	6a 56       	ld.w	r6,r5[0x14]
800096c2:	ea f7 02 54 	ld.w	r7,r5[596]
800096c6:	e6 06 00 06 	add	r6,r3,r6
800096ca:	58 07       	cp.w	r7,0
800096cc:	e0 80 00 b2 	breq	80009830 <fatfs_free_cluster_chain+0x190>
800096d0:	30 09       	mov	r9,0
800096d2:	c0 38       	rjmp	800096d8 <fatfs_free_cluster_chain+0x38>
800096d4:	0e 99       	mov	r9,r7
800096d6:	10 97       	mov	r7,r8
800096d8:	ee f8 02 00 	ld.w	r8,r7[512]
800096dc:	10 36       	cp.w	r6,r8
800096de:	c0 63       	brcs	800096ea <fatfs_free_cluster_chain+0x4a>
800096e0:	f0 ca ff ff 	sub	r10,r8,-1
800096e4:	14 36       	cp.w	r6,r10
800096e6:	e0 83 01 2a 	brlo	8000993a <fatfs_free_cluster_chain+0x29a>
800096ea:	ee f8 02 0c 	ld.w	r8,r7[524]
800096ee:	58 08       	cp.w	r8,0
800096f0:	cf 21       	brne	800096d4 <fatfs_free_cluster_chain+0x34>
800096f2:	58 09       	cp.w	r9,0
800096f4:	f3 f8 1a 83 	st.wne	r9[0x20c],r8
800096f8:	eb f9 0a 95 	st.weq	r5[0x254],r9
800096fc:	ee f8 02 0c 	ld.w	r8,r7[524]
80009700:	58 08       	cp.w	r8,0
80009702:	ce 91       	brne	800096d4 <fatfs_free_cluster_chain+0x34>
80009704:	ea f8 02 54 	ld.w	r8,r5[596]
80009708:	ef 48 02 0c 	st.w	r7[524],r8
8000970c:	eb 47 02 54 	st.w	r5[596],r7
80009710:	ee f8 02 04 	ld.w	r8,r7[516]
80009714:	58 08       	cp.w	r8,0
80009716:	e0 81 00 97 	brne	80009844 <fatfs_free_cluster_chain+0x1a4>
8000971a:	ef 46 02 00 	st.w	r7[512],r6
8000971e:	0c 9c       	mov	r12,r6
80009720:	6a d8       	ld.w	r8,r5[0x34]
80009722:	0e 96       	mov	r6,r7
80009724:	30 1a       	mov	r10,1
80009726:	0e 9b       	mov	r11,r7
80009728:	5d 18       	icall	r8
8000972a:	e0 80 01 14 	breq	80009952 <fatfs_free_cluster_chain+0x2b2>
8000972e:	ef 47 02 08 	st.w	r7[520],r7
80009732:	6a c8       	ld.w	r8,r5[0x30]
80009734:	58 08       	cp.w	r8,0
80009736:	e0 81 00 a1 	brne	80009878 <fatfs_free_cluster_chain+0x1d8>
8000973a:	e6 08 15 08 	lsl	r8,r3,0x8
8000973e:	e8 08 01 08 	sub	r8,r4,r8
80009742:	a1 78       	lsl	r8,0x1
80009744:	5c 78       	castu.h	r8
80009746:	ec 08 07 09 	ld.ub	r9,r6[r8]
8000974a:	ec 08 00 08 	add	r8,r6,r8
8000974e:	ea f7 02 54 	ld.w	r7,r5[596]
80009752:	11 93       	ld.ub	r3,r8[0x1]
80009754:	a9 63       	lsl	r3,0x8
80009756:	12 03       	add	r3,r9
80009758:	fe 79 00 08 	mov	r9,-65528
8000975c:	e6 09 00 08 	add	r8,r3,r9
80009760:	58 78       	cp.w	r8,7
80009762:	f9 b3 08 ff 	movls	r3,-1
80009766:	e8 02 16 08 	lsr	r2,r4,0x8
8000976a:	6a 56       	ld.w	r6,r5[0x14]
8000976c:	e4 06 00 06 	add	r6,r2,r6
80009770:	58 07       	cp.w	r7,0
80009772:	e0 80 00 a9 	breq	800098c4 <fatfs_free_cluster_chain+0x224>
80009776:	30 09       	mov	r9,0
80009778:	c0 38       	rjmp	8000977e <fatfs_free_cluster_chain+0xde>
8000977a:	0e 99       	mov	r9,r7
8000977c:	10 97       	mov	r7,r8
8000977e:	ee f8 02 00 	ld.w	r8,r7[512]
80009782:	10 36       	cp.w	r6,r8
80009784:	c0 63       	brcs	80009790 <fatfs_free_cluster_chain+0xf0>
80009786:	f0 ca ff ff 	sub	r10,r8,-1
8000978a:	14 36       	cp.w	r6,r10
8000978c:	e0 83 00 d0 	brlo	8000992c <fatfs_free_cluster_chain+0x28c>
80009790:	ee f8 02 0c 	ld.w	r8,r7[524]
80009794:	58 08       	cp.w	r8,0
80009796:	cf 21       	brne	8000977a <fatfs_free_cluster_chain+0xda>
80009798:	58 09       	cp.w	r9,0
8000979a:	f3 f8 1a 83 	st.wne	r9[0x20c],r8
8000979e:	eb f9 0a 95 	st.weq	r5[0x254],r9
800097a2:	ee f8 02 0c 	ld.w	r8,r7[524]
800097a6:	58 08       	cp.w	r8,0
800097a8:	ce 91       	brne	8000977a <fatfs_free_cluster_chain+0xda>
800097aa:	ea f8 02 54 	ld.w	r8,r5[596]
800097ae:	ef 48 02 0c 	st.w	r7[524],r8
800097b2:	eb 47 02 54 	st.w	r5[596],r7
800097b6:	ee f8 02 04 	ld.w	r8,r7[516]
800097ba:	58 08       	cp.w	r8,0
800097bc:	e0 81 00 8e 	brne	800098d8 <fatfs_free_cluster_chain+0x238>
800097c0:	ef 46 02 00 	st.w	r7[512],r6
800097c4:	0c 9c       	mov	r12,r6
800097c6:	6a d8       	ld.w	r8,r5[0x34]
800097c8:	0e 96       	mov	r6,r7
800097ca:	30 1a       	mov	r10,1
800097cc:	0e 9b       	mov	r11,r7
800097ce:	5d 18       	icall	r8
800097d0:	e0 80 00 bc 	breq	80009948 <fatfs_free_cluster_chain+0x2a8>
800097d4:	ef 47 02 08 	st.w	r7[520],r7
800097d8:	6a c8       	ld.w	r8,r5[0x30]
800097da:	58 08       	cp.w	r8,0
800097dc:	e0 80 00 97 	breq	8000990a <fatfs_free_cluster_chain+0x26a>
800097e0:	e4 08 15 07 	lsl	r8,r2,0x7
800097e4:	e8 08 01 08 	sub	r8,r4,r8
800097e8:	a3 68       	lsl	r8,0x2
800097ea:	5c 78       	castu.h	r8
800097ec:	ec 08 0b 01 	st.b	r6[r8],r1
800097f0:	ee f9 02 08 	ld.w	r9,r7[520]
800097f4:	10 09       	add	r9,r8
800097f6:	b2 91       	st.b	r9[0x1],r1
800097f8:	ee f9 02 08 	ld.w	r9,r7[520]
800097fc:	10 09       	add	r9,r8
800097fe:	b2 a1       	st.b	r9[0x2],r1
80009800:	ee f9 02 08 	ld.w	r9,r7[520]
80009804:	f2 08 00 08 	add	r8,r9,r8
80009808:	b0 b1       	st.b	r8[0x3],r1
8000980a:	ef 40 02 04 	st.w	r7[516],r0
8000980e:	06 94       	mov	r4,r3
80009810:	e8 c8 00 01 	sub	r8,r4,1
80009814:	5b d8       	cp.w	r8,-3
80009816:	fe 98 ff 4f 	brls	800096b4 <fatfs_free_cluster_chain+0x14>
8000981a:	da 3a       	popm	r0-r7,pc,r12=1
8000981c:	e8 03 16 07 	lsr	r3,r4,0x7
80009820:	6a 56       	ld.w	r6,r5[0x14]
80009822:	ea f7 02 54 	ld.w	r7,r5[596]
80009826:	e6 06 00 06 	add	r6,r3,r6
8000982a:	58 07       	cp.w	r7,0
8000982c:	fe 91 ff 52 	brne	800096d0 <fatfs_free_cluster_chain+0x30>
80009830:	0e 98       	mov	r8,r7
80009832:	ef 48 02 0c 	st.w	r7[524],r8
80009836:	eb 47 02 54 	st.w	r5[596],r7
8000983a:	ee f8 02 04 	ld.w	r8,r7[516]
8000983e:	58 08       	cp.w	r8,0
80009840:	fe 90 ff 6d 	breq	8000971a <fatfs_free_cluster_chain+0x7a>
80009844:	58 07       	cp.w	r7,0
80009846:	e0 80 00 8b 	breq	8000995c <fatfs_free_cluster_chain+0x2bc>
8000984a:	6a e8       	ld.w	r8,r5[0x38]
8000984c:	58 08       	cp.w	r8,0
8000984e:	c1 10       	breq	80009870 <fatfs_free_cluster_chain+0x1d0>
80009850:	ee fc 02 00 	ld.w	r12,r7[512]
80009854:	6a 59       	ld.w	r9,r5[0x14]
80009856:	f8 09 01 09 	sub	r9,r12,r9
8000985a:	f2 cb ff ff 	sub	r11,r9,-1
8000985e:	6a 8a       	ld.w	r10,r5[0x20]
80009860:	14 3b       	cp.w	r11,r10
80009862:	f9 ba 08 01 	movls	r10,1
80009866:	f5 d9 eb 1a 	subhi	r10,r10,r9
8000986a:	0e 9b       	mov	r11,r7
8000986c:	5d 18       	icall	r8
8000986e:	c7 50       	breq	80009958 <fatfs_free_cluster_chain+0x2b8>
80009870:	30 09       	mov	r9,0
80009872:	ef 49 02 04 	st.w	r7[516],r9
80009876:	c5 2b       	rjmp	8000971a <fatfs_free_cluster_chain+0x7a>
80009878:	e6 08 15 07 	lsl	r8,r3,0x7
8000987c:	e8 08 01 08 	sub	r8,r4,r8
80009880:	a3 68       	lsl	r8,0x2
80009882:	5c 78       	castu.h	r8
80009884:	ec 08 07 09 	ld.ub	r9,r6[r8]
80009888:	10 06       	add	r6,r8
8000988a:	0d 98       	ld.ub	r8,r6[0x1]
8000988c:	a9 68       	lsl	r8,0x8
8000988e:	0d b3       	ld.ub	r3,r6[0x3]
80009890:	0d aa       	ld.ub	r10,r6[0x2]
80009892:	b9 63       	lsl	r3,0x18
80009894:	b1 6a       	lsl	r10,0x10
80009896:	ea f7 02 54 	ld.w	r7,r5[596]
8000989a:	14 03       	add	r3,r10
8000989c:	12 03       	add	r3,r9
8000989e:	30 89       	mov	r9,8
800098a0:	ea 19 f0 00 	orh	r9,0xf000
800098a4:	10 03       	add	r3,r8
800098a6:	e7 d3 c0 1c 	bfextu	r3,r3,0x0,0x1c
800098aa:	e6 09 00 08 	add	r8,r3,r9
800098ae:	58 78       	cp.w	r8,7
800098b0:	f9 b3 08 ff 	movls	r3,-1
800098b4:	e8 02 16 07 	lsr	r2,r4,0x7
800098b8:	6a 56       	ld.w	r6,r5[0x14]
800098ba:	e4 06 00 06 	add	r6,r2,r6
800098be:	58 07       	cp.w	r7,0
800098c0:	fe 91 ff 5b 	brne	80009776 <fatfs_free_cluster_chain+0xd6>
800098c4:	0e 98       	mov	r8,r7
800098c6:	ef 48 02 0c 	st.w	r7[524],r8
800098ca:	eb 47 02 54 	st.w	r5[596],r7
800098ce:	ee f8 02 04 	ld.w	r8,r7[516]
800098d2:	58 08       	cp.w	r8,0
800098d4:	fe 90 ff 76 	breq	800097c0 <fatfs_free_cluster_chain+0x120>
800098d8:	58 07       	cp.w	r7,0
800098da:	c9 a0       	breq	8000980e <fatfs_free_cluster_chain+0x16e>
800098dc:	6a e8       	ld.w	r8,r5[0x38]
800098de:	58 08       	cp.w	r8,0
800098e0:	c1 10       	breq	80009902 <fatfs_free_cluster_chain+0x262>
800098e2:	ee fc 02 00 	ld.w	r12,r7[512]
800098e6:	6a 59       	ld.w	r9,r5[0x14]
800098e8:	f8 09 01 09 	sub	r9,r12,r9
800098ec:	f2 cb ff ff 	sub	r11,r9,-1
800098f0:	6a 8a       	ld.w	r10,r5[0x20]
800098f2:	14 3b       	cp.w	r11,r10
800098f4:	f9 ba 08 01 	movls	r10,1
800098f8:	f5 d9 eb 1a 	subhi	r10,r10,r9
800098fc:	0e 9b       	mov	r11,r7
800098fe:	5d 18       	icall	r8
80009900:	c8 70       	breq	8000980e <fatfs_free_cluster_chain+0x16e>
80009902:	30 08       	mov	r8,0
80009904:	ef 48 02 04 	st.w	r7[516],r8
80009908:	c5 cb       	rjmp	800097c0 <fatfs_free_cluster_chain+0x120>
8000990a:	e4 09 15 08 	lsl	r9,r2,0x8
8000990e:	e8 09 01 09 	sub	r9,r4,r9
80009912:	a1 79       	lsl	r9,0x1
80009914:	5c 79       	castu.h	r9
80009916:	ec 09 0b 08 	st.b	r6[r9],r8
8000991a:	ee fa 02 08 	ld.w	r10,r7[520]
8000991e:	f4 09 00 09 	add	r9,r10,r9
80009922:	b2 98       	st.b	r9[0x1],r8
80009924:	ef 40 02 04 	st.w	r7[516],r0
80009928:	06 94       	mov	r4,r3
8000992a:	c7 3b       	rjmp	80009810 <fatfs_free_cluster_chain+0x170>
8000992c:	10 16       	sub	r6,r8
8000992e:	a9 76       	lsl	r6,0x9
80009930:	ee 06 00 06 	add	r6,r7,r6
80009934:	ef 46 02 08 	st.w	r7[520],r6
80009938:	c5 0b       	rjmp	800097d8 <fatfs_free_cluster_chain+0x138>
8000993a:	10 16       	sub	r6,r8
8000993c:	a9 76       	lsl	r6,0x9
8000993e:	ee 06 00 06 	add	r6,r7,r6
80009942:	ef 46 02 08 	st.w	r7[520],r6
80009946:	cf 6a       	rjmp	80009732 <fatfs_free_cluster_chain+0x92>
80009948:	3f f9       	mov	r9,-1
8000994a:	06 94       	mov	r4,r3
8000994c:	ef 49 02 00 	st.w	r7[512],r9
80009950:	c6 0b       	rjmp	80009810 <fatfs_free_cluster_chain+0x170>
80009952:	3f f8       	mov	r8,-1
80009954:	ef 48 02 00 	st.w	r7[512],r8
80009958:	ea f7 02 54 	ld.w	r7,r5[596]
8000995c:	6a c8       	ld.w	r8,r5[0x30]
8000995e:	58 08       	cp.w	r8,0
80009960:	c0 31       	brne	80009966 <fatfs_free_cluster_chain+0x2c6>
80009962:	3f f3       	mov	r3,-1
80009964:	c0 1b       	rjmp	80009766 <fatfs_free_cluster_chain+0xc6>
80009966:	3f f3       	mov	r3,-1
80009968:	ca 6b       	rjmp	800098b4 <fatfs_free_cluster_chain+0x214>

8000996a <fatfs_find_blank_cluster>:
8000996a:	eb cd 40 fe 	pushm	r1-r7,lr
8000996e:	30 01       	mov	r1,0
80009970:	18 95       	mov	r5,r12
80009972:	14 92       	mov	r2,r10
80009974:	16 93       	mov	r3,r11
80009976:	78 c8       	ld.w	r8,r12[0x30]
80009978:	58 08       	cp.w	r8,0
8000997a:	c5 11       	brne	80009a1c <fatfs_find_blank_cluster+0xb2>
8000997c:	e6 04 16 08 	lsr	r4,r3,0x8
80009980:	6a 88       	ld.w	r8,r5[0x20]
80009982:	10 34       	cp.w	r4,r8
80009984:	c5 12       	brcc	80009a26 <fatfs_find_blank_cluster+0xbc>
80009986:	6a 56       	ld.w	r6,r5[0x14]
80009988:	ea f7 02 54 	ld.w	r7,r5[596]
8000998c:	e8 06 00 06 	add	r6,r4,r6
80009990:	58 07       	cp.w	r7,0
80009992:	c6 d0       	breq	80009a6c <fatfs_find_blank_cluster+0x102>
80009994:	30 09       	mov	r9,0
80009996:	c0 38       	rjmp	8000999c <fatfs_find_blank_cluster+0x32>
80009998:	0e 99       	mov	r9,r7
8000999a:	10 97       	mov	r7,r8
8000999c:	ee f8 02 00 	ld.w	r8,r7[512]
800099a0:	10 36       	cp.w	r6,r8
800099a2:	c0 53       	brcs	800099ac <fatfs_find_blank_cluster+0x42>
800099a4:	f0 ca ff ff 	sub	r10,r8,-1
800099a8:	14 36       	cp.w	r6,r10
800099aa:	c5 93       	brcs	80009a5c <fatfs_find_blank_cluster+0xf2>
800099ac:	ee f8 02 0c 	ld.w	r8,r7[524]
800099b0:	58 08       	cp.w	r8,0
800099b2:	cf 31       	brne	80009998 <fatfs_find_blank_cluster+0x2e>
800099b4:	58 09       	cp.w	r9,0
800099b6:	f3 f8 1a 83 	st.wne	r9[0x20c],r8
800099ba:	eb f9 0a 95 	st.weq	r5[0x254],r9
800099be:	ee f8 02 0c 	ld.w	r8,r7[524]
800099c2:	58 08       	cp.w	r8,0
800099c4:	ce a1       	brne	80009998 <fatfs_find_blank_cluster+0x2e>
800099c6:	ea f8 02 54 	ld.w	r8,r5[596]
800099ca:	ef 48 02 0c 	st.w	r7[524],r8
800099ce:	eb 47 02 54 	st.w	r5[596],r7
800099d2:	ee f8 02 04 	ld.w	r8,r7[516]
800099d6:	58 08       	cp.w	r8,0
800099d8:	c5 31       	brne	80009a7e <fatfs_find_blank_cluster+0x114>
800099da:	ef 46 02 00 	st.w	r7[512],r6
800099de:	0c 9c       	mov	r12,r6
800099e0:	6a d8       	ld.w	r8,r5[0x34]
800099e2:	30 1a       	mov	r10,1
800099e4:	0e 9b       	mov	r11,r7
800099e6:	5d 18       	icall	r8
800099e8:	0e 99       	mov	r9,r7
800099ea:	c6 20       	breq	80009aae <fatfs_find_blank_cluster+0x144>
800099ec:	ef 47 02 08 	st.w	r7[520],r7
800099f0:	58 07       	cp.w	r7,0
800099f2:	c1 a0       	breq	80009a26 <fatfs_find_blank_cluster+0xbc>
800099f4:	6a c8       	ld.w	r8,r5[0x30]
800099f6:	58 08       	cp.w	r8,0
800099f8:	c1 c1       	brne	80009a30 <fatfs_find_blank_cluster+0xc6>
800099fa:	e8 0a 15 08 	lsl	r10,r4,0x8
800099fe:	e6 0a 01 0a 	sub	r10,r3,r10
80009a02:	a1 7a       	lsl	r10,0x1
80009a04:	5c 7a       	castu.h	r10
80009a06:	f2 0a 07 0b 	ld.ub	r11,r9[r10]
80009a0a:	14 09       	add	r9,r10
80009a0c:	13 99       	ld.ub	r9,r9[0x1]
80009a0e:	a9 69       	lsl	r9,0x8
80009a10:	16 09       	add	r9,r11
80009a12:	58 09       	cp.w	r9,0
80009a14:	c0 b0       	breq	80009a2a <fatfs_find_blank_cluster+0xc0>
80009a16:	2f f3       	sub	r3,-1
80009a18:	58 08       	cp.w	r8,0
80009a1a:	cb 10       	breq	8000997c <fatfs_find_blank_cluster+0x12>
80009a1c:	e6 04 16 07 	lsr	r4,r3,0x7
80009a20:	6a 88       	ld.w	r8,r5[0x20]
80009a22:	10 34       	cp.w	r4,r8
80009a24:	cb 13       	brcs	80009986 <fatfs_find_blank_cluster+0x1c>
80009a26:	e3 cf 80 fe 	ldm	sp++,r1-r7,pc,r12=0
80009a2a:	85 03       	st.w	r2[0x0],r3
80009a2c:	e3 cf 90 fe 	ldm	sp++,r1-r7,pc,r12=1
80009a30:	e8 0a 15 07 	lsl	r10,r4,0x7
80009a34:	e6 0a 01 0a 	sub	r10,r3,r10
80009a38:	a3 6a       	lsl	r10,0x2
80009a3a:	5c 7a       	castu.h	r10
80009a3c:	f2 0a 07 0b 	ld.ub	r11,r9[r10]
80009a40:	14 09       	add	r9,r10
80009a42:	13 9a       	ld.ub	r10,r9[0x1]
80009a44:	13 bc       	ld.ub	r12,r9[0x3]
80009a46:	a9 6a       	lsl	r10,0x8
80009a48:	b9 6c       	lsl	r12,0x18
80009a4a:	13 a9       	ld.ub	r9,r9[0x2]
80009a4c:	b1 69       	lsl	r9,0x10
80009a4e:	f8 09 00 09 	add	r9,r12,r9
80009a52:	16 09       	add	r9,r11
80009a54:	14 09       	add	r9,r10
80009a56:	f3 d9 c0 1c 	bfextu	r9,r9,0x0,0x1c
80009a5a:	cd cb       	rjmp	80009a12 <fatfs_find_blank_cluster+0xa8>
80009a5c:	ec 08 01 09 	sub	r9,r6,r8
80009a60:	a9 79       	lsl	r9,0x9
80009a62:	ee 09 00 09 	add	r9,r7,r9
80009a66:	ef 49 02 08 	st.w	r7[520],r9
80009a6a:	cc 5b       	rjmp	800099f4 <fatfs_find_blank_cluster+0x8a>
80009a6c:	0e 98       	mov	r8,r7
80009a6e:	ef 48 02 0c 	st.w	r7[524],r8
80009a72:	eb 47 02 54 	st.w	r5[596],r7
80009a76:	ee f8 02 04 	ld.w	r8,r7[516]
80009a7a:	58 08       	cp.w	r8,0
80009a7c:	ca f0       	breq	800099da <fatfs_find_blank_cluster+0x70>
80009a7e:	58 07       	cp.w	r7,0
80009a80:	cd 30       	breq	80009a26 <fatfs_find_blank_cluster+0xbc>
80009a82:	6a e8       	ld.w	r8,r5[0x38]
80009a84:	58 08       	cp.w	r8,0
80009a86:	c1 10       	breq	80009aa8 <fatfs_find_blank_cluster+0x13e>
80009a88:	ee fc 02 00 	ld.w	r12,r7[512]
80009a8c:	6a 59       	ld.w	r9,r5[0x14]
80009a8e:	f8 09 01 09 	sub	r9,r12,r9
80009a92:	f2 cb ff ff 	sub	r11,r9,-1
80009a96:	6a 8a       	ld.w	r10,r5[0x20]
80009a98:	14 3b       	cp.w	r11,r10
80009a9a:	f9 ba 08 01 	movls	r10,1
80009a9e:	f5 d9 eb 1a 	subhi	r10,r10,r9
80009aa2:	0e 9b       	mov	r11,r7
80009aa4:	5d 18       	icall	r8
80009aa6:	cc 00       	breq	80009a26 <fatfs_find_blank_cluster+0xbc>
80009aa8:	ef 41 02 04 	st.w	r7[516],r1
80009aac:	c9 7b       	rjmp	800099da <fatfs_find_blank_cluster+0x70>
80009aae:	3f f8       	mov	r8,-1
80009ab0:	ef 48 02 00 	st.w	r7[512],r8
80009ab4:	e3 cd 80 fe 	ldm	sp++,r1-r7,pc

80009ab8 <fatfs_add_file_entry>:
80009ab8:	d4 31       	pushm	r0-r7,lr
80009aba:	fa cd 00 88 	sub	sp,sp,136
80009abe:	50 2b       	stdsp	sp[0x8],r11
80009ac0:	50 4a       	stdsp	sp[0x10],r10
80009ac2:	51 49       	stdsp	sp[0x50],r9
80009ac4:	51 58       	stdsp	sp[0x54],r8
80009ac6:	fa c4 ff 54 	sub	r4,sp,-172
80009aca:	68 19       	ld.w	r9,r4[0x4]
80009acc:	51 79       	stdsp	sp[0x5c],r9
80009ace:	68 04       	ld.w	r4,r4[0x0]
80009ad0:	51 64       	stdsp	sp[0x58],r4
80009ad2:	18 93       	mov	r3,r12
80009ad4:	78 e8       	ld.w	r8,r12[0x38]
80009ad6:	58 08       	cp.w	r8,0
80009ad8:	c0 60       	breq	80009ae4 <fatfs_add_file_entry+0x2c>
80009ada:	14 9c       	mov	r12,r10
80009adc:	fe b0 f7 46 	rcall	80008968 <fatfs_lfn_entries_required>
80009ae0:	18 94       	mov	r4,r12
80009ae2:	c0 31       	brne	80009ae8 <fatfs_add_file_entry+0x30>
80009ae4:	2d ed       	sub	sp,-136
80009ae6:	d8 3a       	popm	r0-r7,pc,r12=0
80009ae8:	f8 c8 ff ff 	sub	r8,r12,-1
80009aec:	cf c0       	breq	80009ae4 <fatfs_add_file_entry+0x2c>
80009aee:	e6 c9 ff bc 	sub	r9,r3,-68
80009af2:	50 39       	stdsp	sp[0xc],r9
80009af4:	e6 c9 ff 9c 	sub	r9,r3,-100
80009af8:	50 59       	stdsp	sp[0x14],r9
80009afa:	e6 c9 ff 7c 	sub	r9,r3,-132
80009afe:	50 69       	stdsp	sp[0x18],r9
80009b00:	e6 c9 ff 5c 	sub	r9,r3,-164
80009b04:	50 79       	stdsp	sp[0x1c],r9
80009b06:	e6 c9 ff 3c 	sub	r9,r3,-196
80009b0a:	50 89       	stdsp	sp[0x20],r9
80009b0c:	e6 c9 ff 1c 	sub	r9,r3,-228
80009b10:	50 99       	stdsp	sp[0x24],r9
80009b12:	e6 c9 fe fc 	sub	r9,r3,-260
80009b16:	50 a9       	stdsp	sp[0x28],r9
80009b18:	e6 c9 fe dc 	sub	r9,r3,-292
80009b1c:	50 b9       	stdsp	sp[0x2c],r9
80009b1e:	e6 c9 fe bc 	sub	r9,r3,-324
80009b22:	50 c9       	stdsp	sp[0x30],r9
80009b24:	e6 c9 fe 9c 	sub	r9,r3,-356
80009b28:	50 d9       	stdsp	sp[0x34],r9
80009b2a:	e6 c9 fe 7c 	sub	r9,r3,-388
80009b2e:	50 e9       	stdsp	sp[0x38],r9
80009b30:	e6 c9 fe 5c 	sub	r9,r3,-420
80009b34:	50 f9       	stdsp	sp[0x3c],r9
80009b36:	e6 c9 fe 3c 	sub	r9,r3,-452
80009b3a:	51 19       	stdsp	sp[0x44],r9
80009b3c:	e6 c9 fe 1c 	sub	r9,r3,-484
80009b40:	51 09       	stdsp	sp[0x40],r9
80009b42:	e6 c9 fd fc 	sub	r9,r3,-516
80009b46:	30 06       	mov	r6,0
80009b48:	51 29       	stdsp	sp[0x48],r9
80009b4a:	0c 95       	mov	r5,r6
80009b4c:	e6 c9 fd dc 	sub	r9,r3,-548
80009b50:	0c 97       	mov	r7,r6
80009b52:	51 39       	stdsp	sp[0x4c],r9
80009b54:	0c 90       	mov	r0,r6
80009b56:	50 16       	stdsp	sp[0x4],r6
80009b58:	3e 51       	mov	r1,-27
80009b5a:	51 8c       	stdsp	sp[0x60],r12
80009b5c:	10 94       	mov	r4,r8
80009b5e:	40 12       	lddsp	r2,sp[0x4]
80009b60:	04 98       	mov	r8,r2
80009b62:	2f f8       	sub	r8,-1
80009b64:	30 09       	mov	r9,0
80009b66:	50 18       	stdsp	sp[0x4],r8
80009b68:	04 9a       	mov	r10,r2
80009b6a:	40 2b       	lddsp	r11,sp[0x8]
80009b6c:	06 9c       	mov	r12,r3
80009b6e:	fe b0 ed 21 	rcall	800075b0 <fatfs_sector_reader>
80009b72:	e0 80 03 fd 	breq	8000a36c <fatfs_add_file_entry+0x8b4>
80009b76:	40 3c       	lddsp	r12,sp[0xc]
80009b78:	fe b0 f4 ed 	rcall	80008552 <fatfs_entry_lfn_text>
80009b7c:	e0 81 00 fe 	brne	80009d78 <fatfs_add_file_entry+0x2c0>
80009b80:	e7 38 00 44 	ld.ub	r8,r3[68]
80009b84:	e2 08 18 00 	cp.b	r8,r1
80009b88:	e0 80 01 89 	breq	80009e9a <fatfs_add_file_entry+0x3e2>
80009b8c:	58 08       	cp.w	r8,0
80009b8e:	e0 80 01 86 	breq	80009e9a <fatfs_add_file_entry+0x3e2>
80009b92:	18 97       	mov	r7,r12
80009b94:	18 90       	mov	r0,r12
80009b96:	40 5c       	lddsp	r12,sp[0x14]
80009b98:	fe b0 f4 dd 	rcall	80008552 <fatfs_entry_lfn_text>
80009b9c:	e0 81 01 00 	brne	80009d9c <fatfs_add_file_entry+0x2e4>
80009ba0:	e7 38 00 64 	ld.ub	r8,r3[100]
80009ba4:	e2 08 18 00 	cp.b	r8,r1
80009ba8:	e0 80 03 13 	breq	8000a1ce <fatfs_add_file_entry+0x716>
80009bac:	58 08       	cp.w	r8,0
80009bae:	e0 80 03 10 	breq	8000a1ce <fatfs_add_file_entry+0x716>
80009bb2:	18 97       	mov	r7,r12
80009bb4:	18 90       	mov	r0,r12
80009bb6:	40 6c       	lddsp	r12,sp[0x18]
80009bb8:	fe b0 f4 cd 	rcall	80008552 <fatfs_entry_lfn_text>
80009bbc:	e0 81 00 e7 	brne	80009d8a <fatfs_add_file_entry+0x2d2>
80009bc0:	e7 38 00 84 	ld.ub	r8,r3[132]
80009bc4:	e2 08 18 00 	cp.b	r8,r1
80009bc8:	e0 80 02 f7 	breq	8000a1b6 <fatfs_add_file_entry+0x6fe>
80009bcc:	58 08       	cp.w	r8,0
80009bce:	e0 80 02 f4 	breq	8000a1b6 <fatfs_add_file_entry+0x6fe>
80009bd2:	18 97       	mov	r7,r12
80009bd4:	18 90       	mov	r0,r12
80009bd6:	40 7c       	lddsp	r12,sp[0x1c]
80009bd8:	fe b0 f4 bd 	rcall	80008552 <fatfs_entry_lfn_text>
80009bdc:	e0 81 00 e9 	brne	80009dae <fatfs_add_file_entry+0x2f6>
80009be0:	e7 38 00 a4 	ld.ub	r8,r3[164]
80009be4:	e2 08 18 00 	cp.b	r8,r1
80009be8:	e0 80 03 00 	breq	8000a1e8 <fatfs_add_file_entry+0x730>
80009bec:	58 08       	cp.w	r8,0
80009bee:	e0 80 02 fd 	breq	8000a1e8 <fatfs_add_file_entry+0x730>
80009bf2:	18 97       	mov	r7,r12
80009bf4:	18 90       	mov	r0,r12
80009bf6:	40 8c       	lddsp	r12,sp[0x20]
80009bf8:	fe b0 f4 ad 	rcall	80008552 <fatfs_entry_lfn_text>
80009bfc:	e0 81 00 e2 	brne	80009dc0 <fatfs_add_file_entry+0x308>
80009c00:	e7 38 00 c4 	ld.ub	r8,r3[196]
80009c04:	e2 08 18 00 	cp.b	r8,r1
80009c08:	e0 80 02 fd 	breq	8000a202 <fatfs_add_file_entry+0x74a>
80009c0c:	58 08       	cp.w	r8,0
80009c0e:	e0 80 02 fa 	breq	8000a202 <fatfs_add_file_entry+0x74a>
80009c12:	18 97       	mov	r7,r12
80009c14:	18 90       	mov	r0,r12
80009c16:	40 9c       	lddsp	r12,sp[0x24]
80009c18:	fe b0 f4 9d 	rcall	80008552 <fatfs_entry_lfn_text>
80009c1c:	e0 81 00 db 	brne	80009dd2 <fatfs_add_file_entry+0x31a>
80009c20:	e7 38 00 e4 	ld.ub	r8,r3[228]
80009c24:	e2 08 18 00 	cp.b	r8,r1
80009c28:	e0 80 02 fa 	breq	8000a21c <fatfs_add_file_entry+0x764>
80009c2c:	58 08       	cp.w	r8,0
80009c2e:	e0 80 02 f7 	breq	8000a21c <fatfs_add_file_entry+0x764>
80009c32:	18 97       	mov	r7,r12
80009c34:	18 90       	mov	r0,r12
80009c36:	40 ac       	lddsp	r12,sp[0x28]
80009c38:	fe b0 f4 8d 	rcall	80008552 <fatfs_entry_lfn_text>
80009c3c:	e0 81 00 d4 	brne	80009de4 <fatfs_add_file_entry+0x32c>
80009c40:	e7 38 01 04 	ld.ub	r8,r3[260]
80009c44:	e2 08 18 00 	cp.b	r8,r1
80009c48:	e0 80 02 f7 	breq	8000a236 <fatfs_add_file_entry+0x77e>
80009c4c:	58 08       	cp.w	r8,0
80009c4e:	e0 80 02 f4 	breq	8000a236 <fatfs_add_file_entry+0x77e>
80009c52:	18 97       	mov	r7,r12
80009c54:	18 90       	mov	r0,r12
80009c56:	40 bc       	lddsp	r12,sp[0x2c]
80009c58:	fe b0 f4 7d 	rcall	80008552 <fatfs_entry_lfn_text>
80009c5c:	e0 81 00 cd 	brne	80009df6 <fatfs_add_file_entry+0x33e>
80009c60:	e7 38 01 24 	ld.ub	r8,r3[292]
80009c64:	e2 08 18 00 	cp.b	r8,r1
80009c68:	e0 80 02 f4 	breq	8000a250 <fatfs_add_file_entry+0x798>
80009c6c:	58 08       	cp.w	r8,0
80009c6e:	e0 80 02 f1 	breq	8000a250 <fatfs_add_file_entry+0x798>
80009c72:	18 97       	mov	r7,r12
80009c74:	18 90       	mov	r0,r12
80009c76:	40 cc       	lddsp	r12,sp[0x30]
80009c78:	fe b0 f4 6d 	rcall	80008552 <fatfs_entry_lfn_text>
80009c7c:	e0 81 00 c6 	brne	80009e08 <fatfs_add_file_entry+0x350>
80009c80:	e7 38 01 44 	ld.ub	r8,r3[324]
80009c84:	e2 08 18 00 	cp.b	r8,r1
80009c88:	e0 80 02 f1 	breq	8000a26a <fatfs_add_file_entry+0x7b2>
80009c8c:	58 08       	cp.w	r8,0
80009c8e:	e0 80 02 ee 	breq	8000a26a <fatfs_add_file_entry+0x7b2>
80009c92:	18 97       	mov	r7,r12
80009c94:	18 90       	mov	r0,r12
80009c96:	40 dc       	lddsp	r12,sp[0x34]
80009c98:	fe b0 f4 5d 	rcall	80008552 <fatfs_entry_lfn_text>
80009c9c:	e0 81 00 c8 	brne	80009e2c <fatfs_add_file_entry+0x374>
80009ca0:	e7 38 01 64 	ld.ub	r8,r3[356]
80009ca4:	e2 08 18 00 	cp.b	r8,r1
80009ca8:	e0 80 02 ee 	breq	8000a284 <fatfs_add_file_entry+0x7cc>
80009cac:	58 08       	cp.w	r8,0
80009cae:	e0 80 02 eb 	breq	8000a284 <fatfs_add_file_entry+0x7cc>
80009cb2:	18 97       	mov	r7,r12
80009cb4:	18 90       	mov	r0,r12
80009cb6:	40 ec       	lddsp	r12,sp[0x38]
80009cb8:	fe b0 f4 4d 	rcall	80008552 <fatfs_entry_lfn_text>
80009cbc:	e0 81 00 af 	brne	80009e1a <fatfs_add_file_entry+0x362>
80009cc0:	e7 38 01 84 	ld.ub	r8,r3[388]
80009cc4:	e2 08 18 00 	cp.b	r8,r1
80009cc8:	e0 80 02 eb 	breq	8000a29e <fatfs_add_file_entry+0x7e6>
80009ccc:	58 08       	cp.w	r8,0
80009cce:	e0 80 02 e8 	breq	8000a29e <fatfs_add_file_entry+0x7e6>
80009cd2:	18 97       	mov	r7,r12
80009cd4:	18 90       	mov	r0,r12
80009cd6:	40 fc       	lddsp	r12,sp[0x3c]
80009cd8:	fe b0 f4 3d 	rcall	80008552 <fatfs_entry_lfn_text>
80009cdc:	e0 81 00 ba 	brne	80009e50 <fatfs_add_file_entry+0x398>
80009ce0:	e7 38 01 a4 	ld.ub	r8,r3[420]
80009ce4:	e2 08 18 00 	cp.b	r8,r1
80009ce8:	e0 80 02 e8 	breq	8000a2b8 <fatfs_add_file_entry+0x800>
80009cec:	58 08       	cp.w	r8,0
80009cee:	e0 80 02 e5 	breq	8000a2b8 <fatfs_add_file_entry+0x800>
80009cf2:	18 97       	mov	r7,r12
80009cf4:	18 90       	mov	r0,r12
80009cf6:	41 1c       	lddsp	r12,sp[0x44]
80009cf8:	fe b0 f4 2d 	rcall	80008552 <fatfs_entry_lfn_text>
80009cfc:	e0 81 00 a1 	brne	80009e3e <fatfs_add_file_entry+0x386>
80009d00:	e7 38 01 c4 	ld.ub	r8,r3[452]
80009d04:	e2 08 18 00 	cp.b	r8,r1
80009d08:	e0 80 02 e5 	breq	8000a2d2 <fatfs_add_file_entry+0x81a>
80009d0c:	58 08       	cp.w	r8,0
80009d0e:	e0 80 02 e2 	breq	8000a2d2 <fatfs_add_file_entry+0x81a>
80009d12:	18 97       	mov	r7,r12
80009d14:	18 90       	mov	r0,r12
80009d16:	41 0c       	lddsp	r12,sp[0x40]
80009d18:	fe b0 f4 1d 	rcall	80008552 <fatfs_entry_lfn_text>
80009d1c:	e0 81 00 ac 	brne	80009e74 <fatfs_add_file_entry+0x3bc>
80009d20:	e7 38 01 e4 	ld.ub	r8,r3[484]
80009d24:	e2 08 18 00 	cp.b	r8,r1
80009d28:	e0 80 02 e2 	breq	8000a2ec <fatfs_add_file_entry+0x834>
80009d2c:	58 08       	cp.w	r8,0
80009d2e:	e0 80 02 df 	breq	8000a2ec <fatfs_add_file_entry+0x834>
80009d32:	18 97       	mov	r7,r12
80009d34:	18 90       	mov	r0,r12
80009d36:	41 2c       	lddsp	r12,sp[0x48]
80009d38:	fe b0 f4 0d 	rcall	80008552 <fatfs_entry_lfn_text>
80009d3c:	e0 81 00 93 	brne	80009e62 <fatfs_add_file_entry+0x3aa>
80009d40:	e7 38 02 04 	ld.ub	r8,r3[516]
80009d44:	e2 08 18 00 	cp.b	r8,r1
80009d48:	e0 80 02 df 	breq	8000a306 <fatfs_add_file_entry+0x84e>
80009d4c:	58 08       	cp.w	r8,0
80009d4e:	e0 80 02 dc 	breq	8000a306 <fatfs_add_file_entry+0x84e>
80009d52:	18 97       	mov	r7,r12
80009d54:	18 90       	mov	r0,r12
80009d56:	41 3c       	lddsp	r12,sp[0x4c]
80009d58:	fe b0 f3 fd 	rcall	80008552 <fatfs_entry_lfn_text>
80009d5c:	e0 81 00 95 	brne	80009e86 <fatfs_add_file_entry+0x3ce>
80009d60:	e7 38 02 24 	ld.ub	r8,r3[548]
80009d64:	e2 08 18 00 	cp.b	r8,r1
80009d68:	e0 80 02 dc 	breq	8000a320 <fatfs_add_file_entry+0x868>
80009d6c:	58 08       	cp.w	r8,0
80009d6e:	e0 80 02 d9 	breq	8000a320 <fatfs_add_file_entry+0x868>
80009d72:	18 97       	mov	r7,r12
80009d74:	18 90       	mov	r0,r12
80009d76:	cf 4a       	rjmp	80009b5e <fatfs_add_file_entry+0xa6>
80009d78:	58 00       	cp.w	r0,0
80009d7a:	e4 05 17 00 	moveq	r5,r2
80009d7e:	e0 06 17 00 	moveq	r6,r0
80009d82:	f9 b7 00 01 	moveq	r7,1
80009d86:	2f f0       	sub	r0,-1
80009d88:	c0 7b       	rjmp	80009b96 <fatfs_add_file_entry+0xde>
80009d8a:	58 00       	cp.w	r0,0
80009d8c:	e4 05 17 00 	moveq	r5,r2
80009d90:	f9 b6 00 02 	moveq	r6,2
80009d94:	f9 b7 00 01 	moveq	r7,1
80009d98:	2f f0       	sub	r0,-1
80009d9a:	c1 eb       	rjmp	80009bd6 <fatfs_add_file_entry+0x11e>
80009d9c:	58 00       	cp.w	r0,0
80009d9e:	f9 b6 00 01 	moveq	r6,1
80009da2:	e4 05 17 00 	moveq	r5,r2
80009da6:	ec 07 17 00 	moveq	r7,r6
80009daa:	2f f0       	sub	r0,-1
80009dac:	c0 5b       	rjmp	80009bb6 <fatfs_add_file_entry+0xfe>
80009dae:	58 00       	cp.w	r0,0
80009db0:	e4 05 17 00 	moveq	r5,r2
80009db4:	f9 b6 00 03 	moveq	r6,3
80009db8:	f9 b7 00 01 	moveq	r7,1
80009dbc:	2f f0       	sub	r0,-1
80009dbe:	c1 cb       	rjmp	80009bf6 <fatfs_add_file_entry+0x13e>
80009dc0:	58 00       	cp.w	r0,0
80009dc2:	e4 05 17 00 	moveq	r5,r2
80009dc6:	f9 b6 00 04 	moveq	r6,4
80009dca:	f9 b7 00 01 	moveq	r7,1
80009dce:	2f f0       	sub	r0,-1
80009dd0:	c2 3b       	rjmp	80009c16 <fatfs_add_file_entry+0x15e>
80009dd2:	58 00       	cp.w	r0,0
80009dd4:	e4 05 17 00 	moveq	r5,r2
80009dd8:	f9 b6 00 05 	moveq	r6,5
80009ddc:	f9 b7 00 01 	moveq	r7,1
80009de0:	2f f0       	sub	r0,-1
80009de2:	c2 ab       	rjmp	80009c36 <fatfs_add_file_entry+0x17e>
80009de4:	58 00       	cp.w	r0,0
80009de6:	e4 05 17 00 	moveq	r5,r2
80009dea:	f9 b6 00 06 	moveq	r6,6
80009dee:	f9 b7 00 01 	moveq	r7,1
80009df2:	2f f0       	sub	r0,-1
80009df4:	c3 1b       	rjmp	80009c56 <fatfs_add_file_entry+0x19e>
80009df6:	58 00       	cp.w	r0,0
80009df8:	e4 05 17 00 	moveq	r5,r2
80009dfc:	f9 b6 00 07 	moveq	r6,7
80009e00:	f9 b7 00 01 	moveq	r7,1
80009e04:	2f f0       	sub	r0,-1
80009e06:	c3 8b       	rjmp	80009c76 <fatfs_add_file_entry+0x1be>
80009e08:	58 00       	cp.w	r0,0
80009e0a:	e4 05 17 00 	moveq	r5,r2
80009e0e:	f9 b6 00 08 	moveq	r6,8
80009e12:	f9 b7 00 01 	moveq	r7,1
80009e16:	2f f0       	sub	r0,-1
80009e18:	c3 fb       	rjmp	80009c96 <fatfs_add_file_entry+0x1de>
80009e1a:	58 00       	cp.w	r0,0
80009e1c:	e4 05 17 00 	moveq	r5,r2
80009e20:	f9 b6 00 0a 	moveq	r6,10
80009e24:	f9 b7 00 01 	moveq	r7,1
80009e28:	2f f0       	sub	r0,-1
80009e2a:	c5 6b       	rjmp	80009cd6 <fatfs_add_file_entry+0x21e>
80009e2c:	58 00       	cp.w	r0,0
80009e2e:	e4 05 17 00 	moveq	r5,r2
80009e32:	f9 b6 00 09 	moveq	r6,9
80009e36:	f9 b7 00 01 	moveq	r7,1
80009e3a:	2f f0       	sub	r0,-1
80009e3c:	c3 db       	rjmp	80009cb6 <fatfs_add_file_entry+0x1fe>
80009e3e:	58 00       	cp.w	r0,0
80009e40:	e4 05 17 00 	moveq	r5,r2
80009e44:	f9 b6 00 0c 	moveq	r6,12
80009e48:	f9 b7 00 01 	moveq	r7,1
80009e4c:	2f f0       	sub	r0,-1
80009e4e:	c6 4b       	rjmp	80009d16 <fatfs_add_file_entry+0x25e>
80009e50:	58 00       	cp.w	r0,0
80009e52:	e4 05 17 00 	moveq	r5,r2
80009e56:	f9 b6 00 0b 	moveq	r6,11
80009e5a:	f9 b7 00 01 	moveq	r7,1
80009e5e:	2f f0       	sub	r0,-1
80009e60:	c4 bb       	rjmp	80009cf6 <fatfs_add_file_entry+0x23e>
80009e62:	58 00       	cp.w	r0,0
80009e64:	e4 05 17 00 	moveq	r5,r2
80009e68:	f9 b6 00 0e 	moveq	r6,14
80009e6c:	f9 b7 00 01 	moveq	r7,1
80009e70:	2f f0       	sub	r0,-1
80009e72:	c7 2b       	rjmp	80009d56 <fatfs_add_file_entry+0x29e>
80009e74:	58 00       	cp.w	r0,0
80009e76:	e4 05 17 00 	moveq	r5,r2
80009e7a:	f9 b6 00 0d 	moveq	r6,13
80009e7e:	f9 b7 00 01 	moveq	r7,1
80009e82:	2f f0       	sub	r0,-1
80009e84:	c5 9b       	rjmp	80009d36 <fatfs_add_file_entry+0x27e>
80009e86:	58 00       	cp.w	r0,0
80009e88:	e4 05 17 00 	moveq	r5,r2
80009e8c:	f9 b6 00 0f 	moveq	r6,15
80009e90:	f9 b7 00 01 	moveq	r7,1
80009e94:	2f f0       	sub	r0,-1
80009e96:	fe 9f fe 64 	bral	80009b5e <fatfs_add_file_entry+0xa6>
80009e9a:	58 00       	cp.w	r0,0
80009e9c:	e4 05 17 00 	moveq	r5,r2
80009ea0:	e0 06 17 00 	moveq	r6,r0
80009ea4:	f9 b7 00 01 	moveq	r7,1
80009ea8:	2f f0       	sub	r0,-1
80009eaa:	00 34       	cp.w	r4,r0
80009eac:	fe 99 fe 75 	brgt	80009b96 <fatfs_add_file_entry+0xde>
80009eb0:	41 84       	lddsp	r4,sp[0x60]
80009eb2:	41 49       	lddsp	r9,sp[0x50]
80009eb4:	13 3a       	ld.ub	r10,r9++
80009eb6:	13 3c       	ld.ub	r12,r9++
80009eb8:	f4 0b 16 01 	lsr	r11,r10,0x1
80009ebc:	f8 0b 00 0b 	add	r11,r12,r11
80009ec0:	e0 68 00 80 	mov	r8,128
80009ec4:	13 3c       	ld.ub	r12,r9++
80009ec6:	f5 da c0 01 	bfextu	r10,r10,0x0,0x1
80009eca:	f0 0a 17 10 	movne	r10,r8
80009ece:	f6 0a 00 0a 	add	r10,r11,r10
80009ed2:	5c 5a       	castu.b	r10
80009ed4:	f4 0b 16 01 	lsr	r11,r10,0x1
80009ed8:	f8 0b 00 0b 	add	r11,r12,r11
80009edc:	f5 da c0 01 	bfextu	r10,r10,0x0,0x1
80009ee0:	13 3c       	ld.ub	r12,r9++
80009ee2:	f0 0a 17 10 	movne	r10,r8
80009ee6:	f6 0a 00 0a 	add	r10,r11,r10
80009eea:	5c 5a       	castu.b	r10
80009eec:	f4 0b 16 01 	lsr	r11,r10,0x1
80009ef0:	f8 0b 00 0b 	add	r11,r12,r11
80009ef4:	f5 da c0 01 	bfextu	r10,r10,0x0,0x1
80009ef8:	13 3c       	ld.ub	r12,r9++
80009efa:	f0 0a 17 10 	movne	r10,r8
80009efe:	f6 0a 00 0a 	add	r10,r11,r10
80009f02:	5c 5a       	castu.b	r10
80009f04:	f4 0b 16 01 	lsr	r11,r10,0x1
80009f08:	f8 0b 00 0b 	add	r11,r12,r11
80009f0c:	f5 da c0 01 	bfextu	r10,r10,0x0,0x1
80009f10:	13 3c       	ld.ub	r12,r9++
80009f12:	f0 0a 17 10 	movne	r10,r8
80009f16:	f6 0a 00 0a 	add	r10,r11,r10
80009f1a:	5c 5a       	castu.b	r10
80009f1c:	f4 0b 16 01 	lsr	r11,r10,0x1
80009f20:	f8 0b 00 0b 	add	r11,r12,r11
80009f24:	f5 da c0 01 	bfextu	r10,r10,0x0,0x1
80009f28:	13 3c       	ld.ub	r12,r9++
80009f2a:	f0 0a 17 10 	movne	r10,r8
80009f2e:	f6 0a 00 0a 	add	r10,r11,r10
80009f32:	5c 5a       	castu.b	r10
80009f34:	f4 0b 16 01 	lsr	r11,r10,0x1
80009f38:	f8 0b 00 0b 	add	r11,r12,r11
80009f3c:	f5 da c0 01 	bfextu	r10,r10,0x0,0x1
80009f40:	13 3c       	ld.ub	r12,r9++
80009f42:	f0 0a 17 10 	movne	r10,r8
80009f46:	f6 0a 00 0a 	add	r10,r11,r10
80009f4a:	5c 5a       	castu.b	r10
80009f4c:	f4 0b 16 01 	lsr	r11,r10,0x1
80009f50:	f8 0b 00 0b 	add	r11,r12,r11
80009f54:	f5 da c0 01 	bfextu	r10,r10,0x0,0x1
80009f58:	13 3c       	ld.ub	r12,r9++
80009f5a:	f0 0a 17 10 	movne	r10,r8
80009f5e:	f6 0a 00 0a 	add	r10,r11,r10
80009f62:	5c 5a       	castu.b	r10
80009f64:	f4 0b 16 01 	lsr	r11,r10,0x1
80009f68:	f8 0b 00 0b 	add	r11,r12,r11
80009f6c:	f5 da c0 01 	bfextu	r10,r10,0x0,0x1
80009f70:	13 3c       	ld.ub	r12,r9++
80009f72:	f0 0a 17 10 	movne	r10,r8
80009f76:	f6 0a 00 0a 	add	r10,r11,r10
80009f7a:	5c 5a       	castu.b	r10
80009f7c:	f4 0b 16 01 	lsr	r11,r10,0x1
80009f80:	f5 da c0 01 	bfextu	r10,r10,0x0,0x1
80009f84:	f0 0a 17 10 	movne	r10,r8
80009f88:	f8 0b 00 0b 	add	r11,r12,r11
80009f8c:	0a 92       	mov	r2,r5
80009f8e:	13 8c       	ld.ub	r12,r9[0x0]
80009f90:	30 01       	mov	r1,0
80009f92:	f6 0a 00 09 	add	r9,r11,r10
80009f96:	50 15       	stdsp	sp[0x4],r5
80009f98:	5c 59       	castu.b	r9
80009f9a:	0c 95       	mov	r5,r6
80009f9c:	f2 0a 16 01 	lsr	r10,r9,0x1
80009fa0:	30 10       	mov	r0,1
80009fa2:	f8 0a 00 0a 	add	r10,r12,r10
80009fa6:	f3 d9 c0 01 	bfextu	r9,r9,0x0,0x1
80009faa:	40 46       	lddsp	r6,sp[0x10]
80009fac:	f0 09 17 10 	movne	r9,r8
80009fb0:	f4 09 00 09 	add	r9,r10,r9
80009fb4:	ef d9 c0 08 	bfextu	r7,r9,0x0,0x8
80009fb8:	30 09       	mov	r9,0
80009fba:	04 9a       	mov	r10,r2
80009fbc:	40 2b       	lddsp	r11,sp[0x8]
80009fbe:	06 9c       	mov	r12,r3
80009fc0:	fe b0 ea f8 	rcall	800075b0 <fatfs_sector_reader>
80009fc4:	fe 90 fd 90 	breq	80009ae4 <fatfs_add_file_entry+0x2c>
80009fc8:	58 01       	cp.w	r1,0
80009fca:	c4 b1       	brne	8000a060 <fatfs_add_file_entry+0x5a8>
80009fcc:	40 19       	lddsp	r9,sp[0x4]
80009fce:	12 32       	cp.w	r2,r9
80009fd0:	c0 30       	breq	80009fd6 <fatfs_add_file_entry+0x51e>
80009fd2:	2f f2       	sub	r2,-1
80009fd4:	cf 2b       	rjmp	80009fb8 <fatfs_add_file_entry+0x500>
80009fd6:	58 05       	cp.w	r5,0
80009fd8:	c4 40       	breq	8000a060 <fatfs_add_file_entry+0x5a8>
80009fda:	e0 05 18 00 	cp.b	r5,r0
80009fde:	c4 b0       	breq	8000a074 <fatfs_add_file_entry+0x5bc>
80009fe0:	30 28       	mov	r8,2
80009fe2:	f0 05 18 00 	cp.b	r5,r8
80009fe6:	c5 10       	breq	8000a088 <fatfs_add_file_entry+0x5d0>
80009fe8:	30 39       	mov	r9,3
80009fea:	f2 05 18 00 	cp.b	r5,r9
80009fee:	c5 70       	breq	8000a09c <fatfs_add_file_entry+0x5e4>
80009ff0:	30 48       	mov	r8,4
80009ff2:	f0 05 18 00 	cp.b	r5,r8
80009ff6:	c5 d0       	breq	8000a0b0 <fatfs_add_file_entry+0x5f8>
80009ff8:	30 59       	mov	r9,5
80009ffa:	f2 05 18 00 	cp.b	r5,r9
80009ffe:	c6 30       	breq	8000a0c4 <fatfs_add_file_entry+0x60c>
8000a000:	30 68       	mov	r8,6
8000a002:	f0 05 18 00 	cp.b	r5,r8
8000a006:	c6 90       	breq	8000a0d8 <fatfs_add_file_entry+0x620>
8000a008:	30 79       	mov	r9,7
8000a00a:	f2 05 18 00 	cp.b	r5,r9
8000a00e:	c6 f0       	breq	8000a0ec <fatfs_add_file_entry+0x634>
8000a010:	30 88       	mov	r8,8
8000a012:	f0 05 18 00 	cp.b	r5,r8
8000a016:	c7 50       	breq	8000a100 <fatfs_add_file_entry+0x648>
8000a018:	30 98       	mov	r8,9
8000a01a:	f0 05 18 00 	cp.b	r5,r8
8000a01e:	c7 b0       	breq	8000a114 <fatfs_add_file_entry+0x65c>
8000a020:	30 a8       	mov	r8,10
8000a022:	f0 05 18 00 	cp.b	r5,r8
8000a026:	e0 80 00 81 	breq	8000a128 <fatfs_add_file_entry+0x670>
8000a02a:	30 b8       	mov	r8,11
8000a02c:	f0 05 18 00 	cp.b	r5,r8
8000a030:	e0 80 00 86 	breq	8000a13c <fatfs_add_file_entry+0x684>
8000a034:	30 c8       	mov	r8,12
8000a036:	f0 05 18 00 	cp.b	r5,r8
8000a03a:	e0 80 00 8b 	breq	8000a150 <fatfs_add_file_entry+0x698>
8000a03e:	30 d8       	mov	r8,13
8000a040:	f0 05 18 00 	cp.b	r5,r8
8000a044:	e0 80 00 90 	breq	8000a164 <fatfs_add_file_entry+0x6ac>
8000a048:	30 e8       	mov	r8,14
8000a04a:	f0 05 18 00 	cp.b	r5,r8
8000a04e:	e0 80 00 95 	breq	8000a178 <fatfs_add_file_entry+0x6c0>
8000a052:	30 f8       	mov	r8,15
8000a054:	f0 05 18 00 	cp.b	r5,r8
8000a058:	e0 80 00 9a 	breq	8000a18c <fatfs_add_file_entry+0x6d4>
8000a05c:	2f f2       	sub	r2,-1
8000a05e:	ca db       	rjmp	80009fb8 <fatfs_add_file_entry+0x500>
8000a060:	58 04       	cp.w	r4,0
8000a062:	e0 80 01 6e 	breq	8000a33e <fatfs_add_file_entry+0x886>
8000a066:	20 14       	sub	r4,1
8000a068:	0e 99       	mov	r9,r7
8000a06a:	08 9a       	mov	r10,r4
8000a06c:	40 3b       	lddsp	r11,sp[0xc]
8000a06e:	0c 9c       	mov	r12,r6
8000a070:	fe b0 f4 8e 	rcall	8000898c <fatfs_filename_to_lfn>
8000a074:	58 04       	cp.w	r4,0
8000a076:	e0 80 01 b0 	breq	8000a3d6 <fatfs_add_file_entry+0x91e>
8000a07a:	20 14       	sub	r4,1
8000a07c:	0e 99       	mov	r9,r7
8000a07e:	08 9a       	mov	r10,r4
8000a080:	40 5b       	lddsp	r11,sp[0x14]
8000a082:	0c 9c       	mov	r12,r6
8000a084:	fe b0 f4 84 	rcall	8000898c <fatfs_filename_to_lfn>
8000a088:	58 04       	cp.w	r4,0
8000a08a:	e0 80 01 a4 	breq	8000a3d2 <fatfs_add_file_entry+0x91a>
8000a08e:	20 14       	sub	r4,1
8000a090:	0e 99       	mov	r9,r7
8000a092:	08 9a       	mov	r10,r4
8000a094:	40 6b       	lddsp	r11,sp[0x18]
8000a096:	0c 9c       	mov	r12,r6
8000a098:	fe b0 f4 7a 	rcall	8000898c <fatfs_filename_to_lfn>
8000a09c:	58 04       	cp.w	r4,0
8000a09e:	e0 80 01 9e 	breq	8000a3da <fatfs_add_file_entry+0x922>
8000a0a2:	20 14       	sub	r4,1
8000a0a4:	0e 99       	mov	r9,r7
8000a0a6:	08 9a       	mov	r10,r4
8000a0a8:	40 7b       	lddsp	r11,sp[0x1c]
8000a0aa:	0c 9c       	mov	r12,r6
8000a0ac:	fe b0 f4 70 	rcall	8000898c <fatfs_filename_to_lfn>
8000a0b0:	58 04       	cp.w	r4,0
8000a0b2:	e0 80 01 8d 	breq	8000a3cc <fatfs_add_file_entry+0x914>
8000a0b6:	20 14       	sub	r4,1
8000a0b8:	0e 99       	mov	r9,r7
8000a0ba:	08 9a       	mov	r10,r4
8000a0bc:	40 8b       	lddsp	r11,sp[0x20]
8000a0be:	0c 9c       	mov	r12,r6
8000a0c0:	fe b0 f4 66 	rcall	8000898c <fatfs_filename_to_lfn>
8000a0c4:	58 04       	cp.w	r4,0
8000a0c6:	e0 80 01 9e 	breq	8000a402 <fatfs_add_file_entry+0x94a>
8000a0ca:	20 14       	sub	r4,1
8000a0cc:	0e 99       	mov	r9,r7
8000a0ce:	08 9a       	mov	r10,r4
8000a0d0:	40 9b       	lddsp	r11,sp[0x24]
8000a0d2:	0c 9c       	mov	r12,r6
8000a0d4:	fe b0 f4 5c 	rcall	8000898c <fatfs_filename_to_lfn>
8000a0d8:	58 04       	cp.w	r4,0
8000a0da:	e0 80 01 91 	breq	8000a3fc <fatfs_add_file_entry+0x944>
8000a0de:	20 14       	sub	r4,1
8000a0e0:	0e 99       	mov	r9,r7
8000a0e2:	08 9a       	mov	r10,r4
8000a0e4:	40 ab       	lddsp	r11,sp[0x28]
8000a0e6:	0c 9c       	mov	r12,r6
8000a0e8:	fe b0 f4 52 	rcall	8000898c <fatfs_filename_to_lfn>
8000a0ec:	58 04       	cp.w	r4,0
8000a0ee:	e0 80 01 84 	breq	8000a3f6 <fatfs_add_file_entry+0x93e>
8000a0f2:	20 14       	sub	r4,1
8000a0f4:	0e 99       	mov	r9,r7
8000a0f6:	08 9a       	mov	r10,r4
8000a0f8:	40 bb       	lddsp	r11,sp[0x2c]
8000a0fa:	0c 9c       	mov	r12,r6
8000a0fc:	fe b0 f4 48 	rcall	8000898c <fatfs_filename_to_lfn>
8000a100:	58 04       	cp.w	r4,0
8000a102:	e0 80 01 77 	breq	8000a3f0 <fatfs_add_file_entry+0x938>
8000a106:	20 14       	sub	r4,1
8000a108:	0e 99       	mov	r9,r7
8000a10a:	08 9a       	mov	r10,r4
8000a10c:	40 cb       	lddsp	r11,sp[0x30]
8000a10e:	0c 9c       	mov	r12,r6
8000a110:	fe b0 f4 3e 	rcall	8000898c <fatfs_filename_to_lfn>
8000a114:	58 04       	cp.w	r4,0
8000a116:	e0 80 01 6a 	breq	8000a3ea <fatfs_add_file_entry+0x932>
8000a11a:	20 14       	sub	r4,1
8000a11c:	0e 99       	mov	r9,r7
8000a11e:	08 9a       	mov	r10,r4
8000a120:	40 db       	lddsp	r11,sp[0x34]
8000a122:	0c 9c       	mov	r12,r6
8000a124:	fe b0 f4 34 	rcall	8000898c <fatfs_filename_to_lfn>
8000a128:	58 04       	cp.w	r4,0
8000a12a:	e0 80 01 5d 	breq	8000a3e4 <fatfs_add_file_entry+0x92c>
8000a12e:	20 14       	sub	r4,1
8000a130:	0e 99       	mov	r9,r7
8000a132:	08 9a       	mov	r10,r4
8000a134:	40 eb       	lddsp	r11,sp[0x38]
8000a136:	0c 9c       	mov	r12,r6
8000a138:	fe b0 f4 2a 	rcall	8000898c <fatfs_filename_to_lfn>
8000a13c:	58 04       	cp.w	r4,0
8000a13e:	e0 80 01 50 	breq	8000a3de <fatfs_add_file_entry+0x926>
8000a142:	20 14       	sub	r4,1
8000a144:	0e 99       	mov	r9,r7
8000a146:	08 9a       	mov	r10,r4
8000a148:	40 fb       	lddsp	r11,sp[0x3c]
8000a14a:	0c 9c       	mov	r12,r6
8000a14c:	fe b0 f4 20 	rcall	8000898c <fatfs_filename_to_lfn>
8000a150:	58 04       	cp.w	r4,0
8000a152:	e0 80 01 5b 	breq	8000a408 <fatfs_add_file_entry+0x950>
8000a156:	20 14       	sub	r4,1
8000a158:	0e 99       	mov	r9,r7
8000a15a:	08 9a       	mov	r10,r4
8000a15c:	41 1b       	lddsp	r11,sp[0x44]
8000a15e:	0c 9c       	mov	r12,r6
8000a160:	fe b0 f4 16 	rcall	8000898c <fatfs_filename_to_lfn>
8000a164:	58 04       	cp.w	r4,0
8000a166:	e0 80 01 57 	breq	8000a414 <fatfs_add_file_entry+0x95c>
8000a16a:	20 14       	sub	r4,1
8000a16c:	0e 99       	mov	r9,r7
8000a16e:	08 9a       	mov	r10,r4
8000a170:	41 0b       	lddsp	r11,sp[0x40]
8000a172:	0c 9c       	mov	r12,r6
8000a174:	fe b0 f4 0c 	rcall	8000898c <fatfs_filename_to_lfn>
8000a178:	58 04       	cp.w	r4,0
8000a17a:	e0 80 01 4a 	breq	8000a40e <fatfs_add_file_entry+0x956>
8000a17e:	20 14       	sub	r4,1
8000a180:	0e 99       	mov	r9,r7
8000a182:	08 9a       	mov	r10,r4
8000a184:	41 2b       	lddsp	r11,sp[0x48]
8000a186:	0c 9c       	mov	r12,r6
8000a188:	fe b0 f4 02 	rcall	8000898c <fatfs_filename_to_lfn>
8000a18c:	58 04       	cp.w	r4,0
8000a18e:	e0 80 00 d6 	breq	8000a33a <fatfs_add_file_entry+0x882>
8000a192:	41 3b       	lddsp	r11,sp[0x4c]
8000a194:	0c 9c       	mov	r12,r6
8000a196:	20 14       	sub	r4,1
8000a198:	0e 99       	mov	r9,r7
8000a19a:	08 9a       	mov	r10,r4
8000a19c:	fe b0 f3 f8 	rcall	8000898c <fatfs_filename_to_lfn>
8000a1a0:	30 1a       	mov	r10,1
8000a1a2:	66 e8       	ld.w	r8,r3[0x38]
8000a1a4:	40 3b       	lddsp	r11,sp[0xc]
8000a1a6:	e6 fc 02 44 	ld.w	r12,r3[580]
8000a1aa:	5d 18       	icall	r8
8000a1ac:	fe 90 fc 9c 	breq	80009ae4 <fatfs_add_file_entry+0x2c>
8000a1b0:	30 11       	mov	r1,1
8000a1b2:	2f f2       	sub	r2,-1
8000a1b4:	c0 2b       	rjmp	80009fb8 <fatfs_add_file_entry+0x500>
8000a1b6:	58 00       	cp.w	r0,0
8000a1b8:	e4 05 17 00 	moveq	r5,r2
8000a1bc:	f9 b6 00 02 	moveq	r6,2
8000a1c0:	f9 b7 00 01 	moveq	r7,1
8000a1c4:	2f f0       	sub	r0,-1
8000a1c6:	00 34       	cp.w	r4,r0
8000a1c8:	fe 99 fd 07 	brgt	80009bd6 <fatfs_add_file_entry+0x11e>
8000a1cc:	c7 2a       	rjmp	80009eb0 <fatfs_add_file_entry+0x3f8>
8000a1ce:	58 00       	cp.w	r0,0
8000a1d0:	f9 b6 00 01 	moveq	r6,1
8000a1d4:	e4 05 17 00 	moveq	r5,r2
8000a1d8:	ec 07 17 00 	moveq	r7,r6
8000a1dc:	2f f0       	sub	r0,-1
8000a1de:	00 34       	cp.w	r4,r0
8000a1e0:	fe 99 fc eb 	brgt	80009bb6 <fatfs_add_file_entry+0xfe>
8000a1e4:	fe 9f fe 66 	bral	80009eb0 <fatfs_add_file_entry+0x3f8>
8000a1e8:	58 00       	cp.w	r0,0
8000a1ea:	e4 05 17 00 	moveq	r5,r2
8000a1ee:	f9 b6 00 03 	moveq	r6,3
8000a1f2:	f9 b7 00 01 	moveq	r7,1
8000a1f6:	2f f0       	sub	r0,-1
8000a1f8:	00 34       	cp.w	r4,r0
8000a1fa:	fe 99 fc fe 	brgt	80009bf6 <fatfs_add_file_entry+0x13e>
8000a1fe:	fe 9f fe 59 	bral	80009eb0 <fatfs_add_file_entry+0x3f8>
8000a202:	58 00       	cp.w	r0,0
8000a204:	e4 05 17 00 	moveq	r5,r2
8000a208:	f9 b6 00 04 	moveq	r6,4
8000a20c:	f9 b7 00 01 	moveq	r7,1
8000a210:	2f f0       	sub	r0,-1
8000a212:	00 34       	cp.w	r4,r0
8000a214:	fe 99 fd 01 	brgt	80009c16 <fatfs_add_file_entry+0x15e>
8000a218:	fe 9f fe 4c 	bral	80009eb0 <fatfs_add_file_entry+0x3f8>
8000a21c:	58 00       	cp.w	r0,0
8000a21e:	e4 05 17 00 	moveq	r5,r2
8000a222:	f9 b6 00 05 	moveq	r6,5
8000a226:	f9 b7 00 01 	moveq	r7,1
8000a22a:	2f f0       	sub	r0,-1
8000a22c:	00 34       	cp.w	r4,r0
8000a22e:	fe 99 fd 04 	brgt	80009c36 <fatfs_add_file_entry+0x17e>
8000a232:	fe 9f fe 3f 	bral	80009eb0 <fatfs_add_file_entry+0x3f8>
8000a236:	58 00       	cp.w	r0,0
8000a238:	e4 05 17 00 	moveq	r5,r2
8000a23c:	f9 b6 00 06 	moveq	r6,6
8000a240:	f9 b7 00 01 	moveq	r7,1
8000a244:	2f f0       	sub	r0,-1
8000a246:	00 34       	cp.w	r4,r0
8000a248:	fe 99 fd 07 	brgt	80009c56 <fatfs_add_file_entry+0x19e>
8000a24c:	fe 9f fe 32 	bral	80009eb0 <fatfs_add_file_entry+0x3f8>
8000a250:	58 00       	cp.w	r0,0
8000a252:	e4 05 17 00 	moveq	r5,r2
8000a256:	f9 b6 00 07 	moveq	r6,7
8000a25a:	f9 b7 00 01 	moveq	r7,1
8000a25e:	2f f0       	sub	r0,-1
8000a260:	00 34       	cp.w	r4,r0
8000a262:	fe 99 fd 0a 	brgt	80009c76 <fatfs_add_file_entry+0x1be>
8000a266:	fe 9f fe 25 	bral	80009eb0 <fatfs_add_file_entry+0x3f8>
8000a26a:	58 00       	cp.w	r0,0
8000a26c:	e4 05 17 00 	moveq	r5,r2
8000a270:	f9 b6 00 08 	moveq	r6,8
8000a274:	f9 b7 00 01 	moveq	r7,1
8000a278:	2f f0       	sub	r0,-1
8000a27a:	00 34       	cp.w	r4,r0
8000a27c:	fe 99 fd 0d 	brgt	80009c96 <fatfs_add_file_entry+0x1de>
8000a280:	fe 9f fe 18 	bral	80009eb0 <fatfs_add_file_entry+0x3f8>
8000a284:	58 00       	cp.w	r0,0
8000a286:	e4 05 17 00 	moveq	r5,r2
8000a28a:	f9 b6 00 09 	moveq	r6,9
8000a28e:	f9 b7 00 01 	moveq	r7,1
8000a292:	2f f0       	sub	r0,-1
8000a294:	00 34       	cp.w	r4,r0
8000a296:	fe 99 fd 10 	brgt	80009cb6 <fatfs_add_file_entry+0x1fe>
8000a29a:	fe 9f fe 0b 	bral	80009eb0 <fatfs_add_file_entry+0x3f8>
8000a29e:	58 00       	cp.w	r0,0
8000a2a0:	e4 05 17 00 	moveq	r5,r2
8000a2a4:	f9 b6 00 0a 	moveq	r6,10
8000a2a8:	f9 b7 00 01 	moveq	r7,1
8000a2ac:	2f f0       	sub	r0,-1
8000a2ae:	00 34       	cp.w	r4,r0
8000a2b0:	fe 99 fd 13 	brgt	80009cd6 <fatfs_add_file_entry+0x21e>
8000a2b4:	fe 9f fd fe 	bral	80009eb0 <fatfs_add_file_entry+0x3f8>
8000a2b8:	58 00       	cp.w	r0,0
8000a2ba:	e4 05 17 00 	moveq	r5,r2
8000a2be:	f9 b6 00 0b 	moveq	r6,11
8000a2c2:	f9 b7 00 01 	moveq	r7,1
8000a2c6:	2f f0       	sub	r0,-1
8000a2c8:	00 34       	cp.w	r4,r0
8000a2ca:	fe 99 fd 16 	brgt	80009cf6 <fatfs_add_file_entry+0x23e>
8000a2ce:	fe 9f fd f1 	bral	80009eb0 <fatfs_add_file_entry+0x3f8>
8000a2d2:	58 00       	cp.w	r0,0
8000a2d4:	e4 05 17 00 	moveq	r5,r2
8000a2d8:	f9 b6 00 0c 	moveq	r6,12
8000a2dc:	f9 b7 00 01 	moveq	r7,1
8000a2e0:	2f f0       	sub	r0,-1
8000a2e2:	00 34       	cp.w	r4,r0
8000a2e4:	fe 99 fd 19 	brgt	80009d16 <fatfs_add_file_entry+0x25e>
8000a2e8:	fe 9f fd e4 	bral	80009eb0 <fatfs_add_file_entry+0x3f8>
8000a2ec:	58 00       	cp.w	r0,0
8000a2ee:	e4 05 17 00 	moveq	r5,r2
8000a2f2:	f9 b6 00 0d 	moveq	r6,13
8000a2f6:	f9 b7 00 01 	moveq	r7,1
8000a2fa:	2f f0       	sub	r0,-1
8000a2fc:	00 34       	cp.w	r4,r0
8000a2fe:	fe 99 fd 1c 	brgt	80009d36 <fatfs_add_file_entry+0x27e>
8000a302:	fe 9f fd d7 	bral	80009eb0 <fatfs_add_file_entry+0x3f8>
8000a306:	58 00       	cp.w	r0,0
8000a308:	e4 05 17 00 	moveq	r5,r2
8000a30c:	f9 b6 00 0e 	moveq	r6,14
8000a310:	f9 b7 00 01 	moveq	r7,1
8000a314:	2f f0       	sub	r0,-1
8000a316:	00 34       	cp.w	r4,r0
8000a318:	fe 99 fd 1f 	brgt	80009d56 <fatfs_add_file_entry+0x29e>
8000a31c:	fe 9f fd ca 	bral	80009eb0 <fatfs_add_file_entry+0x3f8>
8000a320:	58 00       	cp.w	r0,0
8000a322:	e4 05 17 00 	moveq	r5,r2
8000a326:	f9 b6 00 0f 	moveq	r6,15
8000a32a:	f9 b7 00 01 	moveq	r7,1
8000a32e:	2f f0       	sub	r0,-1
8000a330:	00 34       	cp.w	r4,r0
8000a332:	fe 99 fc 16 	brgt	80009b5e <fatfs_add_file_entry+0xa6>
8000a336:	fe 9f fd bd 	bral	80009eb0 <fatfs_add_file_entry+0x3f8>
8000a33a:	e0 64 01 e0 	mov	r4,480
8000a33e:	fa c7 ff 9c 	sub	r7,sp,-100
8000a342:	41 78       	lddsp	r8,sp[0x5c]
8000a344:	41 5a       	lddsp	r10,sp[0x54]
8000a346:	41 6b       	lddsp	r11,sp[0x58]
8000a348:	41 4c       	lddsp	r12,sp[0x50]
8000a34a:	0e 99       	mov	r9,r7
8000a34c:	fe b0 f1 5e 	rcall	80008608 <fatfs_sfn_create_entry>
8000a350:	0e 9b       	mov	r11,r7
8000a352:	40 3c       	lddsp	r12,sp[0xc]
8000a354:	32 0a       	mov	r10,32
8000a356:	08 0c       	add	r12,r4
8000a358:	e0 a0 02 70 	rcall	8000a838 <memcpy>
8000a35c:	40 3b       	lddsp	r11,sp[0xc]
8000a35e:	e6 fc 02 44 	ld.w	r12,r3[580]
8000a362:	66 e8       	ld.w	r8,r3[0x38]
8000a364:	30 1a       	mov	r10,1
8000a366:	5d 18       	icall	r8
8000a368:	2d ed       	sub	sp,-136
8000a36a:	d8 32       	popm	r0-r7,pc
8000a36c:	18 98       	mov	r8,r12
8000a36e:	66 2b       	ld.w	r11,r3[0x8]
8000a370:	41 84       	lddsp	r4,sp[0x60]
8000a372:	fa ca ff 7c 	sub	r10,sp,-132
8000a376:	06 9c       	mov	r12,r3
8000a378:	50 08       	stdsp	sp[0x0],r8
8000a37a:	fe b0 fa f8 	rcall	8000996a <fatfs_find_blank_cluster>
8000a37e:	fe 90 fb b3 	breq	80009ae4 <fatfs_add_file_entry+0x2c>
8000a382:	42 1a       	lddsp	r10,sp[0x84]
8000a384:	40 2b       	lddsp	r11,sp[0x8]
8000a386:	06 9c       	mov	r12,r3
8000a388:	fe b0 f8 d6 	rcall	80009534 <fatfs_fat_add_cluster_to_chain>
8000a38c:	40 08       	lddsp	r8,sp[0x0]
8000a38e:	fe 90 fb ab 	breq	80009ae4 <fatfs_add_file_entry+0x2c>
8000a392:	e0 6a 02 00 	mov	r10,512
8000a396:	10 9b       	mov	r11,r8
8000a398:	40 3c       	lddsp	r12,sp[0xc]
8000a39a:	e0 a0 02 f3 	rcall	8000a980 <memset>
8000a39e:	07 8a       	ld.ub	r10,r3[0x0]
8000a3a0:	40 08       	lddsp	r8,sp[0x0]
8000a3a2:	f0 0a 18 00 	cp.b	r10,r8
8000a3a6:	c3 a0       	breq	8000a41a <fatfs_add_file_entry+0x962>
8000a3a8:	10 91       	mov	r1,r8
8000a3aa:	c0 88       	rjmp	8000a3ba <fatfs_add_file_entry+0x902>
8000a3ac:	2f f1       	sub	r1,-1
8000a3ae:	07 88       	ld.ub	r8,r3[0x0]
8000a3b0:	5c 51       	castu.b	r1
8000a3b2:	e2 08 18 00 	cp.b	r8,r1
8000a3b6:	e0 88 00 32 	brls	8000a41a <fatfs_add_file_entry+0x962>
8000a3ba:	02 9a       	mov	r10,r1
8000a3bc:	30 09       	mov	r9,0
8000a3be:	42 1b       	lddsp	r11,sp[0x84]
8000a3c0:	06 9c       	mov	r12,r3
8000a3c2:	fe b0 e8 a9 	rcall	80007514 <fatfs_write_sector>
8000a3c6:	cf 31       	brne	8000a3ac <fatfs_add_file_entry+0x8f4>
8000a3c8:	fe 9f fb 8e 	bral	80009ae4 <fatfs_add_file_entry+0x2c>
8000a3cc:	e0 64 00 80 	mov	r4,128
8000a3d0:	cb 7b       	rjmp	8000a33e <fatfs_add_file_entry+0x886>
8000a3d2:	34 04       	mov	r4,64
8000a3d4:	cb 5b       	rjmp	8000a33e <fatfs_add_file_entry+0x886>
8000a3d6:	32 04       	mov	r4,32
8000a3d8:	cb 3b       	rjmp	8000a33e <fatfs_add_file_entry+0x886>
8000a3da:	36 04       	mov	r4,96
8000a3dc:	cb 1b       	rjmp	8000a33e <fatfs_add_file_entry+0x886>
8000a3de:	e0 64 01 60 	mov	r4,352
8000a3e2:	ca eb       	rjmp	8000a33e <fatfs_add_file_entry+0x886>
8000a3e4:	e0 64 01 40 	mov	r4,320
8000a3e8:	ca bb       	rjmp	8000a33e <fatfs_add_file_entry+0x886>
8000a3ea:	e0 64 01 20 	mov	r4,288
8000a3ee:	ca 8b       	rjmp	8000a33e <fatfs_add_file_entry+0x886>
8000a3f0:	e0 64 01 00 	mov	r4,256
8000a3f4:	ca 5b       	rjmp	8000a33e <fatfs_add_file_entry+0x886>
8000a3f6:	e0 64 00 e0 	mov	r4,224
8000a3fa:	ca 2b       	rjmp	8000a33e <fatfs_add_file_entry+0x886>
8000a3fc:	e0 64 00 c0 	mov	r4,192
8000a400:	c9 fb       	rjmp	8000a33e <fatfs_add_file_entry+0x886>
8000a402:	e0 64 00 a0 	mov	r4,160
8000a406:	c9 cb       	rjmp	8000a33e <fatfs_add_file_entry+0x886>
8000a408:	e0 64 01 80 	mov	r4,384
8000a40c:	c9 9b       	rjmp	8000a33e <fatfs_add_file_entry+0x886>
8000a40e:	e0 64 01 c0 	mov	r4,448
8000a412:	c9 6b       	rjmp	8000a33e <fatfs_add_file_entry+0x886>
8000a414:	e0 64 01 a0 	mov	r4,416
8000a418:	c9 3b       	rjmp	8000a33e <fatfs_add_file_entry+0x886>
8000a41a:	58 07       	cp.w	r7,0
8000a41c:	e4 05 17 00 	moveq	r5,r2
8000a420:	ee 06 17 00 	moveq	r6,r7
8000a424:	fe 9f fd 47 	bral	80009eb2 <fatfs_add_file_entry+0x3fa>

8000a428 <fatfs_add_free_space>:
8000a428:	eb cd 40 fc 	pushm	r2-r7,lr
8000a42c:	20 1d       	sub	sp,4
8000a42e:	16 92       	mov	r2,r11
8000a430:	14 94       	mov	r4,r10
8000a432:	18 97       	mov	r7,r12
8000a434:	76 05       	ld.w	r5,r11[0x0]
8000a436:	78 98       	ld.w	r8,r12[0x24]
8000a438:	5b f8       	cp.w	r8,-1
8000a43a:	c0 40       	breq	8000a442 <fatfs_add_free_space+0x1a>
8000a43c:	3f fb       	mov	r11,-1
8000a43e:	fe b0 f6 97 	rcall	8000916c <fatfs_set_fs_info_next_free_cluster>
8000a442:	58 04       	cp.w	r4,0
8000a444:	c2 20       	breq	8000a488 <fatfs_add_free_space+0x60>
8000a446:	30 06       	mov	r6,0
8000a448:	1a 93       	mov	r3,sp
8000a44a:	c1 18       	rjmp	8000a46c <fatfs_add_free_space+0x44>
8000a44c:	40 0a       	lddsp	r10,sp[0x0]
8000a44e:	fe b0 f7 e3 	rcall	80009414 <fatfs_fat_set_cluster>
8000a452:	3f fa       	mov	r10,-1
8000a454:	40 0b       	lddsp	r11,sp[0x0]
8000a456:	0e 9c       	mov	r12,r7
8000a458:	fe b0 f7 de 	rcall	80009414 <fatfs_fat_set_cluster>
8000a45c:	40 05       	lddsp	r5,sp[0x0]
8000a45e:	58 06       	cp.w	r6,0
8000a460:	e5 f5 0a 00 	st.weq	r2[0x0],r5
8000a464:	2f f6       	sub	r6,-1
8000a466:	0c 34       	cp.w	r4,r6
8000a468:	e0 88 00 10 	brls	8000a488 <fatfs_add_free_space+0x60>
8000a46c:	6e 2b       	ld.w	r11,r7[0x8]
8000a46e:	1a 9a       	mov	r10,sp
8000a470:	0e 9c       	mov	r12,r7
8000a472:	fe b0 fa 7c 	rcall	8000996a <fatfs_find_blank_cluster>
8000a476:	0a 9b       	mov	r11,r5
8000a478:	18 98       	mov	r8,r12
8000a47a:	0e 9c       	mov	r12,r7
8000a47c:	58 08       	cp.w	r8,0
8000a47e:	ce 71       	brne	8000a44c <fatfs_add_free_space+0x24>
8000a480:	10 9c       	mov	r12,r8
8000a482:	2f fd       	sub	sp,-4
8000a484:	e3 cd 80 fc 	ldm	sp++,r2-r7,pc
8000a488:	2f fd       	sub	sp,-4
8000a48a:	e3 cf 90 fc 	ldm	sp++,r2-r7,pc,r12=1
8000a48e:	d7 03       	nop

8000a490 <fatfs_allocate_free_space>:
8000a490:	eb cd 40 f8 	pushm	r3-r7,lr
8000a494:	20 3d       	sub	sp,12
8000a496:	16 97       	mov	r7,r11
8000a498:	14 96       	mov	r6,r10
8000a49a:	18 95       	mov	r5,r12
8000a49c:	58 09       	cp.w	r9,0
8000a49e:	c3 c0       	breq	8000a516 <fatfs_allocate_free_space+0x86>
8000a4a0:	78 98       	ld.w	r8,r12[0x24]
8000a4a2:	5b f8       	cp.w	r8,-1
8000a4a4:	c0 60       	breq	8000a4b0 <fatfs_allocate_free_space+0x20>
8000a4a6:	50 09       	stdsp	sp[0x0],r9
8000a4a8:	3f fb       	mov	r11,-1
8000a4aa:	fe b0 f6 61 	rcall	8000916c <fatfs_set_fs_info_next_free_cluster>
8000a4ae:	40 09       	lddsp	r9,sp[0x0]
8000a4b0:	0b 88       	ld.ub	r8,r5[0x0]
8000a4b2:	a9 78       	lsl	r8,0x9
8000a4b4:	f2 08 0d 0a 	divu	r10,r9,r8
8000a4b8:	14 94       	mov	r4,r10
8000a4ba:	f4 08 02 48 	mul	r8,r10,r8
8000a4be:	12 38       	cp.w	r8,r9
8000a4c0:	f7 b4 01 ff 	subne	r4,-1
8000a4c4:	58 07       	cp.w	r7,0
8000a4c6:	c2 f1       	brne	8000a524 <fatfs_allocate_free_space+0x94>
8000a4c8:	6c 06       	ld.w	r6,r6[0x0]
8000a4ca:	50 26       	stdsp	sp[0x8],r6
8000a4cc:	6a 98       	ld.w	r8,r5[0x24]
8000a4ce:	5b f8       	cp.w	r8,-1
8000a4d0:	c0 50       	breq	8000a4da <fatfs_allocate_free_space+0x4a>
8000a4d2:	3f fb       	mov	r11,-1
8000a4d4:	0a 9c       	mov	r12,r5
8000a4d6:	fe b0 f6 4b 	rcall	8000916c <fatfs_set_fs_info_next_free_cluster>
8000a4da:	58 04       	cp.w	r4,0
8000a4dc:	c2 10       	breq	8000a51e <fatfs_allocate_free_space+0x8e>
8000a4de:	30 07       	mov	r7,0
8000a4e0:	fa c3 ff fc 	sub	r3,sp,-4
8000a4e4:	c1 28       	rjmp	8000a508 <fatfs_allocate_free_space+0x78>
8000a4e6:	40 1a       	lddsp	r10,sp[0x4]
8000a4e8:	0a 9c       	mov	r12,r5
8000a4ea:	fe b0 f7 95 	rcall	80009414 <fatfs_fat_set_cluster>
8000a4ee:	3f fa       	mov	r10,-1
8000a4f0:	40 1b       	lddsp	r11,sp[0x4]
8000a4f2:	0a 9c       	mov	r12,r5
8000a4f4:	fe b0 f7 90 	rcall	80009414 <fatfs_fat_set_cluster>
8000a4f8:	40 16       	lddsp	r6,sp[0x4]
8000a4fa:	58 07       	cp.w	r7,0
8000a4fc:	fb f6 0a 02 	st.weq	sp[0x8],r6
8000a500:	2f f7       	sub	r7,-1
8000a502:	0e 34       	cp.w	r4,r7
8000a504:	e0 88 00 0d 	brls	8000a51e <fatfs_allocate_free_space+0x8e>
8000a508:	6a 2b       	ld.w	r11,r5[0x8]
8000a50a:	06 9a       	mov	r10,r3
8000a50c:	0a 9c       	mov	r12,r5
8000a50e:	fe b0 fa 2e 	rcall	8000996a <fatfs_find_blank_cluster>
8000a512:	0c 9b       	mov	r11,r6
8000a514:	ce 91       	brne	8000a4e6 <fatfs_allocate_free_space+0x56>
8000a516:	30 0c       	mov	r12,0
8000a518:	2f dd       	sub	sp,-12
8000a51a:	e3 cd 80 f8 	ldm	sp++,r3-r7,pc
8000a51e:	2f dd       	sub	sp,-12
8000a520:	e3 cf 90 f8 	ldm	sp++,r3-r7,pc,r12=1
8000a524:	fa ca ff f8 	sub	r10,sp,-8
8000a528:	6a 2b       	ld.w	r11,r5[0x8]
8000a52a:	0a 9c       	mov	r12,r5
8000a52c:	fe b0 fa 1f 	rcall	8000996a <fatfs_find_blank_cluster>
8000a530:	cf 30       	breq	8000a516 <fatfs_allocate_free_space+0x86>
8000a532:	58 14       	cp.w	r4,1
8000a534:	c0 30       	breq	8000a53a <fatfs_allocate_free_space+0xaa>
8000a536:	40 26       	lddsp	r6,sp[0x8]
8000a538:	cc ab       	rjmp	8000a4cc <fatfs_allocate_free_space+0x3c>
8000a53a:	0a 9c       	mov	r12,r5
8000a53c:	3f fa       	mov	r10,-1
8000a53e:	40 2b       	lddsp	r11,sp[0x8]
8000a540:	fe b0 f7 6a 	rcall	80009414 <fatfs_fat_set_cluster>
8000a544:	40 28       	lddsp	r8,sp[0x8]
8000a546:	08 9c       	mov	r12,r4
8000a548:	8d 08       	st.w	r6[0x0],r8
8000a54a:	ce 7b       	rjmp	8000a518 <fatfs_allocate_free_space+0x88>

8000a54c <_stext>:
8000a54c:	e0 7d 00 00 	mov	sp,65536
8000a550:	fe c0 f9 50 	sub	r0,pc,-1712
8000a554:	e3 b0 00 01 	mtsr	0x4,r0
8000a558:	d5 53       	csrf	0x15
8000a55a:	30 80       	mov	r0,8
8000a55c:	33 01       	mov	r1,48
8000a55e:	02 30       	cp.w	r0,r1
8000a560:	c0 72       	brcc	8000a56e <idata_load_loop_end>
8000a562:	fe c2 ea a2 	sub	r2,pc,-5470

8000a566 <idata_load_loop>:
8000a566:	a5 05       	ld.d	r4,r2++
8000a568:	a1 24       	st.d	r0++,r4
8000a56a:	02 30       	cp.w	r0,r1
8000a56c:	cf d3       	brcs	8000a566 <idata_load_loop>

8000a56e <idata_load_loop_end>:
8000a56e:	33 00       	mov	r0,48
8000a570:	e0 61 2a 88 	mov	r1,10888
8000a574:	02 30       	cp.w	r0,r1
8000a576:	c0 62       	brcc	8000a582 <udata_clear_loop_end>
8000a578:	30 02       	mov	r2,0
8000a57a:	30 03       	mov	r3,0

8000a57c <udata_clear_loop>:
8000a57c:	a1 22       	st.d	r0++,r2
8000a57e:	02 30       	cp.w	r0,r1
8000a580:	cf e3       	brcs	8000a57c <udata_clear_loop>

8000a582 <udata_clear_loop_end>:
8000a582:	fe cf 44 12 	sub	pc,pc,17426
8000a586:	d7 03       	nop

8000a588 <__avr32_f32_to_s32>:
8000a588:	f7 dc c2 e8 	bfextu	r11,r12,0x17,0x8
8000a58c:	27 fb       	sub	r11,127
8000a58e:	5e 3d       	retlo	0
8000a590:	f6 0b 11 1f 	rsub	r11,r11,31
8000a594:	f8 0a 15 08 	lsl	r10,r12,0x8
8000a598:	bf ba       	sbr	r10,0x1f
8000a59a:	f4 0b 0a 4a 	lsr	r10,r10,r11
8000a59e:	a1 7c       	lsl	r12,0x1
8000a5a0:	5e 2a       	reths	r10
8000a5a2:	5c 3a       	neg	r10
8000a5a4:	5e fa       	retal	r10

8000a5a6 <__avr32_udiv64>:
8000a5a6:	d4 31       	pushm	r0-r7,lr
8000a5a8:	1a 97       	mov	r7,sp
8000a5aa:	20 2d       	sub	sp,8
8000a5ac:	10 9e       	mov	lr,r8
8000a5ae:	12 95       	mov	r5,r9
8000a5b0:	14 96       	mov	r6,r10
8000a5b2:	58 09       	cp.w	r9,0
8000a5b4:	c4 91       	brne	8000a646 <__avr32_udiv64+0xa0>
8000a5b6:	16 38       	cp.w	r8,r11
8000a5b8:	e0 88 00 57 	brls	8000a666 <__avr32_udiv64+0xc0>
8000a5bc:	f0 08 12 00 	clz	r8,r8
8000a5c0:	c0 d0       	breq	8000a5da <__avr32_udiv64+0x34>
8000a5c2:	f6 08 09 4b 	lsl	r11,r11,r8
8000a5c6:	f0 09 11 20 	rsub	r9,r8,32
8000a5ca:	fc 08 09 4e 	lsl	lr,lr,r8
8000a5ce:	f4 09 0a 49 	lsr	r9,r10,r9
8000a5d2:	f4 08 09 46 	lsl	r6,r10,r8
8000a5d6:	f3 eb 10 0b 	or	r11,r9,r11
8000a5da:	fc 05 16 10 	lsr	r5,lr,0x10
8000a5de:	f9 de c0 10 	bfextu	r12,lr,0x0,0x10
8000a5e2:	f6 05 0d 0a 	divu	r10,r11,r5
8000a5e6:	ec 08 16 10 	lsr	r8,r6,0x10
8000a5ea:	14 99       	mov	r9,r10
8000a5ec:	f1 eb 11 08 	or	r8,r8,r11<<0x10
8000a5f0:	b9 3a       	mul	r10,r12
8000a5f2:	10 3a       	cp.w	r10,r8
8000a5f4:	e0 88 00 0c 	brls	8000a60c <__avr32_udiv64+0x66>
8000a5f8:	20 19       	sub	r9,1
8000a5fa:	1c 08       	add	r8,lr
8000a5fc:	10 3e       	cp.w	lr,r8
8000a5fe:	e0 8b 00 07 	brhi	8000a60c <__avr32_udiv64+0x66>
8000a602:	10 3a       	cp.w	r10,r8
8000a604:	f7 b9 0b 01 	subhi	r9,1
8000a608:	f1 de eb 08 	addhi	r8,r8,lr
8000a60c:	f0 0a 01 0b 	sub	r11,r8,r10
8000a610:	ed d6 c0 10 	bfextu	r6,r6,0x0,0x10
8000a614:	f6 05 0d 0a 	divu	r10,r11,r5
8000a618:	ed eb 11 06 	or	r6,r6,r11<<0x10
8000a61c:	14 98       	mov	r8,r10
8000a61e:	f4 0c 02 4c 	mul	r12,r10,r12
8000a622:	0c 3c       	cp.w	r12,r6
8000a624:	e0 88 00 0a 	brls	8000a638 <__avr32_udiv64+0x92>
8000a628:	20 18       	sub	r8,1
8000a62a:	1c 06       	add	r6,lr
8000a62c:	0c 3e       	cp.w	lr,r6
8000a62e:	e0 8b 00 05 	brhi	8000a638 <__avr32_udiv64+0x92>
8000a632:	0c 3c       	cp.w	r12,r6
8000a634:	f7 b8 0b 01 	subhi	r8,1
8000a638:	f1 e9 11 0b 	or	r11,r8,r9<<0x10
8000a63c:	30 0c       	mov	r12,0
8000a63e:	16 9a       	mov	r10,r11
8000a640:	18 9b       	mov	r11,r12
8000a642:	2f ed       	sub	sp,-8
8000a644:	d8 32       	popm	r0-r7,pc
8000a646:	16 39       	cp.w	r9,r11
8000a648:	e0 8b 00 51 	brhi	8000a6ea <__avr32_udiv64+0x144>
8000a64c:	f2 0c 12 00 	clz	r12,r9
8000a650:	c5 31       	brne	8000a6f6 <__avr32_udiv64+0x150>
8000a652:	14 38       	cp.w	r8,r10
8000a654:	5f 89       	srls	r9
8000a656:	16 35       	cp.w	r5,r11
8000a658:	5f 38       	srlo	r8
8000a65a:	10 49       	or	r9,r8
8000a65c:	f8 09 18 00 	cp.b	r9,r12
8000a660:	c4 50       	breq	8000a6ea <__avr32_udiv64+0x144>
8000a662:	30 1b       	mov	r11,1
8000a664:	c4 58       	rjmp	8000a6ee <__avr32_udiv64+0x148>
8000a666:	58 08       	cp.w	r8,0
8000a668:	c0 51       	brne	8000a672 <__avr32_udiv64+0xcc>
8000a66a:	30 19       	mov	r9,1
8000a66c:	f2 08 0d 08 	divu	r8,r9,r8
8000a670:	10 9e       	mov	lr,r8
8000a672:	fc 08 12 00 	clz	r8,lr
8000a676:	e0 81 00 91 	brne	8000a798 <__avr32_udiv64+0x1f2>
8000a67a:	1c 1b       	sub	r11,lr
8000a67c:	fc 05 16 10 	lsr	r5,lr,0x10
8000a680:	f3 de c0 10 	bfextu	r9,lr,0x0,0x10
8000a684:	30 1c       	mov	r12,1
8000a686:	f6 05 0d 0a 	divu	r10,r11,r5
8000a68a:	ec 08 16 10 	lsr	r8,r6,0x10
8000a68e:	f4 09 02 43 	mul	r3,r10,r9
8000a692:	f1 eb 11 08 	or	r8,r8,r11<<0x10
8000a696:	14 9b       	mov	r11,r10
8000a698:	10 33       	cp.w	r3,r8
8000a69a:	e0 88 00 0c 	brls	8000a6b2 <__avr32_udiv64+0x10c>
8000a69e:	20 1b       	sub	r11,1
8000a6a0:	1c 08       	add	r8,lr
8000a6a2:	10 3e       	cp.w	lr,r8
8000a6a4:	e0 8b 00 07 	brhi	8000a6b2 <__avr32_udiv64+0x10c>
8000a6a8:	10 33       	cp.w	r3,r8
8000a6aa:	f7 bb 0b 01 	subhi	r11,1
8000a6ae:	f1 de eb 08 	addhi	r8,r8,lr
8000a6b2:	f0 03 01 03 	sub	r3,r8,r3
8000a6b6:	ed d6 c0 10 	bfextu	r6,r6,0x0,0x10
8000a6ba:	e6 05 0d 02 	divu	r2,r3,r5
8000a6be:	ed e3 11 06 	or	r6,r6,r3<<0x10
8000a6c2:	04 98       	mov	r8,r2
8000a6c4:	e4 09 02 49 	mul	r9,r2,r9
8000a6c8:	0c 39       	cp.w	r9,r6
8000a6ca:	e0 88 00 0a 	brls	8000a6de <__avr32_udiv64+0x138>
8000a6ce:	20 18       	sub	r8,1
8000a6d0:	1c 06       	add	r6,lr
8000a6d2:	0c 3e       	cp.w	lr,r6
8000a6d4:	e0 8b 00 05 	brhi	8000a6de <__avr32_udiv64+0x138>
8000a6d8:	0c 39       	cp.w	r9,r6
8000a6da:	f7 b8 0b 01 	subhi	r8,1
8000a6de:	f1 eb 11 0b 	or	r11,r8,r11<<0x10
8000a6e2:	16 9a       	mov	r10,r11
8000a6e4:	18 9b       	mov	r11,r12
8000a6e6:	2f ed       	sub	sp,-8
8000a6e8:	d8 32       	popm	r0-r7,pc
8000a6ea:	30 0b       	mov	r11,0
8000a6ec:	16 9c       	mov	r12,r11
8000a6ee:	16 9a       	mov	r10,r11
8000a6f0:	18 9b       	mov	r11,r12
8000a6f2:	2f ed       	sub	sp,-8
8000a6f4:	d8 32       	popm	r0-r7,pc
8000a6f6:	f2 0c 09 45 	lsl	r5,r9,r12
8000a6fa:	f8 0e 11 20 	rsub	lr,r12,32
8000a6fe:	f0 0c 09 43 	lsl	r3,r8,r12
8000a702:	f4 0e 0a 46 	lsr	r6,r10,lr
8000a706:	f0 0e 0a 48 	lsr	r8,r8,lr
8000a70a:	f6 0e 0a 4e 	lsr	lr,r11,lr
8000a70e:	0a 48       	or	r8,r5
8000a710:	f0 01 16 10 	lsr	r1,r8,0x10
8000a714:	fc 01 0d 04 	divu	r4,lr,r1
8000a718:	ee e5 ff f8 	st.d	r7[-8],r4
8000a71c:	f6 0c 09 49 	lsl	r9,r11,r12
8000a720:	eb d8 c0 10 	bfextu	r5,r8,0x0,0x10
8000a724:	ed e9 10 09 	or	r9,r6,r9
8000a728:	08 96       	mov	r6,r4
8000a72a:	f2 0e 16 10 	lsr	lr,r9,0x10
8000a72e:	ee f4 ff f8 	ld.w	r4,r7[-8]
8000a732:	ec 05 02 4b 	mul	r11,r6,r5
8000a736:	fd e4 11 0e 	or	lr,lr,r4<<0x10
8000a73a:	1c 3b       	cp.w	r11,lr
8000a73c:	e0 88 00 07 	brls	8000a74a <__avr32_udiv64+0x1a4>
8000a740:	20 16       	sub	r6,1
8000a742:	10 0e       	add	lr,r8
8000a744:	1c 38       	cp.w	r8,lr
8000a746:	e0 88 00 6d 	brls	8000a820 <__avr32_udiv64+0x27a>
8000a74a:	16 1e       	sub	lr,r11
8000a74c:	f3 d9 c0 10 	bfextu	r9,r9,0x0,0x10
8000a750:	fc 01 0d 00 	divu	r0,lr,r1
8000a754:	f3 e1 11 09 	or	r9,r9,r1<<0x10
8000a758:	00 9b       	mov	r11,r0
8000a75a:	e0 05 02 4e 	mul	lr,r0,r5
8000a75e:	12 3e       	cp.w	lr,r9
8000a760:	e0 88 00 07 	brls	8000a76e <__avr32_udiv64+0x1c8>
8000a764:	20 1b       	sub	r11,1
8000a766:	10 09       	add	r9,r8
8000a768:	12 38       	cp.w	r8,r9
8000a76a:	e0 88 00 55 	brls	8000a814 <__avr32_udiv64+0x26e>
8000a76e:	f7 e6 11 0b 	or	r11,r11,r6<<0x10
8000a772:	1c 19       	sub	r9,lr
8000a774:	f6 03 06 42 	mulu.d	r2,r11,r3
8000a778:	06 39       	cp.w	r9,r3
8000a77a:	c0 93       	brcs	8000a78c <__avr32_udiv64+0x1e6>
8000a77c:	5f 09       	sreq	r9
8000a77e:	f4 0c 09 4c 	lsl	r12,r10,r12
8000a782:	04 3c       	cp.w	r12,r2
8000a784:	5f 38       	srlo	r8
8000a786:	f3 e8 00 08 	and	r8,r9,r8
8000a78a:	c0 20       	breq	8000a78e <__avr32_udiv64+0x1e8>
8000a78c:	20 1b       	sub	r11,1
8000a78e:	30 0c       	mov	r12,0
8000a790:	16 9a       	mov	r10,r11
8000a792:	18 9b       	mov	r11,r12
8000a794:	2f ed       	sub	sp,-8
8000a796:	d8 32       	popm	r0-r7,pc
8000a798:	f6 08 09 49 	lsl	r9,r11,r8
8000a79c:	fc 08 09 4e 	lsl	lr,lr,r8
8000a7a0:	f0 01 11 20 	rsub	r1,r8,32
8000a7a4:	fc 05 16 10 	lsr	r5,lr,0x10
8000a7a8:	f4 01 0a 42 	lsr	r2,r10,r1
8000a7ac:	f6 01 0a 41 	lsr	r1,r11,r1
8000a7b0:	12 42       	or	r2,r9
8000a7b2:	e2 05 0d 00 	divu	r0,r1,r5
8000a7b6:	f3 de c0 10 	bfextu	r9,lr,0x0,0x10
8000a7ba:	e4 06 16 10 	lsr	r6,r2,0x10
8000a7be:	00 93       	mov	r3,r0
8000a7c0:	ed e1 11 06 	or	r6,r6,r1<<0x10
8000a7c4:	e0 09 02 4c 	mul	r12,r0,r9
8000a7c8:	0c 3c       	cp.w	r12,r6
8000a7ca:	e0 88 00 07 	brls	8000a7d8 <__avr32_udiv64+0x232>
8000a7ce:	20 13       	sub	r3,1
8000a7d0:	1c 06       	add	r6,lr
8000a7d2:	0c 3e       	cp.w	lr,r6
8000a7d4:	e0 88 00 2c 	brls	8000a82c <__avr32_udiv64+0x286>
8000a7d8:	ec 0c 01 01 	sub	r1,r6,r12
8000a7dc:	f7 d2 c0 10 	bfextu	r11,r2,0x0,0x10
8000a7e0:	e2 05 0d 00 	divu	r0,r1,r5
8000a7e4:	f7 e1 11 0b 	or	r11,r11,r1<<0x10
8000a7e8:	00 9c       	mov	r12,r0
8000a7ea:	e0 09 02 41 	mul	r1,r0,r9
8000a7ee:	16 31       	cp.w	r1,r11
8000a7f0:	e0 88 00 0c 	brls	8000a808 <__avr32_udiv64+0x262>
8000a7f4:	20 1c       	sub	r12,1
8000a7f6:	1c 0b       	add	r11,lr
8000a7f8:	16 3e       	cp.w	lr,r11
8000a7fa:	e0 8b 00 07 	brhi	8000a808 <__avr32_udiv64+0x262>
8000a7fe:	16 31       	cp.w	r1,r11
8000a800:	f7 bc 0b 01 	subhi	r12,1
8000a804:	f7 de eb 0b 	addhi	r11,r11,lr
8000a808:	f4 08 09 46 	lsl	r6,r10,r8
8000a80c:	02 1b       	sub	r11,r1
8000a80e:	f9 e3 11 0c 	or	r12,r12,r3<<0x10
8000a812:	c3 ab       	rjmp	8000a686 <__avr32_udiv64+0xe0>
8000a814:	12 3e       	cp.w	lr,r9
8000a816:	f3 d8 eb 09 	addhi	r9,r9,r8
8000a81a:	f7 bb 0b 01 	subhi	r11,1
8000a81e:	ca 8b       	rjmp	8000a76e <__avr32_udiv64+0x1c8>
8000a820:	1c 3b       	cp.w	r11,lr
8000a822:	f7 b6 0b 01 	subhi	r6,1
8000a826:	fd d8 eb 0e 	addhi	lr,lr,r8
8000a82a:	c9 0b       	rjmp	8000a74a <__avr32_udiv64+0x1a4>
8000a82c:	0c 3c       	cp.w	r12,r6
8000a82e:	f7 b3 0b 01 	subhi	r3,1
8000a832:	ed de eb 06 	addhi	r6,r6,lr
8000a836:	cd 1b       	rjmp	8000a7d8 <__avr32_udiv64+0x232>

8000a838 <memcpy>:
8000a838:	58 8a       	cp.w	r10,8
8000a83a:	c2 f5       	brlt	8000a898 <memcpy+0x60>
8000a83c:	f9 eb 10 09 	or	r9,r12,r11
8000a840:	e2 19 00 03 	andl	r9,0x3,COH
8000a844:	e0 81 00 97 	brne	8000a972 <memcpy+0x13a>
8000a848:	e0 4a 00 20 	cp.w	r10,32
8000a84c:	c3 b4       	brge	8000a8c2 <memcpy+0x8a>
8000a84e:	f4 08 14 02 	asr	r8,r10,0x2
8000a852:	f0 09 11 08 	rsub	r9,r8,8
8000a856:	fe 09 00 2f 	add	pc,pc,r9<<0x2
8000a85a:	76 69       	ld.w	r9,r11[0x18]
8000a85c:	99 69       	st.w	r12[0x18],r9
8000a85e:	76 59       	ld.w	r9,r11[0x14]
8000a860:	99 59       	st.w	r12[0x14],r9
8000a862:	76 49       	ld.w	r9,r11[0x10]
8000a864:	99 49       	st.w	r12[0x10],r9
8000a866:	76 39       	ld.w	r9,r11[0xc]
8000a868:	99 39       	st.w	r12[0xc],r9
8000a86a:	76 29       	ld.w	r9,r11[0x8]
8000a86c:	99 29       	st.w	r12[0x8],r9
8000a86e:	76 19       	ld.w	r9,r11[0x4]
8000a870:	99 19       	st.w	r12[0x4],r9
8000a872:	76 09       	ld.w	r9,r11[0x0]
8000a874:	99 09       	st.w	r12[0x0],r9
8000a876:	f6 08 00 2b 	add	r11,r11,r8<<0x2
8000a87a:	f8 08 00 28 	add	r8,r12,r8<<0x2
8000a87e:	e0 1a 00 03 	andl	r10,0x3
8000a882:	f4 0a 11 04 	rsub	r10,r10,4
8000a886:	fe 0a 00 2f 	add	pc,pc,r10<<0x2
8000a88a:	17 a9       	ld.ub	r9,r11[0x2]
8000a88c:	b0 a9       	st.b	r8[0x2],r9
8000a88e:	17 99       	ld.ub	r9,r11[0x1]
8000a890:	b0 99       	st.b	r8[0x1],r9
8000a892:	17 89       	ld.ub	r9,r11[0x0]
8000a894:	b0 89       	st.b	r8[0x0],r9
8000a896:	5e fc       	retal	r12
8000a898:	f4 0a 11 09 	rsub	r10,r10,9
8000a89c:	fe 0a 00 2f 	add	pc,pc,r10<<0x2
8000a8a0:	17 f9       	ld.ub	r9,r11[0x7]
8000a8a2:	b8 f9       	st.b	r12[0x7],r9
8000a8a4:	17 e9       	ld.ub	r9,r11[0x6]
8000a8a6:	b8 e9       	st.b	r12[0x6],r9
8000a8a8:	17 d9       	ld.ub	r9,r11[0x5]
8000a8aa:	b8 d9       	st.b	r12[0x5],r9
8000a8ac:	17 c9       	ld.ub	r9,r11[0x4]
8000a8ae:	b8 c9       	st.b	r12[0x4],r9
8000a8b0:	17 b9       	ld.ub	r9,r11[0x3]
8000a8b2:	b8 b9       	st.b	r12[0x3],r9
8000a8b4:	17 a9       	ld.ub	r9,r11[0x2]
8000a8b6:	b8 a9       	st.b	r12[0x2],r9
8000a8b8:	17 99       	ld.ub	r9,r11[0x1]
8000a8ba:	b8 99       	st.b	r12[0x1],r9
8000a8bc:	17 89       	ld.ub	r9,r11[0x0]
8000a8be:	b8 89       	st.b	r12[0x0],r9
8000a8c0:	5e fc       	retal	r12
8000a8c2:	eb cd 40 c0 	pushm	r6-r7,lr
8000a8c6:	18 99       	mov	r9,r12
8000a8c8:	22 0a       	sub	r10,32
8000a8ca:	b7 07       	ld.d	r6,r11++
8000a8cc:	b3 26       	st.d	r9++,r6
8000a8ce:	b7 07       	ld.d	r6,r11++
8000a8d0:	b3 26       	st.d	r9++,r6
8000a8d2:	b7 07       	ld.d	r6,r11++
8000a8d4:	b3 26       	st.d	r9++,r6
8000a8d6:	b7 07       	ld.d	r6,r11++
8000a8d8:	b3 26       	st.d	r9++,r6
8000a8da:	22 0a       	sub	r10,32
8000a8dc:	cf 74       	brge	8000a8ca <memcpy+0x92>
8000a8de:	2f 0a       	sub	r10,-16
8000a8e0:	c0 65       	brlt	8000a8ec <memcpy+0xb4>
8000a8e2:	b7 07       	ld.d	r6,r11++
8000a8e4:	b3 26       	st.d	r9++,r6
8000a8e6:	b7 07       	ld.d	r6,r11++
8000a8e8:	b3 26       	st.d	r9++,r6
8000a8ea:	21 0a       	sub	r10,16
8000a8ec:	5c 3a       	neg	r10
8000a8ee:	fe 0a 00 3f 	add	pc,pc,r10<<0x3
8000a8f2:	d7 03       	nop
8000a8f4:	d7 03       	nop
8000a8f6:	f7 36 00 0e 	ld.ub	r6,r11[14]
8000a8fa:	f3 66 00 0e 	st.b	r9[14],r6
8000a8fe:	f7 36 00 0d 	ld.ub	r6,r11[13]
8000a902:	f3 66 00 0d 	st.b	r9[13],r6
8000a906:	f7 36 00 0c 	ld.ub	r6,r11[12]
8000a90a:	f3 66 00 0c 	st.b	r9[12],r6
8000a90e:	f7 36 00 0b 	ld.ub	r6,r11[11]
8000a912:	f3 66 00 0b 	st.b	r9[11],r6
8000a916:	f7 36 00 0a 	ld.ub	r6,r11[10]
8000a91a:	f3 66 00 0a 	st.b	r9[10],r6
8000a91e:	f7 36 00 09 	ld.ub	r6,r11[9]
8000a922:	f3 66 00 09 	st.b	r9[9],r6
8000a926:	f7 36 00 08 	ld.ub	r6,r11[8]
8000a92a:	f3 66 00 08 	st.b	r9[8],r6
8000a92e:	f7 36 00 07 	ld.ub	r6,r11[7]
8000a932:	f3 66 00 07 	st.b	r9[7],r6
8000a936:	f7 36 00 06 	ld.ub	r6,r11[6]
8000a93a:	f3 66 00 06 	st.b	r9[6],r6
8000a93e:	f7 36 00 05 	ld.ub	r6,r11[5]
8000a942:	f3 66 00 05 	st.b	r9[5],r6
8000a946:	f7 36 00 04 	ld.ub	r6,r11[4]
8000a94a:	f3 66 00 04 	st.b	r9[4],r6
8000a94e:	f7 36 00 03 	ld.ub	r6,r11[3]
8000a952:	f3 66 00 03 	st.b	r9[3],r6
8000a956:	f7 36 00 02 	ld.ub	r6,r11[2]
8000a95a:	f3 66 00 02 	st.b	r9[2],r6
8000a95e:	f7 36 00 01 	ld.ub	r6,r11[1]
8000a962:	f3 66 00 01 	st.b	r9[1],r6
8000a966:	f7 36 00 00 	ld.ub	r6,r11[0]
8000a96a:	f3 66 00 00 	st.b	r9[0],r6
8000a96e:	e3 cd 80 c0 	ldm	sp++,r6-r7,pc
8000a972:	20 1a       	sub	r10,1
8000a974:	f6 0a 07 09 	ld.ub	r9,r11[r10]
8000a978:	f8 0a 0b 09 	st.b	r12[r10],r9
8000a97c:	cf b1       	brne	8000a972 <memcpy+0x13a>
8000a97e:	5e fc       	retal	r12

8000a980 <memset>:
8000a980:	18 98       	mov	r8,r12
8000a982:	c0 38       	rjmp	8000a988 <memset+0x8>
8000a984:	10 cb       	st.b	r8++,r11
8000a986:	20 1a       	sub	r10,1
8000a988:	58 0a       	cp.w	r10,0
8000a98a:	cf d1       	brne	8000a984 <memset+0x4>
8000a98c:	5e fc       	retal	r12
8000a98e:	d7 03       	nop

8000a990 <strcmp>:
8000a990:	f9 eb 10 0a 	or	r10,r12,r11
8000a994:	e2 1a 00 03 	andl	r10,0x3,COH
8000a998:	c3 41       	brne	8000aa00 <strcmp+0x70>
8000a99a:	78 0a       	ld.w	r10,r12[0x0]
8000a99c:	76 09       	ld.w	r9,r11[0x0]
8000a99e:	5c ea       	tnbz	r10
8000a9a0:	c1 70       	breq	8000a9ce <strcmp+0x3e>
8000a9a2:	12 3a       	cp.w	r10,r9
8000a9a4:	c1 51       	brne	8000a9ce <strcmp+0x3e>
8000a9a6:	78 1a       	ld.w	r10,r12[0x4]
8000a9a8:	76 19       	ld.w	r9,r11[0x4]
8000a9aa:	5c ea       	tnbz	r10
8000a9ac:	c1 10       	breq	8000a9ce <strcmp+0x3e>
8000a9ae:	12 3a       	cp.w	r10,r9
8000a9b0:	c0 f1       	brne	8000a9ce <strcmp+0x3e>
8000a9b2:	78 2a       	ld.w	r10,r12[0x8]
8000a9b4:	76 29       	ld.w	r9,r11[0x8]
8000a9b6:	5c ea       	tnbz	r10
8000a9b8:	c0 b0       	breq	8000a9ce <strcmp+0x3e>
8000a9ba:	12 3a       	cp.w	r10,r9
8000a9bc:	c0 91       	brne	8000a9ce <strcmp+0x3e>
8000a9be:	78 3a       	ld.w	r10,r12[0xc]
8000a9c0:	76 39       	ld.w	r9,r11[0xc]
8000a9c2:	5c ea       	tnbz	r10
8000a9c4:	c0 50       	breq	8000a9ce <strcmp+0x3e>
8000a9c6:	2f 0c       	sub	r12,-16
8000a9c8:	2f 0b       	sub	r11,-16
8000a9ca:	12 3a       	cp.w	r10,r9
8000a9cc:	ce 70       	breq	8000a99a <strcmp+0xa>
8000a9ce:	f9 da c3 08 	bfextu	r12,r10,0x18,0x8
8000a9d2:	f7 d9 c3 08 	bfextu	r11,r9,0x18,0x8
8000a9d6:	5e 0c       	reteq	r12
8000a9d8:	16 1c       	sub	r12,r11
8000a9da:	5e 1c       	retne	r12
8000a9dc:	f9 da c2 08 	bfextu	r12,r10,0x10,0x8
8000a9e0:	f7 d9 c2 08 	bfextu	r11,r9,0x10,0x8
8000a9e4:	5e 0c       	reteq	r12
8000a9e6:	16 1c       	sub	r12,r11
8000a9e8:	5e 1c       	retne	r12
8000a9ea:	f9 da c1 08 	bfextu	r12,r10,0x8,0x8
8000a9ee:	f7 d9 c1 08 	bfextu	r11,r9,0x8,0x8
8000a9f2:	5e 0c       	reteq	r12
8000a9f4:	16 1c       	sub	r12,r11
8000a9f6:	5e 1c       	retne	r12
8000a9f8:	5c 5a       	castu.b	r10
8000a9fa:	5c 59       	castu.b	r9
8000a9fc:	12 1a       	sub	r10,r9
8000a9fe:	5e fa       	retal	r10
8000aa00:	17 8a       	ld.ub	r10,r11[0x0]
8000aa02:	19 89       	ld.ub	r9,r12[0x0]
8000aa04:	58 0a       	cp.w	r10,0
8000aa06:	5e 09       	reteq	r9
8000aa08:	14 19       	sub	r9,r10
8000aa0a:	5e 19       	retne	r9
8000aa0c:	17 9a       	ld.ub	r10,r11[0x1]
8000aa0e:	19 99       	ld.ub	r9,r12[0x1]
8000aa10:	58 0a       	cp.w	r10,0
8000aa12:	5e 09       	reteq	r9
8000aa14:	14 19       	sub	r9,r10
8000aa16:	5e 19       	retne	r9
8000aa18:	17 aa       	ld.ub	r10,r11[0x2]
8000aa1a:	19 a9       	ld.ub	r9,r12[0x2]
8000aa1c:	58 0a       	cp.w	r10,0
8000aa1e:	5e 09       	reteq	r9
8000aa20:	14 19       	sub	r9,r10
8000aa22:	5e 19       	retne	r9
8000aa24:	17 ba       	ld.ub	r10,r11[0x3]
8000aa26:	19 b9       	ld.ub	r9,r12[0x3]
8000aa28:	58 0a       	cp.w	r10,0
8000aa2a:	5e 09       	reteq	r9
8000aa2c:	14 19       	sub	r9,r10
8000aa2e:	5e 19       	retne	r9
8000aa30:	2f cb       	sub	r11,-4
8000aa32:	2f cc       	sub	r12,-4
8000aa34:	ce 6b       	rjmp	8000aa00 <strcmp+0x70>
8000aa36:	d7 03       	nop

8000aa38 <strcpy>:
8000aa38:	30 08       	mov	r8,0
8000aa3a:	f6 08 07 09 	ld.ub	r9,r11[r8]
8000aa3e:	f8 08 0b 09 	st.b	r12[r8],r9
8000aa42:	2f f8       	sub	r8,-1
8000aa44:	58 09       	cp.w	r9,0
8000aa46:	cf a1       	brne	8000aa3a <strcpy+0x2>
8000aa48:	5e fc       	retal	r12

8000aa4a <strlen>:
8000aa4a:	30 09       	mov	r9,0
8000aa4c:	18 98       	mov	r8,r12
8000aa4e:	c0 28       	rjmp	8000aa52 <strlen+0x8>
8000aa50:	2f f8       	sub	r8,-1
8000aa52:	11 8a       	ld.ub	r10,r8[0x0]
8000aa54:	f2 0a 18 00 	cp.b	r10,r9
8000aa58:	cf c1       	brne	8000aa50 <strlen+0x6>
8000aa5a:	f0 0c 01 0c 	sub	r12,r8,r12
8000aa5e:	5e fc       	retal	r12

8000aa60 <strncat>:
8000aa60:	d4 01       	pushm	lr
8000aa62:	30 09       	mov	r9,0
8000aa64:	18 98       	mov	r8,r12
8000aa66:	c0 28       	rjmp	8000aa6a <strncat+0xa>
8000aa68:	2f f8       	sub	r8,-1
8000aa6a:	11 8e       	ld.ub	lr,r8[0x0]
8000aa6c:	f2 0e 18 00 	cp.b	lr,r9
8000aa70:	cf c1       	brne	8000aa68 <strncat+0x8>
8000aa72:	c0 78       	rjmp	8000aa80 <strncat+0x20>
8000aa74:	20 1a       	sub	r10,1
8000aa76:	2f f8       	sub	r8,-1
8000aa78:	2f fb       	sub	r11,-1
8000aa7a:	58 0a       	cp.w	r10,0
8000aa7c:	f1 fa 0e 00 	st.beq	r8[0x0],r10
8000aa80:	58 0a       	cp.w	r10,0
8000aa82:	c0 50       	breq	8000aa8c <strncat+0x2c>
8000aa84:	17 89       	ld.ub	r9,r11[0x0]
8000aa86:	b0 89       	st.b	r8[0x0],r9
8000aa88:	58 09       	cp.w	r9,0
8000aa8a:	cf 51       	brne	8000aa74 <strncat+0x14>
8000aa8c:	d8 02       	popm	pc

8000aa8e <strncmp>:
8000aa8e:	58 0a       	cp.w	r10,0
8000aa90:	c0 81       	brne	8000aaa0 <strncmp+0x12>
8000aa92:	5e fa       	retal	r10
8000aa94:	58 0a       	cp.w	r10,0
8000aa96:	c0 b0       	breq	8000aaac <strncmp+0x1e>
8000aa98:	58 08       	cp.w	r8,0
8000aa9a:	c0 90       	breq	8000aaac <strncmp+0x1e>
8000aa9c:	2f fc       	sub	r12,-1
8000aa9e:	2f fb       	sub	r11,-1
8000aaa0:	20 1a       	sub	r10,1
8000aaa2:	19 88       	ld.ub	r8,r12[0x0]
8000aaa4:	17 89       	ld.ub	r9,r11[0x0]
8000aaa6:	f0 09 18 00 	cp.b	r9,r8
8000aaaa:	cf 50       	breq	8000aa94 <strncmp+0x6>
8000aaac:	19 8c       	ld.ub	r12,r12[0x0]
8000aaae:	17 88       	ld.ub	r8,r11[0x0]
8000aab0:	10 1c       	sub	r12,r8
8000aab2:	5e fc       	retal	r12

8000aab4 <strncpy>:
8000aab4:	30 08       	mov	r8,0
8000aab6:	10 3a       	cp.w	r10,r8
8000aab8:	5e 0c       	reteq	r12
8000aaba:	f6 08 07 09 	ld.ub	r9,r11[r8]
8000aabe:	f8 08 0b 09 	st.b	r12[r8],r9
8000aac2:	2f f8       	sub	r8,-1
8000aac4:	58 09       	cp.w	r9,0
8000aac6:	cf 81       	brne	8000aab6 <strncpy+0x2>
8000aac8:	10 3a       	cp.w	r10,r8
8000aaca:	5e 0c       	reteq	r12
8000aacc:	f8 08 0b 09 	st.b	r12[r8],r9
8000aad0:	2f f8       	sub	r8,-1
8000aad2:	cf bb       	rjmp	8000aac8 <strncpy+0x14>

Disassembly of section .exception:

8000ac00 <_evba>:
8000ac00:	c0 08       	rjmp	8000ac00 <_evba>
	...

8000ac04 <_handle_TLB_Multiple_Hit>:
8000ac04:	c0 08       	rjmp	8000ac04 <_handle_TLB_Multiple_Hit>
	...

8000ac08 <_handle_Bus_Error_Data_Fetch>:
8000ac08:	c0 08       	rjmp	8000ac08 <_handle_Bus_Error_Data_Fetch>
	...

8000ac0c <_handle_Bus_Error_Instruction_Fetch>:
8000ac0c:	c0 08       	rjmp	8000ac0c <_handle_Bus_Error_Instruction_Fetch>
	...

8000ac10 <_handle_NMI>:
8000ac10:	c0 08       	rjmp	8000ac10 <_handle_NMI>
	...

8000ac14 <_handle_Instruction_Address>:
8000ac14:	c0 08       	rjmp	8000ac14 <_handle_Instruction_Address>
	...

8000ac18 <_handle_ITLB_Protection>:
8000ac18:	c0 08       	rjmp	8000ac18 <_handle_ITLB_Protection>
	...

8000ac1c <_handle_Breakpoint>:
8000ac1c:	c0 08       	rjmp	8000ac1c <_handle_Breakpoint>
	...

8000ac20 <_handle_Illegal_Opcode>:
8000ac20:	c0 08       	rjmp	8000ac20 <_handle_Illegal_Opcode>
	...

8000ac24 <_handle_Unimplemented_Instruction>:
8000ac24:	c0 08       	rjmp	8000ac24 <_handle_Unimplemented_Instruction>
	...

8000ac28 <_handle_Privilege_Violation>:
8000ac28:	c0 08       	rjmp	8000ac28 <_handle_Privilege_Violation>
	...

8000ac2c <_handle_Floating_Point>:
8000ac2c:	c0 08       	rjmp	8000ac2c <_handle_Floating_Point>
	...

8000ac30 <_handle_Coprocessor_Absent>:
8000ac30:	c0 08       	rjmp	8000ac30 <_handle_Coprocessor_Absent>
	...

8000ac34 <_handle_Data_Address_Read>:
8000ac34:	c0 08       	rjmp	8000ac34 <_handle_Data_Address_Read>
	...

8000ac38 <_handle_Data_Address_Write>:
8000ac38:	c0 08       	rjmp	8000ac38 <_handle_Data_Address_Write>
	...

8000ac3c <_handle_DTLB_Protection_Read>:
8000ac3c:	c0 08       	rjmp	8000ac3c <_handle_DTLB_Protection_Read>
	...

8000ac40 <_handle_DTLB_Protection_Write>:
8000ac40:	c0 08       	rjmp	8000ac40 <_handle_DTLB_Protection_Write>
	...

8000ac44 <_handle_DTLB_Modified>:
8000ac44:	c0 08       	rjmp	8000ac44 <_handle_DTLB_Modified>
	...

8000ac50 <_handle_ITLB_Miss>:
8000ac50:	c0 08       	rjmp	8000ac50 <_handle_ITLB_Miss>
	...

8000ac60 <_handle_DTLB_Miss_Read>:
8000ac60:	c0 08       	rjmp	8000ac60 <_handle_DTLB_Miss_Read>
	...

8000ac70 <_handle_DTLB_Miss_Write>:
8000ac70:	c0 08       	rjmp	8000ac70 <_handle_DTLB_Miss_Write>
	...

8000ad00 <_handle_Supervisor_Call>:
8000ad00:	c0 08       	rjmp	8000ad00 <_handle_Supervisor_Call>
8000ad02:	d7 03       	nop

8000ad04 <_int0>:
8000ad04:	30 0c       	mov	r12,0
8000ad06:	fe b0 bb 09 	rcall	80002318 <_get_interrupt_handler>
8000ad0a:	58 0c       	cp.w	r12,0
8000ad0c:	f8 0f 17 10 	movne	pc,r12
8000ad10:	d6 03       	rete

8000ad12 <_int1>:
8000ad12:	30 1c       	mov	r12,1
8000ad14:	fe b0 bb 02 	rcall	80002318 <_get_interrupt_handler>
8000ad18:	58 0c       	cp.w	r12,0
8000ad1a:	f8 0f 17 10 	movne	pc,r12
8000ad1e:	d6 03       	rete

8000ad20 <_int2>:
8000ad20:	30 2c       	mov	r12,2
8000ad22:	fe b0 ba fb 	rcall	80002318 <_get_interrupt_handler>
8000ad26:	58 0c       	cp.w	r12,0
8000ad28:	f8 0f 17 10 	movne	pc,r12
8000ad2c:	d6 03       	rete

8000ad2e <_int3>:
8000ad2e:	30 3c       	mov	r12,3
8000ad30:	fe b0 ba f4 	rcall	80002318 <_get_interrupt_handler>
8000ad34:	58 0c       	cp.w	r12,0
8000ad36:	f8 0f 17 10 	movne	pc,r12
8000ad3a:	d6 03       	rete
8000ad3c:	d7 03       	nop
8000ad3e:	d7 03       	nop
8000ad40:	d7 03       	nop
8000ad42:	d7 03       	nop
8000ad44:	d7 03       	nop
8000ad46:	d7 03       	nop
8000ad48:	d7 03       	nop
8000ad4a:	d7 03       	nop
8000ad4c:	d7 03       	nop
8000ad4e:	d7 03       	nop
8000ad50:	d7 03       	nop
8000ad52:	d7 03       	nop
8000ad54:	d7 03       	nop
8000ad56:	d7 03       	nop
8000ad58:	d7 03       	nop
8000ad5a:	d7 03       	nop
8000ad5c:	d7 03       	nop
8000ad5e:	d7 03       	nop
8000ad60:	d7 03       	nop
8000ad62:	d7 03       	nop
8000ad64:	d7 03       	nop
8000ad66:	d7 03       	nop
8000ad68:	d7 03       	nop
8000ad6a:	d7 03       	nop
8000ad6c:	d7 03       	nop
8000ad6e:	d7 03       	nop
8000ad70:	d7 03       	nop
8000ad72:	d7 03       	nop
8000ad74:	d7 03       	nop
8000ad76:	d7 03       	nop
8000ad78:	d7 03       	nop
8000ad7a:	d7 03       	nop
8000ad7c:	d7 03       	nop
8000ad7e:	d7 03       	nop
8000ad80:	d7 03       	nop
8000ad82:	d7 03       	nop
8000ad84:	d7 03       	nop
8000ad86:	d7 03       	nop
8000ad88:	d7 03       	nop
8000ad8a:	d7 03       	nop
8000ad8c:	d7 03       	nop
8000ad8e:	d7 03       	nop
8000ad90:	d7 03       	nop
8000ad92:	d7 03       	nop
8000ad94:	d7 03       	nop
8000ad96:	d7 03       	nop
8000ad98:	d7 03       	nop
8000ad9a:	d7 03       	nop
8000ad9c:	d7 03       	nop
8000ad9e:	d7 03       	nop
8000ada0:	d7 03       	nop
8000ada2:	d7 03       	nop
8000ada4:	d7 03       	nop
8000ada6:	d7 03       	nop
8000ada8:	d7 03       	nop
8000adaa:	d7 03       	nop
8000adac:	d7 03       	nop
8000adae:	d7 03       	nop
8000adb0:	d7 03       	nop
8000adb2:	d7 03       	nop
8000adb4:	d7 03       	nop
8000adb6:	d7 03       	nop
8000adb8:	d7 03       	nop
8000adba:	d7 03       	nop
8000adbc:	d7 03       	nop
8000adbe:	d7 03       	nop
8000adc0:	d7 03       	nop
8000adc2:	d7 03       	nop
8000adc4:	d7 03       	nop
8000adc6:	d7 03       	nop
8000adc8:	d7 03       	nop
8000adca:	d7 03       	nop
8000adcc:	d7 03       	nop
8000adce:	d7 03       	nop
8000add0:	d7 03       	nop
8000add2:	d7 03       	nop
8000add4:	d7 03       	nop
8000add6:	d7 03       	nop
8000add8:	d7 03       	nop
8000adda:	d7 03       	nop
8000addc:	d7 03       	nop
8000adde:	d7 03       	nop
8000ade0:	d7 03       	nop
8000ade2:	d7 03       	nop
8000ade4:	d7 03       	nop
8000ade6:	d7 03       	nop
8000ade8:	d7 03       	nop
8000adea:	d7 03       	nop
8000adec:	d7 03       	nop
8000adee:	d7 03       	nop
8000adf0:	d7 03       	nop
8000adf2:	d7 03       	nop
8000adf4:	d7 03       	nop
8000adf6:	d7 03       	nop
8000adf8:	d7 03       	nop
8000adfa:	d7 03       	nop
8000adfc:	d7 03       	nop
8000adfe:	d7 03       	nop
