Archive member included because of file (symbol)

/home/emb/avr32-gnu-toolchain/bin/../lib/gcc/avr32/4.4.3/ucr2/libgcc.a(_avr32_s32_to_f32.o)
                              ../apps/bees/src/preset.o (__avr32_s32_to_f32)
/home/emb/avr32-gnu-toolchain/bin/../lib/gcc/avr32/4.4.3/ucr2/libgcc.a(_avr32_f32_to_s32.o)
                              ../src/bfin.o (__avr32_f32_to_s32)
/home/emb/avr32-gnu-toolchain/bin/../lib/gcc/avr32/4.4.3/ucr2/libgcc.a(_udivdi3.o)
                              ../src/adc.o (__avr32_udiv64)
/home/emb/avr32-gnu-toolchain/bin/../lib/gcc/avr32/4.4.3/../../../../avr32/lib/ucr2/libc.a(lib_a-malloc.o)
                              avr32/drivers/usbb/usbb_host.o (free)
/home/emb/avr32-gnu-toolchain/bin/../lib/gcc/avr32/4.4.3/../../../../avr32/lib/ucr2/libc.a(lib_a-mallocr.o)
                              /home/emb/avr32-gnu-toolchain/bin/../lib/gcc/avr32/4.4.3/../../../../avr32/lib/ucr2/libc.a(lib_a-malloc.o) (_malloc_r)
/home/emb/avr32-gnu-toolchain/bin/../lib/gcc/avr32/4.4.3/../../../../avr32/lib/ucr2/libc.a(lib_a-memcpy.o)
                              avr32/drivers/usbb/usbb_host.o (memcpy)
/home/emb/avr32-gnu-toolchain/bin/../lib/gcc/avr32/4.4.3/../../../../avr32/lib/ucr2/libc.a(lib_a-memset.o)
                              ../src/fat_io_lib/fat_filelib.o (memset)
/home/emb/avr32-gnu-toolchain/bin/../lib/gcc/avr32/4.4.3/../../../../avr32/lib/ucr2/libc.a(lib_a-mlock.o)
                              /home/emb/avr32-gnu-toolchain/bin/../lib/gcc/avr32/4.4.3/../../../../avr32/lib/ucr2/libc.a(lib_a-mallocr.o) (__malloc_lock)
/home/emb/avr32-gnu-toolchain/bin/../lib/gcc/avr32/4.4.3/../../../../avr32/lib/ucr2/libc.a(lib_a-sbrkr.o)
                              /home/emb/avr32-gnu-toolchain/bin/../lib/gcc/avr32/4.4.3/../../../../avr32/lib/ucr2/libc.a(lib_a-mallocr.o) (_sbrk_r)
/home/emb/avr32-gnu-toolchain/bin/../lib/gcc/avr32/4.4.3/../../../../avr32/lib/ucr2/libc.a(lib_a-strcmp.o)
                              ../src/files.o (strcmp)
/home/emb/avr32-gnu-toolchain/bin/../lib/gcc/avr32/4.4.3/../../../../avr32/lib/ucr2/libc.a(lib_a-strcpy.o)
                              ../src/files.o (strcpy)
/home/emb/avr32-gnu-toolchain/bin/../lib/gcc/avr32/4.4.3/../../../../avr32/lib/ucr2/libc.a(lib_a-strlen.o)
                              ../src/fat_io_lib/fat_filelib.o (strlen)
/home/emb/avr32-gnu-toolchain/bin/../lib/gcc/avr32/4.4.3/../../../../avr32/lib/ucr2/libc.a(lib_a-strncat.o)
                              ../src/files.o (strncat)
/home/emb/avr32-gnu-toolchain/bin/../lib/gcc/avr32/4.4.3/../../../../avr32/lib/ucr2/libc.a(lib_a-strncmp.o)
                              ../src/fat_io_lib/fat_access.o (strncmp)
/home/emb/avr32-gnu-toolchain/bin/../lib/gcc/avr32/4.4.3/../../../../avr32/lib/ucr2/libc.a(lib_a-strncpy.o)
                              ../src/fat_io_lib/fat_access.o (strncpy)
/home/emb/avr32-gnu-toolchain/bin/../lib/gcc/avr32/4.4.3/../../../../avr32/lib/ucr2/libc.a(lib_a-syscalls.o)
                              /home/emb/avr32-gnu-toolchain/bin/../lib/gcc/avr32/4.4.3/../../../../avr32/lib/ucr2/libc.a(lib_a-sbrkr.o) (_sbrk)
/home/emb/avr32-gnu-toolchain/bin/../lib/gcc/avr32/4.4.3/../../../../avr32/lib/ucr2/libc.a(lib_a-errno.o)
                              /home/emb/avr32-gnu-toolchain/bin/../lib/gcc/avr32/4.4.3/../../../../avr32/lib/ucr2/libc.a(lib_a-syscalls.o) (__errno)
/home/emb/avr32-gnu-toolchain/bin/../lib/gcc/avr32/4.4.3/../../../../avr32/lib/ucr2/libc.a(lib_a-freer.o)
                              /home/emb/avr32-gnu-toolchain/bin/../lib/gcc/avr32/4.4.3/../../../../avr32/lib/ucr2/libc.a(lib_a-malloc.o) (_free_r)
/home/emb/avr32-gnu-toolchain/bin/../lib/gcc/avr32/4.4.3/../../../../avr32/lib/ucr2/libc.a(lib_a-impure.o)
                              /home/emb/avr32-gnu-toolchain/bin/../lib/gcc/avr32/4.4.3/../../../../avr32/lib/ucr2/libc.a(lib_a-malloc.o) (_impure_ptr)
/home/emb/avr32-gnu-toolchain/bin/../lib/gcc/avr32/4.4.3/../../../../avr32/lib/ucr2/libc.a(lib_a-reent.o)
                              /home/emb/avr32-gnu-toolchain/bin/../lib/gcc/avr32/4.4.3/../../../../avr32/lib/ucr2/libc.a(lib_a-sbrkr.o) (errno)
/home/emb/avr32-gnu-toolchain/bin/../lib/gcc/avr32/4.4.3/../../../../avr32/lib/ucr2/libc.a(lib_a-findfp.o)
                              /home/emb/avr32-gnu-toolchain/bin/../lib/gcc/avr32/4.4.3/../../../../avr32/lib/ucr2/libc.a(lib_a-impure.o) (__sf_fake_stdin)
/home/emb/avr32-gnu-toolchain/bin/../lib/gcc/avr32/4.4.3/../../../../avr32/lib/ucr2/libc.a(lib_a-fwalk.o)
                              /home/emb/avr32-gnu-toolchain/bin/../lib/gcc/avr32/4.4.3/../../../../avr32/lib/ucr2/libc.a(lib_a-findfp.o) (_fwalk)
/home/emb/avr32-gnu-toolchain/bin/../lib/gcc/avr32/4.4.3/../../../../avr32/lib/ucr2/libc.a(lib_a-stdio.o)
                              /home/emb/avr32-gnu-toolchain/bin/../lib/gcc/avr32/4.4.3/../../../../avr32/lib/ucr2/libc.a(lib_a-findfp.o) (__sclose)
/home/emb/avr32-gnu-toolchain/bin/../lib/gcc/avr32/4.4.3/../../../../avr32/lib/ucr2/libc.a(lib_a-writer.o)
                              /home/emb/avr32-gnu-toolchain/bin/../lib/gcc/avr32/4.4.3/../../../../avr32/lib/ucr2/libc.a(lib_a-stdio.o) (_write_r)
/home/emb/avr32-gnu-toolchain/bin/../lib/gcc/avr32/4.4.3/../../../../avr32/lib/ucr2/libc.a(lib_a-closer.o)
                              /home/emb/avr32-gnu-toolchain/bin/../lib/gcc/avr32/4.4.3/../../../../avr32/lib/ucr2/libc.a(lib_a-stdio.o) (_close_r)
/home/emb/avr32-gnu-toolchain/bin/../lib/gcc/avr32/4.4.3/../../../../avr32/lib/ucr2/libc.a(lib_a-fclose.o)
                              /home/emb/avr32-gnu-toolchain/bin/../lib/gcc/avr32/4.4.3/../../../../avr32/lib/ucr2/libc.a(lib_a-findfp.o) (fclose)
/home/emb/avr32-gnu-toolchain/bin/../lib/gcc/avr32/4.4.3/../../../../avr32/lib/ucr2/libc.a(lib_a-fflush.o)
                              /home/emb/avr32-gnu-toolchain/bin/../lib/gcc/avr32/4.4.3/../../../../avr32/lib/ucr2/libc.a(lib_a-fclose.o) (_fflush_r)
/home/emb/avr32-gnu-toolchain/bin/../lib/gcc/avr32/4.4.3/../../../../avr32/lib/ucr2/libc.a(lib_a-lseekr.o)
                              /home/emb/avr32-gnu-toolchain/bin/../lib/gcc/avr32/4.4.3/../../../../avr32/lib/ucr2/libc.a(lib_a-stdio.o) (_lseek_r)
/home/emb/avr32-gnu-toolchain/bin/../lib/gcc/avr32/4.4.3/../../../../avr32/lib/ucr2/libc.a(lib_a-readr.o)
                              /home/emb/avr32-gnu-toolchain/bin/../lib/gcc/avr32/4.4.3/../../../../avr32/lib/ucr2/libc.a(lib_a-stdio.o) (_read_r)

Allocating common symbols
Common symbol       size              file

data_mem            0x201             avr32/components/memory/sd_mmc/sd_mmc_spi/sd_mmc_spi.o
sceneData           0x4               ../apps/bees/src/scene.o
errno               0x4               /home/emb/avr32-gnu-toolchain/bin/../lib/gcc/avr32/4.4.3/../../../../avr32/lib/ucr2/libc.a(lib_a-reent.o)
curPage             0x4               ../apps/bees/src/menu.o
uhd_ctrl_request_phase
                    0x4               avr32/drivers/usbb/usbb_host.o
uhc_sof_timeout     0x1               common/services/usb/uhc/uhc.o
pdcaRxChan          0x4               ../src/filesystem.o
net                 0x4               ../apps/bees/src/net.o
gathered            0x4               ../apps/bees/src/menu.o
enc                 0x30              ../src/encoders.o
capacity            0x8               avr32/components/memory/sd_mmc/sd_mmc_spi/sd_mmc_spi.o
bfinLdrData         0x4               ../src/flash.o
uhd_ctrl_request_first
                    0x4               avr32/drivers/usbb/usbb_host.o
uhd_ctrl_nb_trans   0x2               avr32/drivers/usbb/usbb_host.o
newOpType           0x4               ../apps/bees/src/menu.o
capacity_mult       0x2               avr32/components/memory/sd_mmc/sd_mmc_spi/sd_mmc_spi.o
numGathered         0x4               ../apps/bees/src/menu.o
presets             0x9100            ../apps/bees/src/preset.o
uhd_ctrl_request_last
                    0x4               avr32/drivers/usbb/usbb_host.o
fsEndTransfer       0x1               ../src/filesystem.o
uhd_ctrl_request_timeout
                    0x2               avr32/drivers/usbb/usbb_host.o
erase_group_size    0x2               avr32/components/memory/sd_mmc/sd_mmc_spi/sd_mmc_spi.o
sd_mmc_spi_last_block_address
                    0x4               avr32/components/memory/sd_mmc/sd_mmc_spi/sd_mmc_spi.o
r2                  0x2               avr32/components/memory/sd_mmc/sd_mmc_spi/sd_mmc_spi.o
card_type           0x1               avr32/components/memory/sd_mmc/sd_mmc_spi/sd_mmc_spi.o
pdcaTxChan          0x4               ../src/filesystem.o
fwBinData           0x4               ../src/flash.o
pdcaTxBuf           0x200             ../src/filesystem.o
pdcaRxBuf           0x200             ../src/filesystem.o
csd                 0x10              avr32/components/memory/sd_mmc/sd_mmc_spi/sd_mmc_spi.o
r1                  0x1               avr32/components/memory/sd_mmc/sd_mmc_spi/sd_mmc_spi.o

Discarded input sections

 .text          0x00000000        0x0 avr32/drivers/ebi/smc/smc.o
 .data          0x00000000        0x0 avr32/drivers/ebi/smc/smc.o
 .bss           0x00000000        0x0 avr32/drivers/ebi/smc/smc.o
 .text          0x00000000        0x0 avr32/drivers/flashc/flashc.o
 .data          0x00000000        0x0 avr32/drivers/flashc/flashc.o
 .bss           0x00000000        0x0 avr32/drivers/flashc/flashc.o
 .text.flashc_get_flash_size
                0x00000000       0x34 avr32/drivers/flashc/flashc.o
 .text.flashc_get_page_count
                0x00000000       0x34 avr32/drivers/flashc/flashc.o
 .text.flashc_get_wait_state
                0x00000000        0xc avr32/drivers/flashc/flashc.o
 .text.flashc_is_ready_int_enabled
                0x00000000        0xc avr32/drivers/flashc/flashc.o
 .text.flashc_enable_ready_int
                0x00000000        0xe avr32/drivers/flashc/flashc.o
 .text.flashc_is_lock_error_int_enabled
                0x00000000        0xc avr32/drivers/flashc/flashc.o
 .text.flashc_enable_lock_error_int
                0x00000000        0xe avr32/drivers/flashc/flashc.o
 .text.flashc_is_prog_error_int_enabled
                0x00000000        0xc avr32/drivers/flashc/flashc.o
 .text.flashc_enable_prog_error_int
                0x00000000        0xe avr32/drivers/flashc/flashc.o
 .text.flashc_is_ready
                0x00000000        0xc avr32/drivers/flashc/flashc.o
 .text.flashc_is_lock_error
                0x00000000       0x10 avr32/drivers/flashc/flashc.o
 .text.flashc_is_programming_error
                0x00000000       0x10 avr32/drivers/flashc/flashc.o
 .text.flashc_get_command
                0x00000000        0xc avr32/drivers/flashc/flashc.o
 .text.flashc_get_page_number
                0x00000000        0xc avr32/drivers/flashc/flashc.o
 .text.flashc_issue_command
                0x00000000       0x48 avr32/drivers/flashc/flashc.o
 .text.flashc_is_security_bit_active
                0x00000000        0xc avr32/drivers/flashc/flashc.o
 .text.flashc_get_bootloader_protected_size
                0x00000000       0x6c avr32/drivers/flashc/flashc.o
 .text.flashc_is_external_privileged_fetch_locked
                0x00000000       0x26 avr32/drivers/flashc/flashc.o
 .text.flashc_is_region_locked
                0x00000000       0x18 avr32/drivers/flashc/flashc.o
 .text.flashc_read_gp_fuse_bit
                0x00000000       0x4c avr32/drivers/flashc/flashc.o
 .text.flashc_read_gp_fuse_bitfield
                0x00000000       0x80 avr32/drivers/flashc/flashc.o
 .text.flashc_read_gp_fuse_byte
                0x00000000       0x4a avr32/drivers/flashc/flashc.o
 .text.flashc_read_all_gp_fuses
                0x00000000       0x26 avr32/drivers/flashc/flashc.o
 .text.flashc_is_page_erased
                0x00000000        0xc avr32/drivers/flashc/flashc.o
 .text.flashc_get_page_count_per_region
                0x00000000       0x34 avr32/drivers/flashc/flashc.o
 .text.flashc_get_region_first_page_number
                0x00000000       0x38 avr32/drivers/flashc/flashc.o
 .text.flashc_get_page_region
                0x00000000       0x4c avr32/drivers/flashc/flashc.o
 .text.flashc_is_page_region_locked
                0x00000000       0x64 avr32/drivers/flashc/flashc.o
 .text.flashc_activate_security_bit
                0x00000000       0x38 avr32/drivers/flashc/flashc.o
 .text.flashc_lock_page_region
                0x00000000       0x50 avr32/drivers/flashc/flashc.o
 .text.flashc_erase_gp_fuse_bit
                0x00000000       0x84 avr32/drivers/flashc/flashc.o
 .text.flashc_erase_all_gp_fuses
                0x00000000       0x58 avr32/drivers/flashc/flashc.o
 .text.flashc_no_operation
                0x00000000       0x38 avr32/drivers/flashc/flashc.o
 .text.flashc_erase_all
                0x00000000       0x38 avr32/drivers/flashc/flashc.o
 .text.flashc_write_gp_fuse_byte
                0x00000000       0x4c avr32/drivers/flashc/flashc.o
 .text.flashc_clear_page_buffer
                0x00000000       0x38 avr32/drivers/flashc/flashc.o
 .text.flashc_quick_page_read
                0x00000000       0x4c avr32/drivers/flashc/flashc.o
 .text.flashc_write_page
                0x00000000       0x48 avr32/drivers/flashc/flashc.o
 .text.flashc_quick_user_page_read
                0x00000000       0x40 avr32/drivers/flashc/flashc.o
 .text.flashc_write_user_page
                0x00000000       0x38 avr32/drivers/flashc/flashc.o
 .text.flashc_erase_page
                0x00000000       0x80 avr32/drivers/flashc/flashc.o
 .text.flashc_erase_gp_fuse_bitfield
                0x00000000      0x124 avr32/drivers/flashc/flashc.o
 .text.flashc_write_gp_fuse_bit
                0x00000000       0x4c avr32/drivers/flashc/flashc.o
 .text.flashc_write_gp_fuse_bitfield
                0x00000000       0x84 avr32/drivers/flashc/flashc.o
 .text.flashc_lock_region
                0x00000000       0x78 avr32/drivers/flashc/flashc.o
 .text.flashc_write_all_gp_fuses
                0x00000000      0x214 avr32/drivers/flashc/flashc.o
 .text.flashc_lock_all_regions
                0x00000000      0xb24 avr32/drivers/flashc/flashc.o
 .text.flashc_erase_gp_fuse_byte
                0x00000000      0x358 avr32/drivers/flashc/flashc.o
 .text.flashc_set_gp_fuse_bit
                0x00000000       0x5c avr32/drivers/flashc/flashc.o
 .text.flashc_erase_user_page
                0x00000000       0x68 avr32/drivers/flashc/flashc.o
 .text.flashc_set_gp_fuse_bitfield
                0x00000000       0x9c avr32/drivers/flashc/flashc.o
 .text.flashc_set_bootloader_protected_size
                0x00000000      0x138 avr32/drivers/flashc/flashc.o
 .text.flashc_erase_all_pages
                0x00000000       0xf8 avr32/drivers/flashc/flashc.o
 .text.flashc_set_all_gp_fuses
                0x00000000      0x3fc avr32/drivers/flashc/flashc.o
 .text.flashc_set_gp_fuse_byte
                0x00000000      0x654 avr32/drivers/flashc/flashc.o
 .text.flashc_memset16
                0x00000000       0x28 avr32/drivers/flashc/flashc.o
 .text.flashc_memset8
                0x00000000       0x2c avr32/drivers/flashc/flashc.o
 .text.flashc_lock_external_privileged_fetch
                0x00000000       0x54 avr32/drivers/flashc/flashc.o
 .text          0x00000000        0x0 avr32/drivers/gpio/gpio.o
 .data          0x00000000        0x0 avr32/drivers/gpio/gpio.o
 .bss           0x00000000        0x0 avr32/drivers/gpio/gpio.o
 .text.gpio_enable_module_pin
                0x00000000       0x50 avr32/drivers/gpio/gpio.o
 .text.gpio_enable_gpio
                0x00000000       0x2a avr32/drivers/gpio/gpio.o
 .text.gpio_enable_gpio_pin
                0x00000000       0x16 avr32/drivers/gpio/gpio.o
 .text.gpio_disable_pin_pull_up
                0x00000000       0x14 avr32/drivers/gpio/gpio.o
 .text.gpio_configure_pin
                0x00000000       0x80 avr32/drivers/gpio/gpio.o
 .text.gpio_configure_group
                0x00000000       0x6e avr32/drivers/gpio/gpio.o
 .text.gpio_get_gpio_pin_output_value
                0x00000000       0x16 avr32/drivers/gpio/gpio.o
 .text.gpio_get_gpio_open_drain_pin_output_value
                0x00000000       0x1a avr32/drivers/gpio/gpio.o
 .text.gpio_set_pin_high
                0x00000000       0x14 avr32/drivers/gpio/gpio.o
 .text.gpio_set_group_high
                0x00000000        0xc avr32/drivers/gpio/gpio.o
 .text.gpio_set_pin_low
                0x00000000       0x14 avr32/drivers/gpio/gpio.o
 .text.gpio_set_group_low
                0x00000000        0xc avr32/drivers/gpio/gpio.o
 .text.gpio_tgl_gpio_pin
                0x00000000       0x1a avr32/drivers/gpio/gpio.o
 .text.gpio_toggle_pin
                0x00000000       0x14 avr32/drivers/gpio/gpio.o
 .text.gpio_toggle_group
                0x00000000        0xc avr32/drivers/gpio/gpio.o
 .text.gpio_set_gpio_open_drain_pin
                0x00000000       0x16 avr32/drivers/gpio/gpio.o
 .text.gpio_clr_gpio_open_drain_pin
                0x00000000       0x1a avr32/drivers/gpio/gpio.o
 .text.gpio_tgl_gpio_open_drain_pin
                0x00000000       0x1a avr32/drivers/gpio/gpio.o
 .text.gpio_disable_pin_glitch_filter
                0x00000000       0x14 avr32/drivers/gpio/gpio.o
 .text.gpio_disable_pin_interrupt
                0x00000000       0x14 avr32/drivers/gpio/gpio.o
 .text          0x00000000        0x0 avr32/drivers/intc/intc.o
 .data          0x00000000        0x0 avr32/drivers/intc/intc.o
 .bss           0x00000000        0x0 avr32/drivers/intc/intc.o
 .text          0x00000000        0x0 avr32/drivers/pdca/pdca.o
 .data          0x00000000        0x0 avr32/drivers/pdca/pdca.o
 .bss           0x00000000        0x0 avr32/drivers/pdca/pdca.o
 .text.pdca_get_channel_status
                0x00000000       0x22 avr32/drivers/pdca/pdca.o
 .text.pdca_enable
                0x00000000       0x1e avr32/drivers/pdca/pdca.o
 .text.pdca_get_load_size
                0x00000000       0x1a avr32/drivers/pdca/pdca.o
 .text.pdca_get_reload_size
                0x00000000       0x1a avr32/drivers/pdca/pdca.o
 .text.pdca_set_peripheral_select
                0x00000000       0x1a avr32/drivers/pdca/pdca.o
 .text.pdca_set_transfer_size
                0x00000000       0x22 avr32/drivers/pdca/pdca.o
 .text.pdca_enable_interrupt_transfer_error
                0x00000000       0x1e avr32/drivers/pdca/pdca.o
 .text.pdca_enable_interrupt_reload_counter_zero
                0x00000000       0x1e avr32/drivers/pdca/pdca.o
 .text.pdca_get_transfer_status
                0x00000000       0x1a avr32/drivers/pdca/pdca.o
 .text.pdca_disable_interrupt_reload_counter_zero
                0x00000000       0x2a avr32/drivers/pdca/pdca.o
 .text.pdca_disable_interrupt_transfer_error
                0x00000000       0x2a avr32/drivers/pdca/pdca.o
 .text.pdca_reload_channel
                0x00000000       0x30 avr32/drivers/pdca/pdca.o
 .text          0x00000000        0x0 avr32/drivers/pm/pm.o
 .data          0x00000000        0x0 avr32/drivers/pm/pm.o
 .bss           0x00000000        0x0 avr32/drivers/pm/pm.o
 .debug_abbrev  0x00000000      0x389 avr32/drivers/pm/pm.o
 .debug_info    0x00000000     0x1d71 avr32/drivers/pm/pm.o
 .debug_line    0x00000000      0xd3c avr32/drivers/pm/pm.o
 .debug_macinfo
                0x00000000    0xe95d4 avr32/drivers/pm/pm.o
 .text.pm_enable_osc0_ext_clock
                0x00000000        0xc avr32/drivers/pm/pm.o
 .text.pm_enable_osc0_crystal
                0x00000000       0x4a avr32/drivers/pm/pm.o
 .text.pm_enable_clk0
                0x00000000       0x18 avr32/drivers/pm/pm.o
 .text.pm_disable_clk0
                0x00000000        0x8 avr32/drivers/pm/pm.o
 .text.pm_enable_clk0_no_wait
                0x00000000       0x10 avr32/drivers/pm/pm.o
 .text.pm_wait_for_clk0_ready
                0x00000000        0xa avr32/drivers/pm/pm.o
 .text.pm_enable_osc1_ext_clock
                0x00000000        0xc avr32/drivers/pm/pm.o
 .text.pm_enable_osc1_crystal
                0x00000000       0x4a avr32/drivers/pm/pm.o
 .text.pm_enable_clk1
                0x00000000       0x18 avr32/drivers/pm/pm.o
 .text.pm_disable_clk1
                0x00000000        0x8 avr32/drivers/pm/pm.o
 .text.pm_enable_clk1_no_wait
                0x00000000       0x10 avr32/drivers/pm/pm.o
 .text.pm_wait_for_clk1_ready
                0x00000000        0xa avr32/drivers/pm/pm.o
 .text.pm_enable_osc32_ext_clock
                0x00000000        0xc avr32/drivers/pm/pm.o
 .text.pm_enable_osc32_crystal
                0x00000000        0xc avr32/drivers/pm/pm.o
 .text.pm_enable_clk32
                0x00000000       0x18 avr32/drivers/pm/pm.o
 .text.pm_disable_clk32
                0x00000000        0x8 avr32/drivers/pm/pm.o
 .text.pm_enable_clk32_no_wait
                0x00000000       0x10 avr32/drivers/pm/pm.o
 .text.pm_wait_for_clk32_ready
                0x00000000        0xa avr32/drivers/pm/pm.o
 .text.pm_cksel_get
                0x00000000        0x6 avr32/drivers/pm/pm.o
 .text.pm_cksel_set
                0x00000000        0xc avr32/drivers/pm/pm.o
 .text.pm_cksel
                0x00000000       0x44 avr32/drivers/pm/pm.o
 .text.pm_gc_setup
                0x00000000       0x22 avr32/drivers/pm/pm.o
 .text.pm_gc_enable
                0x00000000        0xe avr32/drivers/pm/pm.o
 .text.pm_gc_disable
                0x00000000        0xe avr32/drivers/pm/pm.o
 .text.pm_pll_setup
                0x00000000       0x22 avr32/drivers/pm/pm.o
 .text.pm_pll_set_option
                0x00000000       0x18 avr32/drivers/pm/pm.o
 .text.pm_pll_get_option
                0x00000000        0xc avr32/drivers/pm/pm.o
 .text.pm_pll_enable
                0x00000000        0xe avr32/drivers/pm/pm.o
 .text.pm_pll_disable
                0x00000000        0xe avr32/drivers/pm/pm.o
 .text.pm_wait_for_pll0_locked
                0x00000000        0xa avr32/drivers/pm/pm.o
 .text.pm_wait_for_pll1_locked
                0x00000000        0xa avr32/drivers/pm/pm.o
 .text.pm_get_clock
                0x00000000        0x8 avr32/drivers/pm/pm.o
 .text.pm_switch_to_clock
                0x00000000        0xa avr32/drivers/pm/pm.o
 .text.pm_switch_to_osc0
                0x00000000       0x5a avr32/drivers/pm/pm.o
 .text.pm_bod_enable_irq
                0x00000000        0xa avr32/drivers/pm/pm.o
 .text.pm_bod_clear_irq
                0x00000000        0xa avr32/drivers/pm/pm.o
 .text.pm_bod_get_irq_status
                0x00000000        0x8 avr32/drivers/pm/pm.o
 .text.pm_bod_get_irq_enable_bit
                0x00000000        0x8 avr32/drivers/pm/pm.o
 .text.pm_bod_get_level
                0x00000000        0xa avr32/drivers/pm/pm.o
 .text.pm_read_gplp
                0x00000000        0x8 avr32/drivers/pm/pm.o
 .text.pm_write_gplp
                0x00000000        0x8 avr32/drivers/pm/pm.o
 .text.pm_enable_module
                0x00000000       0x1a avr32/drivers/pm/pm.o
 .text.pm_disable_module
                0x00000000       0x1c avr32/drivers/pm/pm.o
 .text.pm_bod_disable_irq
                0x00000000       0x26 avr32/drivers/pm/pm.o
 .debug_frame   0x00000000      0x2f4 avr32/drivers/pm/pm.o
 .debug_loc     0x00000000      0x39d avr32/drivers/pm/pm.o
 .debug_pubnames
                0x00000000      0x3ee avr32/drivers/pm/pm.o
 .debug_aranges
                0x00000000      0x178 avr32/drivers/pm/pm.o
 .debug_ranges  0x00000000      0x248 avr32/drivers/pm/pm.o
 .debug_str     0x00000000      0x97f avr32/drivers/pm/pm.o
 .comment       0x00000000       0x31 avr32/drivers/pm/pm.o
 .text          0x00000000        0x0 avr32/drivers/pm/pm_conf_clocks.o
 .data          0x00000000        0x0 avr32/drivers/pm/pm_conf_clocks.o
 .bss           0x00000000        0x0 avr32/drivers/pm/pm_conf_clocks.o
 .debug_abbrev  0x00000000      0x192 avr32/drivers/pm/pm_conf_clocks.o
 .debug_info    0x00000000      0xf48 avr32/drivers/pm/pm_conf_clocks.o
 .debug_line    0x00000000      0x740 avr32/drivers/pm/pm_conf_clocks.o
 .debug_macinfo
                0x00000000    0xe9626 avr32/drivers/pm/pm_conf_clocks.o
 .text.pm_configure_usb_clock
                0x00000000       0x70 avr32/drivers/pm/pm_conf_clocks.o
 .text.pm_configure_clocks
                0x00000000      0x1a0 avr32/drivers/pm/pm_conf_clocks.o
 .debug_frame   0x00000000       0x7c avr32/drivers/pm/pm_conf_clocks.o
 .debug_loc     0x00000000      0x222 avr32/drivers/pm/pm_conf_clocks.o
 .debug_pubnames
                0x00000000       0x45 avr32/drivers/pm/pm_conf_clocks.o
 .debug_aranges
                0x00000000       0x28 avr32/drivers/pm/pm_conf_clocks.o
 .debug_ranges  0x00000000       0x20 avr32/drivers/pm/pm_conf_clocks.o
 .debug_str     0x00000000      0x50e avr32/drivers/pm/pm_conf_clocks.o
 .comment       0x00000000       0x31 avr32/drivers/pm/pm_conf_clocks.o
 .text          0x00000000        0x0 avr32/drivers/pm/power_clocks_lib.o
 .data          0x00000000        0x0 avr32/drivers/pm/power_clocks_lib.o
 .bss           0x00000000        0x0 avr32/drivers/pm/power_clocks_lib.o
 .debug_abbrev  0x00000000      0x1cd avr32/drivers/pm/power_clocks_lib.o
 .debug_info    0x00000000      0xf89 avr32/drivers/pm/power_clocks_lib.o
 .debug_line    0x00000000      0x65d avr32/drivers/pm/power_clocks_lib.o
 .debug_macinfo
                0x00000000    0xe96b5 avr32/drivers/pm/power_clocks_lib.o
 .text.pcl_read_gplp
                0x00000000       0x14 avr32/drivers/pm/power_clocks_lib.o
 .text.pcl_write_gplp
                0x00000000       0x14 avr32/drivers/pm/power_clocks_lib.o
 .text.pcl_configure_usb_clock
                0x00000000        0xc avr32/drivers/pm/power_clocks_lib.o
 .text.pcl_switch_to_osc
                0x00000000       0x24 avr32/drivers/pm/power_clocks_lib.o
 .text.pcl_configure_clocks
                0x00000000        0xc avr32/drivers/pm/power_clocks_lib.o
 .debug_frame   0x00000000       0x8c avr32/drivers/pm/power_clocks_lib.o
 .debug_loc     0x00000000      0x141 avr32/drivers/pm/power_clocks_lib.o
 .debug_pubnames
                0x00000000       0x82 avr32/drivers/pm/power_clocks_lib.o
 .debug_aranges
                0x00000000       0x40 avr32/drivers/pm/power_clocks_lib.o
 .debug_ranges  0x00000000       0x38 avr32/drivers/pm/power_clocks_lib.o
 .debug_str     0x00000000      0x51b avr32/drivers/pm/power_clocks_lib.o
 .comment       0x00000000       0x31 avr32/drivers/pm/power_clocks_lib.o
 .text          0x00000000        0x0 avr32/drivers/spi/spi.o
 .data          0x00000000        0x0 avr32/drivers/spi/spi.o
 .bss           0x00000000        0x0 avr32/drivers/spi/spi.o
 .text.spi_initSlave
                0x00000000       0x4a avr32/drivers/spi/spi.o
 .text.spi_initTest
                0x00000000       0x14 avr32/drivers/spi/spi.o
 .text.spi_disable
                0x00000000        0x6 avr32/drivers/spi/spi.o
 .text.spi_is_enabled
                0x00000000        0x8 avr32/drivers/spi/spi.o
 .text.spi_writeRegisterEmptyCheck
                0x00000000        0x8 avr32/drivers/spi/spi.o
 .text.spi_variableSlaveWrite
                0x00000000       0x40 avr32/drivers/spi/spi.o
 .text.spi_writeEndCheck
                0x00000000        0x8 avr32/drivers/spi/spi.o
 .text.spi_readRegisterFullCheck
                0x00000000        0x8 avr32/drivers/spi/spi.o
 .text.spi_getStatus
                0x00000000       0x34 avr32/drivers/spi/spi.o
 .text          0x00000000        0x0 avr32/drivers/tc/tc.o
 .data          0x00000000        0x0 avr32/drivers/tc/tc.o
 .bss           0x00000000        0x0 avr32/drivers/tc/tc.o
 .text.tc_get_interrupt_settings
                0x00000000       0x12 avr32/drivers/tc/tc.o
 .text.tc_select_external_clock
                0x00000000       0x2e avr32/drivers/tc/tc.o
 .text.tc_init_capture
                0x00000000       0x1e avr32/drivers/tc/tc.o
 .text.tc_stop  0x00000000       0x12 avr32/drivers/tc/tc.o
 .text.tc_software_trigger
                0x00000000       0x12 avr32/drivers/tc/tc.o
 .text.tc_sync_trigger
                0x00000000        0x8 avr32/drivers/tc/tc.o
 .text.tc_sync_start
                0x00000000       0x12 avr32/drivers/tc/tc.o
 .text.tc_read_tc
                0x00000000       0x16 avr32/drivers/tc/tc.o
 .text.tc_read_ra
                0x00000000       0x16 avr32/drivers/tc/tc.o
 .text.tc_read_rb
                0x00000000       0x16 avr32/drivers/tc/tc.o
 .text.tc_read_rc
                0x00000000       0x16 avr32/drivers/tc/tc.o
 .text.tc_write_ra
                0x00000000       0x38 avr32/drivers/tc/tc.o
 .text.tc_write_rb
                0x00000000       0x38 avr32/drivers/tc/tc.o
 .text          0x00000000        0x0 avr32/drivers/usart/usart.o
 .data          0x00000000        0x0 avr32/drivers/usart/usart.o
 .bss           0x00000000        0x0 avr32/drivers/usart/usart.o
 .text.usart_spi_selectChip
                0x00000000        0x8 avr32/drivers/usart/usart.o
 .text.usart_spi_unselectChip
                0x00000000       0x1e avr32/drivers/usart/usart.o
 .text.usart_send_address
                0x00000000       0x26 avr32/drivers/usart/usart.o
 .text.usart_write_char
                0x00000000       0x14 avr32/drivers/usart/usart.o
 .text.usart_putchar
                0x00000000       0x1c avr32/drivers/usart/usart.o
 .text.usart_read_char
                0x00000000       0x24 avr32/drivers/usart/usart.o
 .text.usart_getchar
                0x00000000       0x1a avr32/drivers/usart/usart.o
 .text.usart_get_echo_line
                0x00000000       0x80 avr32/drivers/usart/usart.o
 .text.usart_reset
                0x00000000       0x2c avr32/drivers/usart/usart.o
 .text.usart_init_spi_slave
                0x00000000       0xae avr32/drivers/usart/usart.o
 .text.usart_init_spi_master
                0x00000000       0xd4 avr32/drivers/usart/usart.o
 .text.usart_init_lin_slave
                0x00000000       0x92 avr32/drivers/usart/usart.o
 .text.usart_init_lin_master
                0x00000000       0x92 avr32/drivers/usart/usart.o
 .text.usart_init_iso7816
                0x00000000       0xba avr32/drivers/usart/usart.o
 .text.usart_init_sync_slave
                0x00000000       0xdc avr32/drivers/usart/usart.o
 .text.usart_init_sync_master
                0x00000000      0x108 avr32/drivers/usart/usart.o
 .text.usart_init_rs232_tx_only
                0x00000000      0x102 avr32/drivers/usart/usart.o
 .text.usart_init_IrDA
                0x00000000      0x10c avr32/drivers/usart/usart.o
 .text.usart_init_hw_handshaking
                0x00000000       0xf4 avr32/drivers/usart/usart.o
 .text.usart_init_rs485
                0x00000000       0xf4 avr32/drivers/usart/usart.o
 .text.usart_init_modem
                0x00000000       0xf8 avr32/drivers/usart/usart.o
 .rodata.str1.4
                0x00000000        0xc avr32/drivers/usart/usart.o
 .text          0x00000000        0x0 avr32/utils/debug/print_funcs.o
 .data          0x00000000        0x0 avr32/utils/debug/print_funcs.o
 .bss           0x00000000        0x0 avr32/utils/debug/print_funcs.o
 .text.print_char
                0x00000000        0xc avr32/utils/debug/print_funcs.o
 .text.print    0x00000000        0xc avr32/utils/debug/print_funcs.o
 .text.init_dbg_rs232_ex
                0x00000000       0x40 avr32/utils/debug/print_funcs.o
 .text.print_dbg_char
                0x00000000       0x14 avr32/utils/debug/print_funcs.o
 .text.init_dbg_rs232
                0x00000000       0x44 avr32/utils/debug/print_funcs.o
 .text.print_dbg_char_hex
                0x00000000       0x34 avr32/utils/debug/print_funcs.o
 .text.print_dbg_short_hex
                0x00000000       0x54 avr32/utils/debug/print_funcs.o
 .text.print_hex
                0x00000000       0x70 avr32/utils/debug/print_funcs.o
 .text.print_short_hex
                0x00000000       0x50 avr32/utils/debug/print_funcs.o
 .text.print_char_hex
                0x00000000       0x30 avr32/utils/debug/print_funcs.o
 .text.print_ulong
                0x00000000       0x48 avr32/utils/debug/print_funcs.o
 .rodata.DBG_USART_GPIO_MAP.10837
                0x00000000       0x10 avr32/utils/debug/print_funcs.o
 .text          0x00000000        0x0 avr32/components/memory/sd_mmc/sd_mmc_spi/sd_mmc_spi.o
 .data          0x00000000        0x0 avr32/components/memory/sd_mmc/sd_mmc_spi/sd_mmc_spi.o
 .bss           0x00000000        0x0 avr32/components/memory/sd_mmc/sd_mmc_spi/sd_mmc_spi.o
 .text.sd_mmc_spi_send_and_read
                0x00000000       0x34 avr32/components/memory/sd_mmc/sd_mmc_spi/sd_mmc_spi.o
 .text.T.145    0x00000000       0x38 avr32/components/memory/sd_mmc/sd_mmc_spi/sd_mmc_spi.o
 .text.sd_mmc_spi_read_close
                0x00000000        0xc avr32/components/memory/sd_mmc/sd_mmc_spi/sd_mmc_spi.o
 .text.sd_mmc_spi_read_open
                0x00000000       0x18 avr32/components/memory/sd_mmc/sd_mmc_spi/sd_mmc_spi.o
 .text.sd_mmc_spi_read_sector_to_ram
                0x00000000      0x13c avr32/components/memory/sd_mmc/sd_mmc_spi/sd_mmc_spi.o
 .text.sd_mmc_spi_erase_sector_group
                0x00000000       0xf8 avr32/components/memory/sd_mmc/sd_mmc_spi/sd_mmc_spi.o
 .text.sd_mmc_spi_send_command
                0x00000000       0x40 avr32/components/memory/sd_mmc/sd_mmc_spi/sd_mmc_spi.o
 .text.sd_mmc_spi_read_multiple_sector
                0x00000000      0x170 avr32/components/memory/sd_mmc/sd_mmc_spi/sd_mmc_spi.o
 .text.sd_mmc_spi_write_multiple_sector
                0x00000000      0x170 avr32/components/memory/sd_mmc/sd_mmc_spi/sd_mmc_spi.o
 .text.sd_mmc_spi_get_csd
                0x00000000      0x444 avr32/components/memory/sd_mmc/sd_mmc_spi/sd_mmc_spi.o
 .text.sd_mmc_spi_get_cid
                0x00000000      0x478 avr32/components/memory/sd_mmc/sd_mmc_spi/sd_mmc_spi.o
 .text.sd_mmc_spi_check_presence
                0x00000000      0x2b4 avr32/components/memory/sd_mmc/sd_mmc_spi/sd_mmc_spi.o
 .text.sd_mmc_spi_get_status
                0x00000000      0x268 avr32/components/memory/sd_mmc/sd_mmc_spi/sd_mmc_spi.o
 .text.is_sd_mmc_spi_write_pwd_locked
                0x00000000       0x40 avr32/components/memory/sd_mmc/sd_mmc_spi/sd_mmc_spi.o
 .text.sd_mmc_spi_lock_operation
                0x00000000      0x1a8 avr32/components/memory/sd_mmc/sd_mmc_spi/sd_mmc_spi.o
 .bss.sector_buf
                0x00000000      0x200 avr32/components/memory/sd_mmc/sd_mmc_spi/sd_mmc_spi.o
 .text          0x00000000        0x0 avr32/components/memory/sd_mmc/sd_mmc_spi/sd_mmc_spi_mem.o
 .data          0x00000000        0x0 avr32/components/memory/sd_mmc/sd_mmc_spi/sd_mmc_spi_mem.o
 .bss           0x00000000        0x0 avr32/components/memory/sd_mmc/sd_mmc_spi/sd_mmc_spi_mem.o
 .debug_abbrev  0x00000000      0x16c avr32/components/memory/sd_mmc/sd_mmc_spi/sd_mmc_spi_mem.o
 .debug_info    0x00000000      0x259 avr32/components/memory/sd_mmc/sd_mmc_spi/sd_mmc_spi_mem.o
 .debug_line    0x00000000      0x857 avr32/components/memory/sd_mmc/sd_mmc_spi/sd_mmc_spi_mem.o
 .debug_macinfo
                0x00000000    0xebadd avr32/components/memory/sd_mmc/sd_mmc_spi/sd_mmc_spi_mem.o
 .text.sd_mmc_spi_wr_protect
                0x00000000        0x2 avr32/components/memory/sd_mmc/sd_mmc_spi/sd_mmc_spi_mem.o
 .text.sd_mmc_spi_removal
                0x00000000        0x2 avr32/components/memory/sd_mmc/sd_mmc_spi/sd_mmc_spi_mem.o
 .text.sd_mmc_spi_test_unit_ready
                0x00000000       0x68 avr32/components/memory/sd_mmc/sd_mmc_spi/sd_mmc_spi_mem.o
 .text.sd_mmc_spi_mem_init
                0x00000000        0xc avr32/components/memory/sd_mmc/sd_mmc_spi/sd_mmc_spi_mem.o
 .text.sd_mmc_spi_read_capacity
                0x00000000       0x40 avr32/components/memory/sd_mmc/sd_mmc_spi/sd_mmc_spi_mem.o
 .text.sd_mmc_spi_ram_2_mem
                0x00000000       0x5c avr32/components/memory/sd_mmc/sd_mmc_spi/sd_mmc_spi_mem.o
 .text.sd_mmc_spi_mem_2_ram
                0x00000000       0x5c avr32/components/memory/sd_mmc/sd_mmc_spi/sd_mmc_spi_mem.o
 .data.sd_mmc_spi_presence_status
                0x00000000        0x1 avr32/components/memory/sd_mmc/sd_mmc_spi/sd_mmc_spi_mem.o
 .debug_frame   0x00000000       0xcc avr32/components/memory/sd_mmc/sd_mmc_spi/sd_mmc_spi_mem.o
 .debug_loc     0x00000000      0x131 avr32/components/memory/sd_mmc/sd_mmc_spi/sd_mmc_spi_mem.o
 .debug_pubnames
                0x00000000       0xe8 avr32/components/memory/sd_mmc/sd_mmc_spi/sd_mmc_spi_mem.o
 .debug_aranges
                0x00000000       0x50 avr32/components/memory/sd_mmc/sd_mmc_spi/sd_mmc_spi_mem.o
 .debug_ranges  0x00000000       0x48 avr32/components/memory/sd_mmc/sd_mmc_spi/sd_mmc_spi_mem.o
 .debug_str     0x00000000      0x270 avr32/components/memory/sd_mmc/sd_mmc_spi/sd_mmc_spi_mem.o
 .comment       0x00000000       0x31 avr32/components/memory/sd_mmc/sd_mmc_spi/sd_mmc_spi_mem.o
 .text          0x00000000        0x0 avr32/drivers/usbb/usbb_host.o
 .data          0x00000000        0x0 avr32/drivers/usbb/usbb_host.o
 .bss           0x00000000        0x0 avr32/drivers/usbb/usbb_host.o
 .text.uhd_get_frame_number
                0x00000000        0xc avr32/drivers/usbb/usbb_host.o
 .text.uhd_get_microframe_number
                0x00000000        0xe avr32/drivers/usbb/usbb_host.o
 .text.uhd_is_suspend
                0x00000000       0x10 avr32/drivers/usbb/usbb_host.o
 .text.uhd_resume
                0x00000000       0x54 avr32/drivers/usbb/usbb_host.o
 .text.otg_dual_disable
                0x00000000       0x4c avr32/drivers/usbb/usbb_host.o
 .text.uhd_ep_abort
                0x00000000      0x29c avr32/drivers/usbb/usbb_host.o
 .text          0x00000000        0x0 common/services/clock/uc3a0_a1/sysclk.o
 .data          0x00000000        0x0 common/services/clock/uc3a0_a1/sysclk.o
 .bss           0x00000000        0x0 common/services/clock/uc3a0_a1/sysclk.o
 .text.sysclk_disable_pbb_module
                0x00000000       0x74 common/services/clock/uc3a0_a1/sysclk.o
 .text          0x00000000        0x0 common/services/storage/ctrl_access/ctrl_access.o
 .data          0x00000000        0x0 common/services/storage/ctrl_access/ctrl_access.o
 .bss           0x00000000        0x0 common/services/storage/ctrl_access/ctrl_access.o
 .debug_abbrev  0x00000000      0x1fb common/services/storage/ctrl_access/ctrl_access.o
 .debug_info    0x00000000      0x672 common/services/storage/ctrl_access/ctrl_access.o
 .debug_line    0x00000000      0x8e5 common/services/storage/ctrl_access/ctrl_access.o
 .debug_macinfo
                0x00000000    0xece1c common/services/storage/ctrl_access/ctrl_access.o
 .text.get_nb_lun
                0x00000000        0x2 common/services/storage/ctrl_access/ctrl_access.o
 .text.get_cur_lun
                0x00000000        0x2 common/services/storage/ctrl_access/ctrl_access.o
 .text.mem_test_unit_ready
                0x00000000       0x14 common/services/storage/ctrl_access/ctrl_access.o
 .text.mem_read_capacity
                0x00000000       0x14 common/services/storage/ctrl_access/ctrl_access.o
 .text.mem_sector_size
                0x00000000        0x6 common/services/storage/ctrl_access/ctrl_access.o
 .text.mem_unload
                0x00000000       0x10 common/services/storage/ctrl_access/ctrl_access.o
 .text.mem_wr_protect
                0x00000000       0x14 common/services/storage/ctrl_access/ctrl_access.o
 .text.mem_removal
                0x00000000       0x14 common/services/storage/ctrl_access/ctrl_access.o
 .text.mem_name
                0x00000000       0x10 common/services/storage/ctrl_access/ctrl_access.o
 .text.memory_2_ram
                0x00000000       0x18 common/services/storage/ctrl_access/ctrl_access.o
 .text.ram_2_memory
                0x00000000       0x18 common/services/storage/ctrl_access/ctrl_access.o
 .text.stream_state
                0x00000000        0x2 common/services/storage/ctrl_access/ctrl_access.o
 .text.stream_stop
                0x00000000        0x2 common/services/storage/ctrl_access/ctrl_access.o
 .text.stream_mem_to_mem
                0x00000000       0x84 common/services/storage/ctrl_access/ctrl_access.o
 .bss.sector_buf.10770
                0x00000000      0x200 common/services/storage/ctrl_access/ctrl_access.o
 .rodata.lun_desc
                0x00000000       0x20 common/services/storage/ctrl_access/ctrl_access.o
 .rodata.str1.4
                0x00000000       0x18 common/services/storage/ctrl_access/ctrl_access.o
 .debug_frame   0x00000000      0x130 common/services/storage/ctrl_access/ctrl_access.o
 .debug_loc     0x00000000      0x474 common/services/storage/ctrl_access/ctrl_access.o
 .debug_pubnames
                0x00000000      0x10b common/services/storage/ctrl_access/ctrl_access.o
 .debug_aranges
                0x00000000       0x88 common/services/storage/ctrl_access/ctrl_access.o
 .debug_ranges  0x00000000      0x100 common/services/storage/ctrl_access/ctrl_access.o
 .debug_str     0x00000000      0x2e1 common/services/storage/ctrl_access/ctrl_access.o
 .comment       0x00000000       0x31 common/services/storage/ctrl_access/ctrl_access.o
 .text          0x00000000        0x0 common/services/usb/uhc/uhc.o
 .data          0x00000000        0x0 common/services/usb/uhc/uhc.o
 .bss           0x00000000        0x0 common/services/usb/uhc/uhc.o
 .text.uhc_setup_request_callback
                0x00000000       0x18 common/services/usb/uhc/uhc.o
 .text.uhc_get_device_number
                0x00000000       0x14 common/services/usb/uhc/uhc.o
 .text.uhc_dev_get_power
                0x00000000        0xa common/services/usb/uhc/uhc.o
 .text.uhc_dev_get_speed
                0x00000000        0x4 common/services/usb/uhc/uhc.o
 .text.uhc_dev_is_high_speed_support
                0x00000000       0x78 common/services/usb/uhc/uhc.o
 .text.uhc_dev_get_string
                0x00000000      0x10c common/services/usb/uhc/uhc.o
 .text.uhc_dev_get_string_serial
                0x00000000       0x18 common/services/usb/uhc/uhc.o
 .text.uhc_dev_get_string_product
                0x00000000       0x18 common/services/usb/uhc/uhc.o
 .text.uhc_dev_get_string_manufacturer
                0x00000000       0x18 common/services/usb/uhc/uhc.o
 .text.uhc_is_suspend
                0x00000000       0x20 common/services/usb/uhc/uhc.o
 .text.uhc_suspend
                0x00000000       0x5c common/services/usb/uhc/uhc.o
 .text.uhc_resume
                0x00000000       0x2c common/services/usb/uhc/uhc.o
 .bss.uhc_setup_request_finish_status
                0x00000000        0x1 common/services/usb/uhc/uhc.o
 .bss.uhc_setup_request_finish
                0x00000000        0x1 common/services/usb/uhc/uhc.o
 .text          0x00000000        0x0 ../src/adc.o
 .data          0x00000000        0x0 ../src/adc.o
 .bss           0x00000000        0x0 ../src/adc.o
 .text          0x00000000        0x0 ../src/app_timers.o
 .data          0x00000000        0x0 ../src/app_timers.o
 .bss           0x00000000        0x0 ../src/app_timers.o
 .text          0x00000000        0x0 ../src/bfin.o
 .data          0x00000000        0x0 ../src/bfin.o
 .bss           0x00000000        0x0 ../src/bfin.o
 .text.bfin_get_module_name
                0x00000000       0x70 ../src/bfin.o
 .text          0x00000000        0x0 ../src/events.o
 .data          0x00000000        0x0 ../src/events.o
 .bss           0x00000000        0x0 ../src/events.o
 .text          0x00000000        0x0 ../src/encoders.o
 .data          0x00000000        0x0 ../src/encoders.o
 .bss           0x00000000        0x0 ../src/encoders.o
 .text          0x00000000        0x0 ../src/files.o
 .data          0x00000000        0x0 ../src/files.o
 .bss           0x00000000        0x0 ../src/files.o
 .text.files_get_scene_name
                0x00000000       0x10 ../src/files.o
 .text.files_store_scene_name
                0x00000000        0x2 ../src/files.o
 .text.list_get_name
                0x00000000        0x8 ../src/files.o
 .text.files_store_default_dsp
                0x00000000       0x90 ../src/files.o
 .text.files_load_scene_name
                0x00000000       0x3c ../src/files.o
 .text.files_store_default_scene
                0x00000000       0x68 ../src/files.o
 .text          0x00000000        0x0 ../src/filesystem.o
 .data          0x00000000        0x0 ../src/filesystem.o
 .bss           0x00000000        0x0 ../src/filesystem.o
 .text          0x00000000        0x0 ../src/flash.o
 .data          0x00000000        0x0 ../src/flash.o
 .bss           0x00000000        0x0 ../src/flash.o
 .text.flash_write_ldr
                0x00000000       0x40 ../src/flash.o
 .text.flash_read_ldr
                0x00000000       0x2c ../src/flash.o
 .bss.fwBinSize
                0x00000000        0x4 ../src/flash.o
 .text          0x00000000        0x0 ../src/font.o
 .data          0x00000000        0x0 ../src/font.o
 .bss           0x00000000        0x0 ../src/font.o
 .rodata.font_nglyphs
                0x00000000        0x4 ../src/font.o
 .text          0x00000000        0x0 ../src/init.o
 .data          0x00000000        0x0 ../src/init.o
 .bss           0x00000000        0x0 ../src/init.o
 .text.init_twi
                0x00000000       0x14 ../src/init.o
 .rodata.TWI_GPIO_MAP.13505
                0x00000000       0x10 ../src/init.o
 .text          0x00000000        0x0 ../src/interrupts.o
 .data          0x00000000        0x0 ../src/interrupts.o
 .bss           0x00000000        0x0 ../src/interrupts.o
 .text          0x00000000        0x0 ../src/memory.o
 .data          0x00000000        0x0 ../src/memory.o
 .bss           0x00000000        0x0 ../src/memory.o
 .text.sram_test
                0x00000000        0x2 ../src/memory.o
 .text          0x00000000        0x0 ../src/screen.o
 .data          0x00000000        0x0 ../src/screen.o
 .bss           0x00000000        0x0 ../src/screen.o
 .text.screen_pixel
                0x00000000       0x4c ../src/screen.o
 .text.screen_get_pixel
                0x00000000       0x30 ../src/screen.o
 .text.screen_char_fixed
                0x00000000      0x358 ../src/screen.o
 .text.screen_char_squeeze
                0x00000000      0x108 ../src/screen.o
 .text.screen_string_fixed
                0x00000000      0x3a8 ../src/screen.o
 .text.screen_fix
                0x00000000       0x38 ../src/screen.o
 .text.screen_int
                0x00000000       0x3c ../src/screen.o
 .bss.buf.12359
                0x00000000        0xc ../src/screen.o
 .bss.buf       0x00000000        0xc ../src/screen.o
 .text          0x00000000        0x0 ../src/simple_string.o
 .data          0x00000000        0x0 ../src/simple_string.o
 .bss           0x00000000        0x0 ../src/simple_string.o
 .text          0x00000000        0x0 ../src/switches.o
 .data          0x00000000        0x0 ../src/switches.o
 .bss           0x00000000        0x0 ../src/switches.o
 .text          0x00000000        0x0 ../src/timers.o
 .data          0x00000000        0x0 ../src/timers.o
 .bss           0x00000000        0x0 ../src/timers.o
 .text.init_timers
                0x00000000       0x1c ../src/timers.o
 .text.kill_timer
                0x00000000       0x74 ../src/timers.o
 .text          0x00000000        0x0 ../src/main.o
 .data          0x00000000        0x0 ../src/main.o
 .bss           0x00000000        0x0 ../src/main.o
 .text          0x00000000        0x0 ../src/usb.o
 .data          0x00000000        0x0 ../src/usb.o
 .bss           0x00000000        0x0 ../src/usb.o
 .text          0x00000000        0x0 ../src/usb/mouse/hid_mouse.o
 .data          0x00000000        0x0 ../src/usb/mouse/hid_mouse.o
 .bss           0x00000000        0x0 ../src/usb/mouse/hid_mouse.o
 .text          0x00000000        0x0 ../src/usb/mouse/uhi_hid_mouse.o
 .data          0x00000000        0x0 ../src/usb/mouse/uhi_hid_mouse.o
 .bss           0x00000000        0x0 ../src/usb/mouse/uhi_hid_mouse.o
 .text          0x00000000        0x0 ../src/usb/gamepad/hid_gamepad.o
 .data          0x00000000        0x0 ../src/usb/gamepad/hid_gamepad.o
 .bss           0x00000000        0x0 ../src/usb/gamepad/hid_gamepad.o
 .debug_abbrev  0x00000000       0x35 ../src/usb/gamepad/hid_gamepad.o
 .debug_info    0x00000000       0x8f ../src/usb/gamepad/hid_gamepad.o
 .debug_line    0x00000000      0x700 ../src/usb/gamepad/hid_gamepad.o
 .debug_macinfo
                0x00000000    0xeb7f0 ../src/usb/gamepad/hid_gamepad.o
 .debug_str     0x00000000       0xf9 ../src/usb/gamepad/hid_gamepad.o
 .comment       0x00000000       0x31 ../src/usb/gamepad/hid_gamepad.o
 .text          0x00000000        0x0 ../src/usb/gamepad/uhi_hid_gamepad.o
 .data          0x00000000        0x0 ../src/usb/gamepad/uhi_hid_gamepad.o
 .bss           0x00000000        0x0 ../src/usb/gamepad/uhi_hid_gamepad.o
 .text          0x00000000        0x0 ../src/fat_io_lib/fat_access.o
 .data          0x00000000        0x0 ../src/fat_io_lib/fat_access.o
 .bss           0x00000000        0x0 ../src/fat_io_lib/fat_access.o
 .text.fatfs_show_details
                0x00000000        0x2 ../src/fat_io_lib/fat_access.o
 .text.fatfs_mark_file_deleted
                0x00000000      0x3d0 ../src/fat_io_lib/fat_access.o
 .text.fatfs_read_sector
                0x00000000       0xb0 ../src/fat_io_lib/fat_access.o
 .text          0x00000000        0x0 ../src/fat_io_lib/fat_cache.o
 .data          0x00000000        0x0 ../src/fat_io_lib/fat_cache.o
 .bss           0x00000000        0x0 ../src/fat_io_lib/fat_cache.o
 .text          0x00000000        0x0 ../src/fat_io_lib/fat_filelib.o
 .data          0x00000000        0x0 ../src/fat_io_lib/fat_filelib.o
 .bss           0x00000000        0x0 ../src/fat_io_lib/fat_filelib.o
 .text.fl_attach_locks
                0x00000000        0x8 ../src/fat_io_lib/fat_filelib.o
 .text.fl_fgetpos
                0x00000000       0x3c ../src/fat_io_lib/fat_filelib.o
 .text.fl_feof  0x00000000       0x44 ../src/fat_io_lib/fat_filelib.o
 .text.fl_closedir
                0x00000000        0x2 ../src/fat_io_lib/fat_filelib.o
 .text.fl_ftell
                0x00000000       0x30 ../src/fat_io_lib/fat_filelib.o
 .text.fl_fseek
                0x00000000       0xf4 ../src/fat_io_lib/fat_filelib.o
 .text.fl_is_dir
                0x00000000       0x14 ../src/fat_io_lib/fat_filelib.o
 .text.fl_listdirectory
                0x00000000       0xdc ../src/fat_io_lib/fat_filelib.o
 .text.fl_shutdown
                0x00000000       0x6c ../src/fat_io_lib/fat_filelib.o
 .text.T.95     0x00000000      0x188 ../src/fat_io_lib/fat_filelib.o
 .text.fl_fputc
                0x00000000       0x28 ../src/fat_io_lib/fat_filelib.o
 .text.fl_fputs
                0x00000000       0x24 ../src/fat_io_lib/fat_filelib.o
 .text.fl_fgets
                0x00000000       0x6c ../src/fat_io_lib/fat_filelib.o
 .text.fl_fread
                0x00000000      0x134 ../src/fat_io_lib/fat_filelib.o
 .text.fl_fwrite
                0x00000000      0x1c4 ../src/fat_io_lib/fat_filelib.o
 .text.fl_remove
                0x00000000       0xa8 ../src/fat_io_lib/fat_filelib.o
 .text.fl_createdirectory
                0x00000000      0x358 ../src/fat_io_lib/fat_filelib.o
 .text          0x00000000        0x0 ../src/fat_io_lib/fat_format.o
 .data          0x00000000        0x0 ../src/fat_io_lib/fat_format.o
 .bss           0x00000000        0x0 ../src/fat_io_lib/fat_format.o
 .debug_abbrev  0x00000000      0x1b6 ../src/fat_io_lib/fat_format.o
 .debug_info    0x00000000      0x4d3 ../src/fat_io_lib/fat_format.o
 .debug_line    0x00000000      0x71c ../src/fat_io_lib/fat_format.o
 .debug_macinfo
                0x00000000     0x42c0 ../src/fat_io_lib/fat_format.o
 .text.fatfs_erase_fat
                0x00000000       0x74 ../src/fat_io_lib/fat_format.o
 .text.fatfs_create_boot_sector
                0x00000000      0x2a8 ../src/fat_io_lib/fat_format.o
 .text.fatfs_format_fat16
                0x00000000       0xc4 ../src/fat_io_lib/fat_format.o
 .data._cluster_size_table
                0x00000000       0x40 ../src/fat_io_lib/fat_format.o
 .debug_frame   0x00000000       0x80 ../src/fat_io_lib/fat_format.o
 .debug_loc     0x00000000      0x189 ../src/fat_io_lib/fat_format.o
 .debug_pubnames
                0x00000000       0x72 ../src/fat_io_lib/fat_format.o
 .debug_aranges
                0x00000000       0x30 ../src/fat_io_lib/fat_format.o
 .debug_ranges  0x00000000       0xa8 ../src/fat_io_lib/fat_format.o
 .debug_str     0x00000000      0x388 ../src/fat_io_lib/fat_format.o
 .comment       0x00000000       0x31 ../src/fat_io_lib/fat_format.o
 .text          0x00000000        0x0 ../src/fat_io_lib/fat_misc.o
 .data          0x00000000        0x0 ../src/fat_io_lib/fat_misc.o
 .bss           0x00000000        0x0 ../src/fat_io_lib/fat_misc.o
 .text          0x00000000        0x0 ../src/fat_io_lib/fat_string.o
 .data          0x00000000        0x0 ../src/fat_io_lib/fat_string.o
 .bss           0x00000000        0x0 ../src/fat_io_lib/fat_string.o
 .text.fatfs_string_ends_with_slash
                0x00000000       0x38 ../src/fat_io_lib/fat_string.o
 .text.fatfs_get_extension
                0x00000000       0x80 ../src/fat_io_lib/fat_string.o
 .text.fatfs_create_path_string
                0x00000000       0x9e ../src/fat_io_lib/fat_string.o
 .text          0x00000000        0x0 ../src/fat_io_lib/fat_table.o
 .data          0x00000000        0x0 ../src/fat_io_lib/fat_table.o
 .bss           0x00000000        0x0 ../src/fat_io_lib/fat_table.o
 .text.fatfs_count_free_clusters
                0x00000000      0x14e ../src/fat_io_lib/fat_table.o
 .text          0x00000000        0x0 ../src/fat_io_lib/fat_write.o
 .data          0x00000000        0x0 ../src/fat_io_lib/fat_write.o
 .bss           0x00000000        0x0 ../src/fat_io_lib/fat_write.o
 .text          0x00000000        0x0 ../../common/fix.o
 .data          0x00000000        0x0 ../../common/fix.o
 .bss           0x00000000        0x0 ../../common/fix.o
 .text.itoa_fract
                0x00000000       0xb4 ../../common/fix.o
 .text          0x00000000        0x0 ../../common/libfixmath/fix16.o
 .data          0x00000000        0x0 ../../common/libfixmath/fix16.o
 .bss           0x00000000        0x0 ../../common/libfixmath/fix16.o
 .text.fix16_sadd
                0x00000000       0x30 ../../common/libfixmath/fix16.o
 .text.fix16_ssub
                0x00000000       0x38 ../../common/libfixmath/fix16.o
 .text.fix16_smul
                0x00000000       0x78 ../../common/libfixmath/fix16.o
 .text.fix16_lerp8
                0x00000000       0x34 ../../common/libfixmath/fix16.o
 .text.fix16_lerp16
                0x00000000       0x36 ../../common/libfixmath/fix16.o
 .text.fix16_lerp32
                0x00000000       0x2e ../../common/libfixmath/fix16.o
 .text.fix16_div
                0x00000000       0xc8 ../../common/libfixmath/fix16.o
 .text.fix16_sdiv
                0x00000000       0x30 ../../common/libfixmath/fix16.o
 .text          0x00000000        0x0 ../apps/bees/src/key_handler.o
 .data          0x00000000        0x0 ../apps/bees/src/key_handler.o
 .bss           0x00000000        0x0 ../apps/bees/src/key_handler.o
 .text          0x00000000        0x0 ../apps/bees/src/menu.o
 .data          0x00000000        0x0 ../apps/bees/src/menu.o
 .bss           0x00000000        0x0 ../apps/bees/src/menu.o
 .text.menu_deinit
                0x00000000        0x2 ../apps/bees/src/menu.o
 .text.menu_refresh
                0x00000000       0x10 ../apps/bees/src/menu.o
 .text.scroll_select_wrap
                0x00000000       0x4c ../apps/bees/src/menu.o
 .text          0x00000000        0x0 ../apps/bees/src/net.o
 .data          0x00000000        0x0 ../apps/bees/src/net.o
 .bss           0x00000000        0x0 ../apps/bees/src/net.o
 .text.net_deinit
                0x00000000        0x2 ../apps/bees/src/net.o
 .text.net_init_inode
                0x00000000       0x24 ../apps/bees/src/net.o
 .text.net_init_onode
                0x00000000       0x38 ../apps/bees/src/net.o
 .text.net_remove_op
                0x00000000      0x27c ../apps/bees/src/net.o
 .text.net_num_params
                0x00000000       0x14 ../apps/bees/src/net.o
 .text.net_in_connected
                0x00000000       0x40 ../apps/bees/src/net.o
 .text.net_toggle_out_preset
                0x00000000       0x2c ../apps/bees/src/net.o
 .text.net_set_in_preset
                0x00000000       0x14 ../apps/bees/src/net.o
 .text.net_set_out_preset
                0x00000000       0x18 ../apps/bees/src/net.o
 .text.net_send_params
                0x00000000       0x50 ../apps/bees/src/net.o
 .text          0x00000000        0x0 ../apps/bees/src/op.o
 .data          0x00000000        0x0 ../apps/bees/src/op.o
 .bss           0x00000000        0x0 ../apps/bees/src/op.o
 .text.op_init  0x00000000       0x80 ../apps/bees/src/op.o
 .text          0x00000000        0x0 ../apps/bees/src/param.o
 .data          0x00000000        0x0 ../apps/bees/src/param.o
 .bss           0x00000000        0x0 ../apps/bees/src/param.o
 .text          0x00000000        0x0 ../apps/bees/src/play.o
 .data          0x00000000        0x0 ../apps/bees/src/play.o
 .bss           0x00000000        0x0 ../apps/bees/src/play.o
 .text.play_init
                0x00000000       0xa0 ../apps/bees/src/play.o
 .text          0x00000000        0x0 ../apps/bees/src/preset.o
 .data          0x00000000        0x0 ../apps/bees/src/preset.o
 .bss           0x00000000        0x0 ../apps/bees/src/preset.o
 .text.preset_deinit
                0x00000000        0x2 ../apps/bees/src/preset.o
 .text.preset_store_in
                0x00000000       0x40 ../apps/bees/src/preset.o
 .text.preset_store_out
                0x00000000       0x40 ../apps/bees/src/preset.o
 .text          0x00000000        0x0 ../apps/bees/src/redraw.o
 .data          0x00000000        0x0 ../apps/bees/src/redraw.o
 .bss           0x00000000        0x0 ../apps/bees/src/redraw.o
 .text          0x00000000        0x0 ../apps/bees/src/scene.o
 .data          0x00000000        0x0 ../apps/bees/src/scene.o
 .bss           0x00000000        0x0 ../apps/bees/src/scene.o
 .text.scene_deinit
                0x00000000        0x2 ../apps/bees/src/scene.o
 .text.scene_read_buf
                0x00000000        0x2 ../apps/bees/src/scene.o
 .text.scene_write_buf
                0x00000000       0x3c ../apps/bees/src/scene.o
 .text          0x00000000        0x0 ../apps/bees/src/ops/op_add.o
 .data          0x00000000        0x0 ../apps/bees/src/ops/op_add.o
 .bss           0x00000000        0x0 ../apps/bees/src/ops/op_add.o
 .text          0x00000000        0x0 ../apps/bees/src/ops/op_enc.o
 .data          0x00000000        0x0 ../apps/bees/src/ops/op_enc.o
 .bss           0x00000000        0x0 ../apps/bees/src/ops/op_enc.o
 .text          0x00000000        0x0 ../apps/bees/src/ops/op_gate.o
 .data          0x00000000        0x0 ../apps/bees/src/ops/op_gate.o
 .bss           0x00000000        0x0 ../apps/bees/src/ops/op_gate.o
 .text          0x00000000        0x0 ../apps/bees/src/ops/op_mul.o
 .data          0x00000000        0x0 ../apps/bees/src/ops/op_mul.o
 .bss           0x00000000        0x0 ../apps/bees/src/ops/op_mul.o
 .text          0x00000000        0x0 ../apps/bees/src/ops/op_sw.o
 .data          0x00000000        0x0 ../apps/bees/src/ops/op_sw.o
 .bss           0x00000000        0x0 ../apps/bees/src/ops/op_sw.o
 .text          0x00000000        0x0 avr32/drivers/intc/exception.o
 .data          0x00000000        0x0 avr32/drivers/intc/exception.o
 .bss           0x00000000        0x0 avr32/drivers/intc/exception.o
 .text          0x00000000        0x0 avr32/utils/startup/startup_uc3.o
 .data          0x00000000        0x0 avr32/utils/startup/startup_uc3.o
 .bss           0x00000000        0x0 avr32/utils/startup/startup_uc3.o
 .reset         0x00000000        0x8 avr32/utils/startup/startup_uc3.o
 .text          0x00000000        0x0 avr32/utils/startup/trampoline_uc3.o
 .data          0x00000000        0x0 avr32/utils/startup/trampoline_uc3.o
 .bss           0x00000000        0x0 avr32/utils/startup/trampoline_uc3.o
 .data          0x00000000        0x0 /home/emb/avr32-gnu-toolchain/bin/../lib/gcc/avr32/4.4.3/ucr2/libgcc.a(_avr32_s32_to_f32.o)
 .bss           0x00000000        0x0 /home/emb/avr32-gnu-toolchain/bin/../lib/gcc/avr32/4.4.3/ucr2/libgcc.a(_avr32_s32_to_f32.o)
 .data          0x00000000        0x0 /home/emb/avr32-gnu-toolchain/bin/../lib/gcc/avr32/4.4.3/ucr2/libgcc.a(_avr32_f32_to_s32.o)
 .bss           0x00000000        0x0 /home/emb/avr32-gnu-toolchain/bin/../lib/gcc/avr32/4.4.3/ucr2/libgcc.a(_avr32_f32_to_s32.o)
 .data          0x00000000        0x0 /home/emb/avr32-gnu-toolchain/bin/../lib/gcc/avr32/4.4.3/ucr2/libgcc.a(_udivdi3.o)
 .bss           0x00000000        0x0 /home/emb/avr32-gnu-toolchain/bin/../lib/gcc/avr32/4.4.3/ucr2/libgcc.a(_udivdi3.o)
 .text          0x00000000        0x0 /home/emb/avr32-gnu-toolchain/bin/../lib/gcc/avr32/4.4.3/../../../../avr32/lib/ucr2/libc.a(lib_a-malloc.o)
 .data          0x00000000        0x0 /home/emb/avr32-gnu-toolchain/bin/../lib/gcc/avr32/4.4.3/../../../../avr32/lib/ucr2/libc.a(lib_a-malloc.o)
 .bss           0x00000000        0x0 /home/emb/avr32-gnu-toolchain/bin/../lib/gcc/avr32/4.4.3/../../../../avr32/lib/ucr2/libc.a(lib_a-malloc.o)
 .text          0x00000000        0x0 /home/emb/avr32-gnu-toolchain/bin/../lib/gcc/avr32/4.4.3/../../../../avr32/lib/ucr2/libc.a(lib_a-mallocr.o)
 .data          0x00000000        0x0 /home/emb/avr32-gnu-toolchain/bin/../lib/gcc/avr32/4.4.3/../../../../avr32/lib/ucr2/libc.a(lib_a-mallocr.o)
 .bss           0x00000000        0x0 /home/emb/avr32-gnu-toolchain/bin/../lib/gcc/avr32/4.4.3/../../../../avr32/lib/ucr2/libc.a(lib_a-mallocr.o)
 .data          0x00000000        0x0 /home/emb/avr32-gnu-toolchain/bin/../lib/gcc/avr32/4.4.3/../../../../avr32/lib/ucr2/libc.a(lib_a-memcpy.o)
 .bss           0x00000000        0x0 /home/emb/avr32-gnu-toolchain/bin/../lib/gcc/avr32/4.4.3/../../../../avr32/lib/ucr2/libc.a(lib_a-memcpy.o)
 .text          0x00000000        0x0 /home/emb/avr32-gnu-toolchain/bin/../lib/gcc/avr32/4.4.3/../../../../avr32/lib/ucr2/libc.a(lib_a-memset.o)
 .data          0x00000000        0x0 /home/emb/avr32-gnu-toolchain/bin/../lib/gcc/avr32/4.4.3/../../../../avr32/lib/ucr2/libc.a(lib_a-memset.o)
 .bss           0x00000000        0x0 /home/emb/avr32-gnu-toolchain/bin/../lib/gcc/avr32/4.4.3/../../../../avr32/lib/ucr2/libc.a(lib_a-memset.o)
 .text          0x00000000        0x0 /home/emb/avr32-gnu-toolchain/bin/../lib/gcc/avr32/4.4.3/../../../../avr32/lib/ucr2/libc.a(lib_a-mlock.o)
 .data          0x00000000        0x0 /home/emb/avr32-gnu-toolchain/bin/../lib/gcc/avr32/4.4.3/../../../../avr32/lib/ucr2/libc.a(lib_a-mlock.o)
 .bss           0x00000000        0x0 /home/emb/avr32-gnu-toolchain/bin/../lib/gcc/avr32/4.4.3/../../../../avr32/lib/ucr2/libc.a(lib_a-mlock.o)
 .text          0x00000000        0x0 /home/emb/avr32-gnu-toolchain/bin/../lib/gcc/avr32/4.4.3/../../../../avr32/lib/ucr2/libc.a(lib_a-sbrkr.o)
 .data          0x00000000        0x0 /home/emb/avr32-gnu-toolchain/bin/../lib/gcc/avr32/4.4.3/../../../../avr32/lib/ucr2/libc.a(lib_a-sbrkr.o)
 .bss           0x00000000        0x0 /home/emb/avr32-gnu-toolchain/bin/../lib/gcc/avr32/4.4.3/../../../../avr32/lib/ucr2/libc.a(lib_a-sbrkr.o)
 .data          0x00000000        0x0 /home/emb/avr32-gnu-toolchain/bin/../lib/gcc/avr32/4.4.3/../../../../avr32/lib/ucr2/libc.a(lib_a-strcmp.o)
 .bss           0x00000000        0x0 /home/emb/avr32-gnu-toolchain/bin/../lib/gcc/avr32/4.4.3/../../../../avr32/lib/ucr2/libc.a(lib_a-strcmp.o)
 .text          0x00000000        0x0 /home/emb/avr32-gnu-toolchain/bin/../lib/gcc/avr32/4.4.3/../../../../avr32/lib/ucr2/libc.a(lib_a-strcpy.o)
 .data          0x00000000        0x0 /home/emb/avr32-gnu-toolchain/bin/../lib/gcc/avr32/4.4.3/../../../../avr32/lib/ucr2/libc.a(lib_a-strcpy.o)
 .bss           0x00000000        0x0 /home/emb/avr32-gnu-toolchain/bin/../lib/gcc/avr32/4.4.3/../../../../avr32/lib/ucr2/libc.a(lib_a-strcpy.o)
 .text          0x00000000        0x0 /home/emb/avr32-gnu-toolchain/bin/../lib/gcc/avr32/4.4.3/../../../../avr32/lib/ucr2/libc.a(lib_a-strlen.o)
 .data          0x00000000        0x0 /home/emb/avr32-gnu-toolchain/bin/../lib/gcc/avr32/4.4.3/../../../../avr32/lib/ucr2/libc.a(lib_a-strlen.o)
 .bss           0x00000000        0x0 /home/emb/avr32-gnu-toolchain/bin/../lib/gcc/avr32/4.4.3/../../../../avr32/lib/ucr2/libc.a(lib_a-strlen.o)
 .text          0x00000000        0x0 /home/emb/avr32-gnu-toolchain/bin/../lib/gcc/avr32/4.4.3/../../../../avr32/lib/ucr2/libc.a(lib_a-strncat.o)
 .data          0x00000000        0x0 /home/emb/avr32-gnu-toolchain/bin/../lib/gcc/avr32/4.4.3/../../../../avr32/lib/ucr2/libc.a(lib_a-strncat.o)
 .bss           0x00000000        0x0 /home/emb/avr32-gnu-toolchain/bin/../lib/gcc/avr32/4.4.3/../../../../avr32/lib/ucr2/libc.a(lib_a-strncat.o)
 .text          0x00000000        0x0 /home/emb/avr32-gnu-toolchain/bin/../lib/gcc/avr32/4.4.3/../../../../avr32/lib/ucr2/libc.a(lib_a-strncmp.o)
 .data          0x00000000        0x0 /home/emb/avr32-gnu-toolchain/bin/../lib/gcc/avr32/4.4.3/../../../../avr32/lib/ucr2/libc.a(lib_a-strncmp.o)
 .bss           0x00000000        0x0 /home/emb/avr32-gnu-toolchain/bin/../lib/gcc/avr32/4.4.3/../../../../avr32/lib/ucr2/libc.a(lib_a-strncmp.o)
 .data          0x00000000        0x0 /home/emb/avr32-gnu-toolchain/bin/../lib/gcc/avr32/4.4.3/../../../../avr32/lib/ucr2/libc.a(lib_a-strncpy.o)
 .bss           0x00000000        0x0 /home/emb/avr32-gnu-toolchain/bin/../lib/gcc/avr32/4.4.3/../../../../avr32/lib/ucr2/libc.a(lib_a-strncpy.o)
 .text          0x00000000        0x0 /home/emb/avr32-gnu-toolchain/bin/../lib/gcc/avr32/4.4.3/../../../../avr32/lib/ucr2/libc.a(lib_a-syscalls.o)
 .data          0x00000000        0x0 /home/emb/avr32-gnu-toolchain/bin/../lib/gcc/avr32/4.4.3/../../../../avr32/lib/ucr2/libc.a(lib_a-syscalls.o)
 .bss           0x00000000        0x0 /home/emb/avr32-gnu-toolchain/bin/../lib/gcc/avr32/4.4.3/../../../../avr32/lib/ucr2/libc.a(lib_a-syscalls.o)
 .text._init_startup
                0x00000000        0x2 /home/emb/avr32-gnu-toolchain/bin/../lib/gcc/avr32/4.4.3/../../../../avr32/lib/ucr2/libc.a(lib_a-syscalls.o)
 .text._init_argv
                0x00000000        0xa /home/emb/avr32-gnu-toolchain/bin/../lib/gcc/avr32/4.4.3/../../../../avr32/lib/ucr2/libc.a(lib_a-syscalls.o)
 .text._exit    0x00000000        0xa /home/emb/avr32-gnu-toolchain/bin/../lib/gcc/avr32/4.4.3/../../../../avr32/lib/ucr2/libc.a(lib_a-syscalls.o)
 .text._open    0x00000000       0x18 /home/emb/avr32-gnu-toolchain/bin/../lib/gcc/avr32/4.4.3/../../../../avr32/lib/ucr2/libc.a(lib_a-syscalls.o)
 .text._close   0x00000000       0x18 /home/emb/avr32-gnu-toolchain/bin/../lib/gcc/avr32/4.4.3/../../../../avr32/lib/ucr2/libc.a(lib_a-syscalls.o)
 .text._lseek   0x00000000       0x18 /home/emb/avr32-gnu-toolchain/bin/../lib/gcc/avr32/4.4.3/../../../../avr32/lib/ucr2/libc.a(lib_a-syscalls.o)
 .text._read    0x00000000       0x18 /home/emb/avr32-gnu-toolchain/bin/../lib/gcc/avr32/4.4.3/../../../../avr32/lib/ucr2/libc.a(lib_a-syscalls.o)
 .text._write   0x00000000       0x18 /home/emb/avr32-gnu-toolchain/bin/../lib/gcc/avr32/4.4.3/../../../../avr32/lib/ucr2/libc.a(lib_a-syscalls.o)
 .text.isatty   0x00000000       0x18 /home/emb/avr32-gnu-toolchain/bin/../lib/gcc/avr32/4.4.3/../../../../avr32/lib/ucr2/libc.a(lib_a-syscalls.o)
 .text._fstat_host
                0x00000000       0x18 /home/emb/avr32-gnu-toolchain/bin/../lib/gcc/avr32/4.4.3/../../../../avr32/lib/ucr2/libc.a(lib_a-syscalls.o)
 .text._stat_host
                0x00000000       0x18 /home/emb/avr32-gnu-toolchain/bin/../lib/gcc/avr32/4.4.3/../../../../avr32/lib/ucr2/libc.a(lib_a-syscalls.o)
 .text._fstat   0x00000000       0x50 /home/emb/avr32-gnu-toolchain/bin/../lib/gcc/avr32/4.4.3/../../../../avr32/lib/ucr2/libc.a(lib_a-syscalls.o)
 .text._stat    0x00000000       0x50 /home/emb/avr32-gnu-toolchain/bin/../lib/gcc/avr32/4.4.3/../../../../avr32/lib/ucr2/libc.a(lib_a-syscalls.o)
 .text._gettimeofday_host
                0x00000000       0x18 /home/emb/avr32-gnu-toolchain/bin/../lib/gcc/avr32/4.4.3/../../../../avr32/lib/ucr2/libc.a(lib_a-syscalls.o)
 .text._gettimeofday
                0x00000000       0x24 /home/emb/avr32-gnu-toolchain/bin/../lib/gcc/avr32/4.4.3/../../../../avr32/lib/ucr2/libc.a(lib_a-syscalls.o)
 .text._unlink  0x00000000       0x18 /home/emb/avr32-gnu-toolchain/bin/../lib/gcc/avr32/4.4.3/../../../../avr32/lib/ucr2/libc.a(lib_a-syscalls.o)
 .text._system  0x00000000       0x18 /home/emb/avr32-gnu-toolchain/bin/../lib/gcc/avr32/4.4.3/../../../../avr32/lib/ucr2/libc.a(lib_a-syscalls.o)
 .text._execve  0x00000000        0x2 /home/emb/avr32-gnu-toolchain/bin/../lib/gcc/avr32/4.4.3/../../../../avr32/lib/ucr2/libc.a(lib_a-syscalls.o)
 .text._fork    0x00000000        0x2 /home/emb/avr32-gnu-toolchain/bin/../lib/gcc/avr32/4.4.3/../../../../avr32/lib/ucr2/libc.a(lib_a-syscalls.o)
 .text._wait    0x00000000        0x2 /home/emb/avr32-gnu-toolchain/bin/../lib/gcc/avr32/4.4.3/../../../../avr32/lib/ucr2/libc.a(lib_a-syscalls.o)
 .text.sigfillset
                0x00000000        0x2 /home/emb/avr32-gnu-toolchain/bin/../lib/gcc/avr32/4.4.3/../../../../avr32/lib/ucr2/libc.a(lib_a-syscalls.o)
 .text.sigprocmask
                0x00000000        0x2 /home/emb/avr32-gnu-toolchain/bin/../lib/gcc/avr32/4.4.3/../../../../avr32/lib/ucr2/libc.a(lib_a-syscalls.o)
 .text._fcntl   0x00000000        0x2 /home/emb/avr32-gnu-toolchain/bin/../lib/gcc/avr32/4.4.3/../../../../avr32/lib/ucr2/libc.a(lib_a-syscalls.o)
 .text._link    0x00000000        0x2 /home/emb/avr32-gnu-toolchain/bin/../lib/gcc/avr32/4.4.3/../../../../avr32/lib/ucr2/libc.a(lib_a-syscalls.o)
 .text._kill    0x00000000        0x2 /home/emb/avr32-gnu-toolchain/bin/../lib/gcc/avr32/4.4.3/../../../../avr32/lib/ucr2/libc.a(lib_a-syscalls.o)
 .text._getpid  0x00000000        0x2 /home/emb/avr32-gnu-toolchain/bin/../lib/gcc/avr32/4.4.3/../../../../avr32/lib/ucr2/libc.a(lib_a-syscalls.o)
 .text._times   0x00000000       0x12 /home/emb/avr32-gnu-toolchain/bin/../lib/gcc/avr32/4.4.3/../../../../avr32/lib/ucr2/libc.a(lib_a-syscalls.o)
 .text          0x00000000        0x0 /home/emb/avr32-gnu-toolchain/bin/../lib/gcc/avr32/4.4.3/../../../../avr32/lib/ucr2/libc.a(lib_a-errno.o)
 .data          0x00000000        0x0 /home/emb/avr32-gnu-toolchain/bin/../lib/gcc/avr32/4.4.3/../../../../avr32/lib/ucr2/libc.a(lib_a-errno.o)
 .bss           0x00000000        0x0 /home/emb/avr32-gnu-toolchain/bin/../lib/gcc/avr32/4.4.3/../../../../avr32/lib/ucr2/libc.a(lib_a-errno.o)
 .text          0x00000000        0x0 /home/emb/avr32-gnu-toolchain/bin/../lib/gcc/avr32/4.4.3/../../../../avr32/lib/ucr2/libc.a(lib_a-freer.o)
 .data          0x00000000        0x0 /home/emb/avr32-gnu-toolchain/bin/../lib/gcc/avr32/4.4.3/../../../../avr32/lib/ucr2/libc.a(lib_a-freer.o)
 .bss           0x00000000        0x0 /home/emb/avr32-gnu-toolchain/bin/../lib/gcc/avr32/4.4.3/../../../../avr32/lib/ucr2/libc.a(lib_a-freer.o)
 .text          0x00000000        0x0 /home/emb/avr32-gnu-toolchain/bin/../lib/gcc/avr32/4.4.3/../../../../avr32/lib/ucr2/libc.a(lib_a-impure.o)
 .data          0x00000000        0x0 /home/emb/avr32-gnu-toolchain/bin/../lib/gcc/avr32/4.4.3/../../../../avr32/lib/ucr2/libc.a(lib_a-impure.o)
 .bss           0x00000000        0x0 /home/emb/avr32-gnu-toolchain/bin/../lib/gcc/avr32/4.4.3/../../../../avr32/lib/ucr2/libc.a(lib_a-impure.o)
 .rodata._global_impure_ptr
                0x00000000        0x4 /home/emb/avr32-gnu-toolchain/bin/../lib/gcc/avr32/4.4.3/../../../../avr32/lib/ucr2/libc.a(lib_a-impure.o)
 .text          0x00000000        0x0 /home/emb/avr32-gnu-toolchain/bin/../lib/gcc/avr32/4.4.3/../../../../avr32/lib/ucr2/libc.a(lib_a-reent.o)
 .data          0x00000000        0x0 /home/emb/avr32-gnu-toolchain/bin/../lib/gcc/avr32/4.4.3/../../../../avr32/lib/ucr2/libc.a(lib_a-reent.o)
 .bss           0x00000000        0x0 /home/emb/avr32-gnu-toolchain/bin/../lib/gcc/avr32/4.4.3/../../../../avr32/lib/ucr2/libc.a(lib_a-reent.o)
 .text._wrapup_reent
                0x00000000       0x3c /home/emb/avr32-gnu-toolchain/bin/../lib/gcc/avr32/4.4.3/../../../../avr32/lib/ucr2/libc.a(lib_a-reent.o)
 .text.cleanup_glue
                0x00000000       0x24 /home/emb/avr32-gnu-toolchain/bin/../lib/gcc/avr32/4.4.3/../../../../avr32/lib/ucr2/libc.a(lib_a-reent.o)
 .text._reclaim_reent
                0x00000000       0xd4 /home/emb/avr32-gnu-toolchain/bin/../lib/gcc/avr32/4.4.3/../../../../avr32/lib/ucr2/libc.a(lib_a-reent.o)
 .text          0x00000000        0x0 /home/emb/avr32-gnu-toolchain/bin/../lib/gcc/avr32/4.4.3/../../../../avr32/lib/ucr2/libc.a(lib_a-findfp.o)
 .data          0x00000000        0x0 /home/emb/avr32-gnu-toolchain/bin/../lib/gcc/avr32/4.4.3/../../../../avr32/lib/ucr2/libc.a(lib_a-findfp.o)
 .bss           0x00000000        0x0 /home/emb/avr32-gnu-toolchain/bin/../lib/gcc/avr32/4.4.3/../../../../avr32/lib/ucr2/libc.a(lib_a-findfp.o)
 .text.__sfp_lock_acquire
                0x00000000        0x2 /home/emb/avr32-gnu-toolchain/bin/../lib/gcc/avr32/4.4.3/../../../../avr32/lib/ucr2/libc.a(lib_a-findfp.o)
 .text.__sfp_lock_release
                0x00000000        0x2 /home/emb/avr32-gnu-toolchain/bin/../lib/gcc/avr32/4.4.3/../../../../avr32/lib/ucr2/libc.a(lib_a-findfp.o)
 .text.__sinit_lock_acquire
                0x00000000        0x2 /home/emb/avr32-gnu-toolchain/bin/../lib/gcc/avr32/4.4.3/../../../../avr32/lib/ucr2/libc.a(lib_a-findfp.o)
 .text.__sinit_lock_release
                0x00000000        0x2 /home/emb/avr32-gnu-toolchain/bin/../lib/gcc/avr32/4.4.3/../../../../avr32/lib/ucr2/libc.a(lib_a-findfp.o)
 .text.__fp_lock
                0x00000000        0x2 /home/emb/avr32-gnu-toolchain/bin/../lib/gcc/avr32/4.4.3/../../../../avr32/lib/ucr2/libc.a(lib_a-findfp.o)
 .text.__fp_unlock
                0x00000000        0x2 /home/emb/avr32-gnu-toolchain/bin/../lib/gcc/avr32/4.4.3/../../../../avr32/lib/ucr2/libc.a(lib_a-findfp.o)
 .text.__fp_unlock_all
                0x00000000       0x1c /home/emb/avr32-gnu-toolchain/bin/../lib/gcc/avr32/4.4.3/../../../../avr32/lib/ucr2/libc.a(lib_a-findfp.o)
 .text.__fp_lock_all
                0x00000000       0x1c /home/emb/avr32-gnu-toolchain/bin/../lib/gcc/avr32/4.4.3/../../../../avr32/lib/ucr2/libc.a(lib_a-findfp.o)
 .text._cleanup_r
                0x00000000       0x14 /home/emb/avr32-gnu-toolchain/bin/../lib/gcc/avr32/4.4.3/../../../../avr32/lib/ucr2/libc.a(lib_a-findfp.o)
 .text._cleanup
                0x00000000       0x14 /home/emb/avr32-gnu-toolchain/bin/../lib/gcc/avr32/4.4.3/../../../../avr32/lib/ucr2/libc.a(lib_a-findfp.o)
 .text.__sfmoreglue
                0x00000000       0x30 /home/emb/avr32-gnu-toolchain/bin/../lib/gcc/avr32/4.4.3/../../../../avr32/lib/ucr2/libc.a(lib_a-findfp.o)
 .text.__sfp    0x00000000       0x7c /home/emb/avr32-gnu-toolchain/bin/../lib/gcc/avr32/4.4.3/../../../../avr32/lib/ucr2/libc.a(lib_a-findfp.o)
 .text.__sinit  0x00000000       0xb0 /home/emb/avr32-gnu-toolchain/bin/../lib/gcc/avr32/4.4.3/../../../../avr32/lib/ucr2/libc.a(lib_a-findfp.o)
 .text          0x00000000        0x0 /home/emb/avr32-gnu-toolchain/bin/../lib/gcc/avr32/4.4.3/../../../../avr32/lib/ucr2/libc.a(lib_a-fwalk.o)
 .data          0x00000000        0x0 /home/emb/avr32-gnu-toolchain/bin/../lib/gcc/avr32/4.4.3/../../../../avr32/lib/ucr2/libc.a(lib_a-fwalk.o)
 .bss           0x00000000        0x0 /home/emb/avr32-gnu-toolchain/bin/../lib/gcc/avr32/4.4.3/../../../../avr32/lib/ucr2/libc.a(lib_a-fwalk.o)
 .text._fwalk_reent
                0x00000000       0x58 /home/emb/avr32-gnu-toolchain/bin/../lib/gcc/avr32/4.4.3/../../../../avr32/lib/ucr2/libc.a(lib_a-fwalk.o)
 .text._fwalk   0x00000000       0x54 /home/emb/avr32-gnu-toolchain/bin/../lib/gcc/avr32/4.4.3/../../../../avr32/lib/ucr2/libc.a(lib_a-fwalk.o)
 .comment       0x00000000       0x31 /home/emb/avr32-gnu-toolchain/bin/../lib/gcc/avr32/4.4.3/../../../../avr32/lib/ucr2/libc.a(lib_a-fwalk.o)
 .text          0x00000000        0x0 /home/emb/avr32-gnu-toolchain/bin/../lib/gcc/avr32/4.4.3/../../../../avr32/lib/ucr2/libc.a(lib_a-stdio.o)
 .data          0x00000000        0x0 /home/emb/avr32-gnu-toolchain/bin/../lib/gcc/avr32/4.4.3/../../../../avr32/lib/ucr2/libc.a(lib_a-stdio.o)
 .bss           0x00000000        0x0 /home/emb/avr32-gnu-toolchain/bin/../lib/gcc/avr32/4.4.3/../../../../avr32/lib/ucr2/libc.a(lib_a-stdio.o)
 .text.__sclose
                0x00000000       0x10 /home/emb/avr32-gnu-toolchain/bin/../lib/gcc/avr32/4.4.3/../../../../avr32/lib/ucr2/libc.a(lib_a-stdio.o)
 .text.__sseek  0x00000000       0x2c /home/emb/avr32-gnu-toolchain/bin/../lib/gcc/avr32/4.4.3/../../../../avr32/lib/ucr2/libc.a(lib_a-stdio.o)
 .text.__swrite
                0x00000000       0x38 /home/emb/avr32-gnu-toolchain/bin/../lib/gcc/avr32/4.4.3/../../../../avr32/lib/ucr2/libc.a(lib_a-stdio.o)
 .text.__sread  0x00000000       0x24 /home/emb/avr32-gnu-toolchain/bin/../lib/gcc/avr32/4.4.3/../../../../avr32/lib/ucr2/libc.a(lib_a-stdio.o)
 .comment       0x00000000       0x31 /home/emb/avr32-gnu-toolchain/bin/../lib/gcc/avr32/4.4.3/../../../../avr32/lib/ucr2/libc.a(lib_a-stdio.o)
 .text          0x00000000        0x0 /home/emb/avr32-gnu-toolchain/bin/../lib/gcc/avr32/4.4.3/../../../../avr32/lib/ucr2/libc.a(lib_a-writer.o)
 .data          0x00000000        0x0 /home/emb/avr32-gnu-toolchain/bin/../lib/gcc/avr32/4.4.3/../../../../avr32/lib/ucr2/libc.a(lib_a-writer.o)
 .bss           0x00000000        0x0 /home/emb/avr32-gnu-toolchain/bin/../lib/gcc/avr32/4.4.3/../../../../avr32/lib/ucr2/libc.a(lib_a-writer.o)
 .text._write_r
                0x00000000       0x2c /home/emb/avr32-gnu-toolchain/bin/../lib/gcc/avr32/4.4.3/../../../../avr32/lib/ucr2/libc.a(lib_a-writer.o)
 .comment       0x00000000       0x31 /home/emb/avr32-gnu-toolchain/bin/../lib/gcc/avr32/4.4.3/../../../../avr32/lib/ucr2/libc.a(lib_a-writer.o)
 .text          0x00000000        0x0 /home/emb/avr32-gnu-toolchain/bin/../lib/gcc/avr32/4.4.3/../../../../avr32/lib/ucr2/libc.a(lib_a-closer.o)
 .data          0x00000000        0x0 /home/emb/avr32-gnu-toolchain/bin/../lib/gcc/avr32/4.4.3/../../../../avr32/lib/ucr2/libc.a(lib_a-closer.o)
 .bss           0x00000000        0x0 /home/emb/avr32-gnu-toolchain/bin/../lib/gcc/avr32/4.4.3/../../../../avr32/lib/ucr2/libc.a(lib_a-closer.o)
 .text._close_r
                0x00000000       0x28 /home/emb/avr32-gnu-toolchain/bin/../lib/gcc/avr32/4.4.3/../../../../avr32/lib/ucr2/libc.a(lib_a-closer.o)
 .comment       0x00000000       0x31 /home/emb/avr32-gnu-toolchain/bin/../lib/gcc/avr32/4.4.3/../../../../avr32/lib/ucr2/libc.a(lib_a-closer.o)
 .text          0x00000000        0x0 /home/emb/avr32-gnu-toolchain/bin/../lib/gcc/avr32/4.4.3/../../../../avr32/lib/ucr2/libc.a(lib_a-fclose.o)
 .data          0x00000000        0x0 /home/emb/avr32-gnu-toolchain/bin/../lib/gcc/avr32/4.4.3/../../../../avr32/lib/ucr2/libc.a(lib_a-fclose.o)
 .bss           0x00000000        0x0 /home/emb/avr32-gnu-toolchain/bin/../lib/gcc/avr32/4.4.3/../../../../avr32/lib/ucr2/libc.a(lib_a-fclose.o)
 .text._fclose_r
                0x00000000       0xd0 /home/emb/avr32-gnu-toolchain/bin/../lib/gcc/avr32/4.4.3/../../../../avr32/lib/ucr2/libc.a(lib_a-fclose.o)
 .text.fclose   0x00000000       0x18 /home/emb/avr32-gnu-toolchain/bin/../lib/gcc/avr32/4.4.3/../../../../avr32/lib/ucr2/libc.a(lib_a-fclose.o)
 .comment       0x00000000       0x31 /home/emb/avr32-gnu-toolchain/bin/../lib/gcc/avr32/4.4.3/../../../../avr32/lib/ucr2/libc.a(lib_a-fclose.o)
 .text          0x00000000        0x0 /home/emb/avr32-gnu-toolchain/bin/../lib/gcc/avr32/4.4.3/../../../../avr32/lib/ucr2/libc.a(lib_a-fflush.o)
 .data          0x00000000        0x0 /home/emb/avr32-gnu-toolchain/bin/../lib/gcc/avr32/4.4.3/../../../../avr32/lib/ucr2/libc.a(lib_a-fflush.o)
 .bss           0x00000000        0x0 /home/emb/avr32-gnu-toolchain/bin/../lib/gcc/avr32/4.4.3/../../../../avr32/lib/ucr2/libc.a(lib_a-fflush.o)
 .text._fflush_r
                0x00000000      0x118 /home/emb/avr32-gnu-toolchain/bin/../lib/gcc/avr32/4.4.3/../../../../avr32/lib/ucr2/libc.a(lib_a-fflush.o)
 .text.fflush   0x00000000       0x30 /home/emb/avr32-gnu-toolchain/bin/../lib/gcc/avr32/4.4.3/../../../../avr32/lib/ucr2/libc.a(lib_a-fflush.o)
 .comment       0x00000000       0x31 /home/emb/avr32-gnu-toolchain/bin/../lib/gcc/avr32/4.4.3/../../../../avr32/lib/ucr2/libc.a(lib_a-fflush.o)
 .text          0x00000000        0x0 /home/emb/avr32-gnu-toolchain/bin/../lib/gcc/avr32/4.4.3/../../../../avr32/lib/ucr2/libc.a(lib_a-lseekr.o)
 .data          0x00000000        0x0 /home/emb/avr32-gnu-toolchain/bin/../lib/gcc/avr32/4.4.3/../../../../avr32/lib/ucr2/libc.a(lib_a-lseekr.o)
 .bss           0x00000000        0x0 /home/emb/avr32-gnu-toolchain/bin/../lib/gcc/avr32/4.4.3/../../../../avr32/lib/ucr2/libc.a(lib_a-lseekr.o)
 .text._lseek_r
                0x00000000       0x2c /home/emb/avr32-gnu-toolchain/bin/../lib/gcc/avr32/4.4.3/../../../../avr32/lib/ucr2/libc.a(lib_a-lseekr.o)
 .comment       0x00000000       0x31 /home/emb/avr32-gnu-toolchain/bin/../lib/gcc/avr32/4.4.3/../../../../avr32/lib/ucr2/libc.a(lib_a-lseekr.o)
 .text          0x00000000        0x0 /home/emb/avr32-gnu-toolchain/bin/../lib/gcc/avr32/4.4.3/../../../../avr32/lib/ucr2/libc.a(lib_a-readr.o)
 .data          0x00000000        0x0 /home/emb/avr32-gnu-toolchain/bin/../lib/gcc/avr32/4.4.3/../../../../avr32/lib/ucr2/libc.a(lib_a-readr.o)
 .bss           0x00000000        0x0 /home/emb/avr32-gnu-toolchain/bin/../lib/gcc/avr32/4.4.3/../../../../avr32/lib/ucr2/libc.a(lib_a-readr.o)
 .text._read_r  0x00000000       0x2c /home/emb/avr32-gnu-toolchain/bin/../lib/gcc/avr32/4.4.3/../../../../avr32/lib/ucr2/libc.a(lib_a-readr.o)
 .comment       0x00000000       0x31 /home/emb/avr32-gnu-toolchain/bin/../lib/gcc/avr32/4.4.3/../../../../avr32/lib/ucr2/libc.a(lib_a-readr.o)

Memory Configuration

Name             Origin             Length             Attributes
FLASH            0x80010000         0x00070000         axrl !w
INTRAM           0x00000004         0x0000fffc         axw !rl
USERPAGE         0x80800000         0x00000200
*default*        0x00000000         0xffffffff

Linker script and memory map

                0x00001000                _stack_size = 0x1000
                0xffffffff                __max_heap_size__ = 0xffffffff
                [0xffffffff]                __heap_size__ = DEFINED (__heap_size__)?__heap_size__:__max_heap_size__
                [0x00001000]                __stack_size__ = DEFINED (__stack_size__)?__stack_size__:0x1000
                [0x00040000]                __flash_nvram_size__ = DEFINED (__flash_nvram_size__)?__flash_nvram_size__:0x40000
                0x80000000                PROVIDE (__executable_start, 0x80000000)
                0x80000000                . = 0x80000000

.interp
 *(.interp)

.reset          0x80010000     0x2008
 *(.reset)
 .reset         0x80010000     0x2008 avr32/utils/startup/trampoline_uc3.o
                0x80010000                _trampoline

.hash
 *(.hash)

.dynsym
 *(.dynsym)

.dynstr
 *(.dynstr)

.gnu.version
 *(.gnu.version)

.gnu.version_d
 *(.gnu.version_d)

.gnu.version_r
 *(.gnu.version_r)

.rel.init
 *(.rel.init)

.rela.init
 *(.rela.init)

.rel.text
 *(.rel.text .rel.text.* .rel.gnu.linkonce.t.*)

.rela.text
 *(.rela.text .rela.text.* .rela.gnu.linkonce.t.*)

.rel.fini
 *(.rel.fini)

.rela.fini
 *(.rela.fini)

.rel.rodata
 *(.rel.rodata .rel.rodata.* .rel.gnu.linkonce.r.*)

.rela.rodata
 *(.rela.rodata .rela.rodata.* .rela.gnu.linkonce.r.*)

.rel.data.rel.ro
 *(.rel.data.rel.ro*)

.rela.data.rel.ro
 *(.rel.data.rel.ro*)

.rel.data
 *(.rel.data .rel.data.* .rel.gnu.linkonce.d.*)

.rela.data
 *(.rela.data .rela.data.* .rela.gnu.linkonce.d.*)

.rel.tdata
 *(.rel.tdata .rel.tdata.* .rel.gnu.linkonce.td.*)

.rela.tdata
 *(.rela.tdata .rela.tdata.* .rela.gnu.linkonce.td.*)

.rel.tbss
 *(.rel.tbss .rel.tbss.* .rel.gnu.linkonce.tb.*)

.rela.tbss
 *(.rela.tbss .rela.tbss.* .rela.gnu.linkonce.tb.*)

.rel.ctors
 *(.rel.ctors)

.rela.ctors
 *(.rela.ctors)

.rel.dtors
 *(.rel.dtors)

.rela.dtors
 *(.rela.dtors)

.rel.got
 *(.rel.got)

.rela.got       0x80012008        0x0
 *(.rela.got)
 .rela.got      0x80012008        0x0 avr32/drivers/flashc/flashc.o

.rel.bss
 *(.rel.bss .rel.bss.* .rel.gnu.linkonce.b.*)

.rela.bss
 *(.rela.bss .rela.bss.* .rela.gnu.linkonce.b.*)

.rel.plt
 *(.rel.plt)

.rela.plt
 *(.rela.plt)

.init
 *(.init)

.plt
 *(.plt)

.text           0x80012008     0xf6dc
 *(.text .stub .text.* .gnu.linkonce.t.*)
 .text.smc_get_cs_size
                0x80012008        0xc avr32/drivers/ebi/smc/smc.o
                0x80012008                smc_get_cs_size
 .text.smc_init
                0x80012014       0x98 avr32/drivers/ebi/smc/smc.o
                                 0xa0 (size before relaxing)
                0x80012014                smc_init
 .text.flashc_set_wait_state
                0x800120ac        0xe avr32/drivers/flashc/flashc.o
                0x800120ac                flashc_set_wait_state
 .text.flashc_set_bus_freq
                0x800120ba       0x2e avr32/drivers/flashc/flashc.o
                0x800120ba                flashc_set_bus_freq
 .text.flashc_default_wait_until_ready
                0x800120e8       0x14 avr32/drivers/flashc/flashc.o
                0x800120e8                flashc_default_wait_until_ready
 .text.flashc_memcpy
                0x800120fc      0x28c avr32/drivers/flashc/flashc.o
                                0x294 (size before relaxing)
                0x800120fc                flashc_memcpy
 .text.flashc_memset64
                0x80012388      0x330 avr32/drivers/flashc/flashc.o
                                0x338 (size before relaxing)
                0x80012388                flashc_memset64
 .text.flashc_memset32
                0x800126b8       0x1c avr32/drivers/flashc/flashc.o
                                 0x24 (size before relaxing)
                0x800126b8                flashc_memset32
 .text.gpio_enable_pin_pull_up
                0x800126d4       0x14 avr32/drivers/gpio/gpio.o
                0x800126d4                gpio_enable_pin_pull_up
 .text.gpio_get_pin_value
                0x800126e8       0x16 avr32/drivers/gpio/gpio.o
                0x800126e8                gpio_get_pin_value
 .text.gpio_set_gpio_pin
                0x800126fe       0x1a avr32/drivers/gpio/gpio.o
                0x800126fe                gpio_set_gpio_pin
 .text.gpio_clr_gpio_pin
                0x80012718       0x1a avr32/drivers/gpio/gpio.o
                0x80012718                gpio_clr_gpio_pin
 .text.gpio_enable_pin_glitch_filter
                0x80012732       0x14 avr32/drivers/gpio/gpio.o
                0x80012732                gpio_enable_pin_glitch_filter
 .text.gpio_enable_pin_interrupt
                0x80012746       0x4a avr32/drivers/gpio/gpio.o
                0x80012746                gpio_enable_pin_interrupt
 .text.gpio_get_pin_interrupt_flag
                0x80012790       0x18 avr32/drivers/gpio/gpio.o
                0x80012790                gpio_get_pin_interrupt_flag
 .text.gpio_clear_pin_interrupt_flag
                0x800127a8       0x14 avr32/drivers/gpio/gpio.o
                0x800127a8                gpio_clear_pin_interrupt_flag
 .text.gpio_enable_module
                0x800127bc       0x78 avr32/drivers/gpio/gpio.o
                0x800127bc                gpio_enable_module
 .text._unhandled_interrupt
                0x80012834        0x2 avr32/drivers/intc/intc.o
 *fill*         0x80012836        0x2 d703d703
 .text.INTC_register_interrupt
                0x80012838       0x88 avr32/drivers/intc/intc.o
                0x80012838                INTC_register_interrupt
 .text.INTC_init_interrupts
                0x800128c0       0x4c avr32/drivers/intc/intc.o
                                 0x50 (size before relaxing)
                0x800128c0                INTC_init_interrupts
 .text._get_interrupt_handler
                0x8001290c       0x38 avr32/drivers/intc/intc.o
                0x8001290c                _get_interrupt_handler
 .text.pdca_get_handler
                0x80012944       0x14 avr32/drivers/pdca/pdca.o
                0x80012944                pdca_get_handler
 .text.pdca_disable
                0x80012958       0x1e avr32/drivers/pdca/pdca.o
                0x80012958                pdca_disable
 .text.pdca_enable_interrupt_transfer_complete
                0x80012976       0x1e avr32/drivers/pdca/pdca.o
                0x80012976                pdca_enable_interrupt_transfer_complete
 .text.pdca_disable_interrupt_transfer_complete
                0x80012994       0x2a avr32/drivers/pdca/pdca.o
                0x80012994                pdca_disable_interrupt_transfer_complete
 .text.pdca_load_channel
                0x800129be       0x30 avr32/drivers/pdca/pdca.o
                0x800129be                pdca_load_channel
 .text.pdca_init_channel
                0x800129ee       0x86 avr32/drivers/pdca/pdca.o
                0x800129ee                pdca_init_channel
 .text.getBaudDiv
                0x80012a74       0x20 avr32/drivers/spi/spi.o
                0x80012a74                getBaudDiv
 .text.spi_initMaster
                0x80012a94       0x3e avr32/drivers/spi/spi.o
                0x80012a94                spi_initMaster
 .text.spi_selectionMode
                0x80012ad2       0x2a avr32/drivers/spi/spi.o
                0x80012ad2                spi_selectionMode
 .text.spi_selectChip
                0x80012afc       0x50 avr32/drivers/spi/spi.o
                0x80012afc                spi_selectChip
 .text.spi_unselectChip
                0x80012b4c       0x26 avr32/drivers/spi/spi.o
                0x80012b4c                spi_unselectChip
 *fill*         0x80012b72        0x2 d703d703
 .text.spi_setupChipReg
                0x80012b74       0xac avr32/drivers/spi/spi.o
                                 0xb0 (size before relaxing)
                0x80012b74                spi_setupChipReg
 .text.spi_enable
                0x80012c20        0x6 avr32/drivers/spi/spi.o
                0x80012c20                spi_enable
 .text.spi_write
                0x80012c26       0x1c avr32/drivers/spi/spi.o
                0x80012c26                spi_write
 .text.spi_read
                0x80012c42       0x22 avr32/drivers/spi/spi.o
                0x80012c42                spi_read
 .text.tc_init_waveform
                0x80012c64       0x9e avr32/drivers/tc/tc.o
                0x80012c64                tc_init_waveform
 .text.tc_start
                0x80012d02       0x12 avr32/drivers/tc/tc.o
                0x80012d02                tc_start
 .text.tc_read_sr
                0x80012d14       0x12 avr32/drivers/tc/tc.o
                0x80012d14                tc_read_sr
 .text.tc_write_rc
                0x80012d26       0x38 avr32/drivers/tc/tc.o
                0x80012d26                tc_write_rc
 .text.tc_configure_interrupts
                0x80012d5e       0xd0 avr32/drivers/tc/tc.o
                0x80012d5e                tc_configure_interrupts
 .text.usart_set_async_baudrate
                0x80012e2e       0x5e avr32/drivers/usart/usart.o
 .text.usart_write_line
                0x80012e8c       0x2c avr32/drivers/usart/usart.o
                0x80012e8c                usart_write_line
 .text.usart_init_rs232
                0x80012eb8       0xe4 avr32/drivers/usart/usart.o
                                 0xec (size before relaxing)
                0x80012eb8                usart_init_rs232
 .text.print_dbg_hex
                0x80012f9c       0x6c avr32/utils/debug/print_funcs.o
                                 0x74 (size before relaxing)
                0x80012f9c                print_dbg_hex
 .text.print_dbg_ulong
                0x80013008       0x44 avr32/utils/debug/print_funcs.o
                                 0x4c (size before relaxing)
                0x80013008                print_dbg_ulong
 .text.print_dbg
                0x8001304c        0xc avr32/utils/debug/print_funcs.o
                                 0x14 (size before relaxing)
                0x8001304c                print_dbg
 .text.sd_mmc_spi_get_capacity
                0x80013058      0x114 avr32/components/memory/sd_mmc/sd_mmc_spi/sd_mmc_spi.o
                                0x118 (size before relaxing)
                0x80013058                sd_mmc_spi_get_capacity
 .text.sd_mmc_spi_write_close
                0x8001316c        0x2 avr32/components/memory/sd_mmc/sd_mmc_spi/sd_mmc_spi.o
                0x8001316c                sd_mmc_spi_write_close
 *fill*         0x8001316e        0x2 d703d703
 .text.sd_mmc_spi_read_close_PDCA
                0x80013170       0x40 avr32/components/memory/sd_mmc/sd_mmc_spi/sd_mmc_spi.o
                                 0x48 (size before relaxing)
                0x80013170                sd_mmc_spi_read_close_PDCA
 .text.sd_mmc_spi_wait_not_busy
                0x800131b0       0x68 avr32/components/memory/sd_mmc/sd_mmc_spi/sd_mmc_spi.o
                                 0x7c (size before relaxing)
                0x800131b0                sd_mmc_spi_wait_not_busy
 .text.sd_mmc_spi_write_open
                0x80013218       0x10 avr32/components/memory/sd_mmc/sd_mmc_spi/sd_mmc_spi.o
                                 0x18 (size before relaxing)
                0x80013218                sd_mmc_spi_write_open
 .text.sd_mmc_spi_command
                0x80013228      0x298 avr32/components/memory/sd_mmc/sd_mmc_spi/sd_mmc_spi.o
                                0x2a4 (size before relaxing)
                0x80013228                sd_mmc_spi_command
 .text.sd_mmc_spi_read_open_PDCA
                0x800134c0       0xac avr32/components/memory/sd_mmc/sd_mmc_spi/sd_mmc_spi.o
                                 0xd0 (size before relaxing)
                0x800134c0                sd_mmc_spi_read_open_PDCA
 .text.sd_mmc_spi_check_hc
                0x8001356c       0xe0 avr32/components/memory/sd_mmc/sd_mmc_spi/sd_mmc_spi.o
                                 0xfc (size before relaxing)
                0x8001356c                sd_mmc_spi_check_hc
 .text.sd_mmc_spi_write_sector_from_ram
                0x8001364c      0x154 avr32/components/memory/sd_mmc/sd_mmc_spi/sd_mmc_spi.o
                                0x170 (size before relaxing)
                0x8001364c                sd_mmc_spi_write_sector_from_ram
 .text.sd_mmc_spi_get_if
                0x800137a0      0x114 avr32/components/memory/sd_mmc/sd_mmc_spi/sd_mmc_spi.o
                                0x12c (size before relaxing)
                0x800137a0                sd_mmc_spi_get_if
 .text.sd_mmc_spi_internal_init
                0x800138b4      0x794 avr32/components/memory/sd_mmc/sd_mmc_spi/sd_mmc_spi.o
                                0x7d0 (size before relaxing)
                0x800138b4                sd_mmc_spi_internal_init
 .text.sd_mmc_spi_init
                0x80014048       0x2c avr32/components/memory/sd_mmc/sd_mmc_spi/sd_mmc_spi.o
                                 0x34 (size before relaxing)
                0x80014048                sd_mmc_spi_init
 .text.sd_mmc_spi_mem_check
                0x80014074      0x2b0 avr32/components/memory/sd_mmc/sd_mmc_spi/sd_mmc_spi.o
                                0x2c8 (size before relaxing)
                0x80014074                sd_mmc_spi_mem_check
 .text.uhd_get_speed
                0x80014324       0x1c avr32/drivers/usbb/usbb_host.o
                0x80014324                uhd_get_speed
 .text.uhd_send_reset
                0x80014340       0x14 avr32/drivers/usbb/usbb_host.o
                0x80014340                uhd_send_reset
 .text.uhd_suspend
                0x80014354       0xb4 avr32/drivers/usbb/usbb_host.o
                                 0xbc (size before relaxing)
                0x80014354                uhd_suspend
 .text.uhd_ep_alloc
                0x80014408      0x1a6 avr32/drivers/usbb/usbb_host.o
                0x80014408                uhd_ep_alloc
 .text.uhd_ep0_alloc
                0x800145ae       0x88 avr32/drivers/usbb/usbb_host.o
                0x800145ae                uhd_ep0_alloc
 *fill*         0x80014636        0x2 d703d703
 .text.otg_dual_enable
                0x80014638       0x8c avr32/drivers/usbb/usbb_host.o
                                 0xa0 (size before relaxing)
                0x80014638                otg_dual_enable
 .text.uhd_enable
                0x800146c4       0xc8 avr32/drivers/usbb/usbb_host.o
                                 0xd8 (size before relaxing)
                0x800146c4                uhd_enable
 .text.uhd_disable
                0x8001478c       0xac avr32/drivers/usbb/usbb_host.o
                                 0xb8 (size before relaxing)
                0x8001478c                uhd_disable
 .text.uhd_ctrl_request_end
                0x80014838      0x1bc avr32/drivers/usbb/usbb_host.o
                                0x1cc (size before relaxing)
 .text.uhd_setup_request
                0x800149f4      0x12c avr32/drivers/usbb/usbb_host.o
                                0x140 (size before relaxing)
                0x800149f4                uhd_setup_request
 .text.uhd_ep_abort_pipe
                0x80014b20       0xcc avr32/drivers/usbb/usbb_host.o
                                 0xd0 (size before relaxing)
 .text.uhd_ep_free
                0x80014bec       0xd8 avr32/drivers/usbb/usbb_host.o
                                 0xe4 (size before relaxing)
                0x80014bec                uhd_ep_free
 .text.uhd_pipe_trans_complet
                0x80014cc4      0x220 avr32/drivers/usbb/usbb_host.o
                                0x224 (size before relaxing)
 .text.uhd_ep_run
                0x80014ee4      0x230 avr32/drivers/usbb/usbb_host.o
                                0x238 (size before relaxing)
                0x80014ee4                uhd_ep_run
 .text.otg_interrupt
                0x80015114      0xafc avr32/drivers/usbb/usbb_host.o
                                0xb48 (size before relaxing)
 .text.osc_enable
                0x80015c10       0x38 common/services/clock/uc3a0_a1/sysclk.o
 .text.sysclk_priv_disable_module
                0x80015c48       0x30 common/services/clock/uc3a0_a1/sysclk.o
                0x80015c48                sysclk_priv_disable_module
 .text.sysclk_priv_enable_module
                0x80015c78       0x2e common/services/clock/uc3a0_a1/sysclk.o
                0x80015c78                sysclk_priv_enable_module
 *fill*         0x80015ca6        0x2 d703d703
 .text.sysclk_disable_usb
                0x80015ca8       0x7c common/services/clock/uc3a0_a1/sysclk.o
                                 0x84 (size before relaxing)
                0x80015ca8                sysclk_disable_usb
 .text.sysclk_enable_pbb_module
                0x80015d24       0x78 common/services/clock/uc3a0_a1/sysclk.o
                0x80015d24                sysclk_enable_pbb_module
 .text.sysclk_enable_usb
                0x80015d9c       0xb8 common/services/clock/uc3a0_a1/sysclk.o
                                 0xc8 (size before relaxing)
                0x80015d9c                sysclk_enable_usb
 .text.sysclk_init
                0x80015e54       0x7c common/services/clock/uc3a0_a1/sysclk.o
                                 0x84 (size before relaxing)
                0x80015e54                sysclk_init
 .text.uhc_enumeration_step2
                0x80015ed0       0x14 common/services/usb/uhc/uhc.o
                                 0x1c (size before relaxing)
 .text.uhc_enumeration_step8
                0x80015ee4       0x14 common/services/usb/uhc/uhc.o
                                 0x1c (size before relaxing)
 .text.uhc_notify_sof
                0x80015ef8       0x44 common/services/usb/uhc/uhc.o
                                 0x48 (size before relaxing)
                0x80015ef8                uhc_notify_sof
 .text.uhc_stop
                0x80015f3c        0x8 common/services/usb/uhc/uhc.o
                                  0xc (size before relaxing)
                0x80015f3c                uhc_stop
 .text.uhc_start
                0x80015f44       0x1c common/services/usb/uhc/uhc.o
                                 0x24 (size before relaxing)
                0x80015f44                uhc_start
 .text.uhc_enumeration_step3
                0x80015f60        0xc common/services/usb/uhc/uhc.o
                                 0x14 (size before relaxing)
 .text.uhc_enumeration_step7
                0x80015f6c        0xc common/services/usb/uhc/uhc.o
                                 0x14 (size before relaxing)
 .text.uhc_enumeration_step4
                0x80015f78       0x20 common/services/usb/uhc/uhc.o
                                 0x2c (size before relaxing)
 .text.uhc_enumeration_error
                0x80015f98       0x68 common/services/usb/uhc/uhc.o
                                 0x80 (size before relaxing)
 .text.uhc_enumeration_step5
                0x80016000       0x58 common/services/usb/uhc/uhc.o
                                 0x6c (size before relaxing)
 .text.uhc_enumeration_step6
                0x80016058       0x48 common/services/usb/uhc/uhc.o
                                 0x58 (size before relaxing)
 .text.uhc_enumeration_step9
                0x800160a0       0x68 common/services/usb/uhc/uhc.o
                                 0x80 (size before relaxing)
 .text.uhc_enumeration_step10
                0x80016108       0x28 common/services/usb/uhc/uhc.o
                                 0x34 (size before relaxing)
 .text.uhc_enumeration_step11
                0x80016130       0x68 common/services/usb/uhc/uhc.o
                                 0x80 (size before relaxing)
 .text.uhc_enumeration_step12
                0x80016198       0x80 common/services/usb/uhc/uhc.o
                                 0x94 (size before relaxing)
 .text.uhc_enumeration_step13
                0x80016218       0xb4 common/services/usb/uhc/uhc.o
                                 0xd4 (size before relaxing)
 .text.uhc_enumeration_step15
                0x800162cc       0x70 common/services/usb/uhc/uhc.o
                                 0x74 (size before relaxing)
 .text.uhc_enumeration_step14
                0x8001633c      0x2a0 common/services/usb/uhc/uhc.o
                                0x2bc (size before relaxing)
 .text.uhc_notify_connection
                0x800165dc       0x78 common/services/usb/uhc/uhc.o
                                 0x90 (size before relaxing)
                0x800165dc                uhc_notify_connection
 .text.uhc_notify_resume
                0x80016654       0x44 common/services/usb/uhc/uhc.o
                                 0x50 (size before relaxing)
                0x80016654                uhc_notify_resume
 .text.init_adc
                0x80016698       0x90 ../src/adc.o
                                 0xa0 (size before relaxing)
                0x80016698                init_adc
 .text.adc_poll
                0x80016728      0x198 ../src/adc.o
                                0x1a8 (size before relaxing)
                0x80016728                adc_poll
 .text.init_app_timers
                0x800168c0       0x3c ../src/app_timers.o
                                 0x4c (size before relaxing)
                0x800168c0                init_app_timers
 .text.adc_timer_callback
                0x800168fc        0x8 ../src/app_timers.o
                                  0xc (size before relaxing)
 .text.screen_timer_callback
                0x80016904       0x24 ../src/app_timers.o
                                 0x2c (size before relaxing)
 .text.enc_timer_callback
                0x80016928       0x94 ../src/app_timers.o
                                 0xa4 (size before relaxing)
 .text.bfin_set_param
                0x800169bc       0xd8 ../src/bfin.o
                                 0xe8 (size before relaxing)
                0x800169bc                bfin_set_param
 .text.bfin_get_param_desc
                0x80016a94      0x69c ../src/bfin.o
                                0x6b0 (size before relaxing)
                0x80016a94                bfin_get_param_desc
 .text.bfin_get_num_params
                0x80017130       0x5c ../src/bfin.o
                                 0x6c (size before relaxing)
                0x80017130                bfin_get_num_params
 .text.bfin_report_params
                0x8001718c       0x6c ../src/bfin.o
                                 0x88 (size before relaxing)
                0x8001718c                bfin_report_params
 .text.bfin_load_buf
                0x800171f8      0x230 ../src/bfin.o
                                0x260 (size before relaxing)
                0x800171f8                bfin_load_buf
 .text.init_events
                0x80017428       0x24 ../src/events.o
                                 0x2c (size before relaxing)
                0x80017428                init_events
 .text.post_event
                0x8001744c       0x50 ../src/events.o
                                 0x5c (size before relaxing)
                0x8001744c                post_event
 .text.get_next_event
                0x8001749c       0x4c ../src/events.o
                                 0x50 (size before relaxing)
                0x8001749c                get_next_event
 .text.set_enc_thresh
                0x800174e8       0x10 ../src/encoders.o
                                 0x14 (size before relaxing)
                0x800174e8                set_enc_thresh
 .text.process_enc
                0x800174f8       0x50 ../src/encoders.o
                                 0x54 (size before relaxing)
                0x800174f8                process_enc
 .text.init_encoders
                0x80017548       0xbc ../src/encoders.o
                                 0xc0 (size before relaxing)
                0x80017548                init_encoders
 .text.files_get_dsp_name
                0x80017604       0x10 ../src/files.o
                0x80017604                files_get_dsp_name
 .text.files_get_dsp_count
                0x80017614        0xc ../src/files.o
                0x80017614                files_get_dsp_count
 .text.files_store_scene
                0x80017620        0x2 ../src/files.o
                0x80017620                files_store_scene
 *fill*         0x80017622        0x2 d703d703
 .text.files_get_scene_count
                0x80017624        0xc ../src/files.o
                0x80017624                files_get_scene_count
 .text.list_scan
                0x80017630       0x5c ../src/files.o
                                 0x68 (size before relaxing)
 .text.init_files
                0x8001768c       0x20 ../src/files.o
                                 0x30 (size before relaxing)
                0x8001768c                init_files
 .text.T.49     0x800176ac       0xa0 ../src/files.o
                                 0xbc (size before relaxing)
 .text.files_load_dsp_name
                0x8001774c       0xa0 ../src/files.o
                                 0xc0 (size before relaxing)
                0x8001774c                files_load_dsp_name
 .text.files_load_dsp
                0x800177ec       0x14 ../src/files.o
                                 0x1c (size before relaxing)
                0x800177ec                files_load_dsp
 .text.files_load_scene
                0x80017800       0x3c ../src/files.o
                                 0x48 (size before relaxing)
                0x80017800                files_load_scene
 .text.fat_init
                0x8001783c       0x4c ../src/filesystem.o
                                 0x5c (size before relaxing)
                0x8001783c                fat_init
 .text.media_write
                0x80017888       0x68 ../src/filesystem.o
                                 0x7c (size before relaxing)
                0x80017888                media_write
 .text.media_read
                0x800178f0       0xb8 ../src/filesystem.o
                                 0xdc (size before relaxing)
                0x800178f0                media_read
 .text.flash_read_scene
                0x800179a8       0x18 ../src/flash.o
                                 0x1c (size before relaxing)
                0x800179a8                flash_read_scene
 .text.flash_write_scene
                0x800179c0       0x1c ../src/flash.o
                                 0x20 (size before relaxing)
                0x800179c0                flash_write_scene
 .text.init_flash
                0x800179dc       0x80 ../src/flash.o
                                 0x94 (size before relaxing)
                0x800179dc                init_flash
 .text.init_usb_host
                0x80017a5c        0x8 ../src/init.o
                                  0xc (size before relaxing)
                0x80017a5c                init_usb_host
 .text.init_bfin_resources
                0x80017a64       0x68 ../src/init.o
                                 0x80 (size before relaxing)
                0x80017a64                init_bfin_resources
 .text.init_local_pdca
                0x80017acc       0x5c ../src/init.o
                                 0x60 (size before relaxing)
                0x80017acc                init_local_pdca
 .text.init_spi1
                0x80017b28       0xe4 ../src/init.o
                                 0xfc (size before relaxing)
                0x80017b28                init_spi1
 .text.init_ftdi_usart
                0x80017c0c       0x28 ../src/init.o
                                 0x30 (size before relaxing)
                0x80017c0c                init_ftdi_usart
 .text.init_tc  0x80017c34       0x38 ../src/init.o
                                 0x48 (size before relaxing)
                0x80017c34                init_tc
 .text.init_gpio
                0x80017c6c       0x40 ../src/init.o
                                 0x48 (size before relaxing)
                0x80017c6c                init_gpio
 .text.register_interrupts
                0x80017cac       0xd0 ../src/interrupts.o
                                 0xe4 (size before relaxing)
                0x80017cac                register_interrupts
 .text.irq_tc   0x80017d7c       0x64 ../src/interrupts.o
                                 0x6c (size before relaxing)
 .text.irq_pdca
                0x80017de0       0x28 ../src/interrupts.o
                                 0x38 (size before relaxing)
 .text.irq_port1_line3
                0x80017e08       0x30 ../src/interrupts.o
                                 0x3c (size before relaxing)
 .text.irq_port0_line3
                0x80017e38       0x74 ../src/interrupts.o
                                 0x80 (size before relaxing)
 .text.irq_port1_line1
                0x80017eac       0x30 ../src/interrupts.o
                                 0x3c (size before relaxing)
 .text.irq_port1_line0
                0x80017edc       0x88 ../src/interrupts.o
                                 0x94 (size before relaxing)
 .text.alloc_mem
                0x80017f64       0x58 ../src/memory.o
                                 0x64 (size before relaxing)
                0x80017f64                alloc_mem
 .text.init_mem
                0x80017fbc       0x34 ../src/memory.o
                                 0x40 (size before relaxing)
                0x80017fbc                init_mem
 .text.screen_clear
                0x80017ff0       0x18 ../src/screen.o
                0x80017ff0                screen_clear
 .text.write_command
                0x80018008       0x30 ../src/screen.o
                                 0x40 (size before relaxing)
 .text.screen_hl_line
                0x80018038      0x158 ../src/screen.o
                                0x15c (size before relaxing)
                0x80018038                screen_hl_line
 .text.screen_blank_line
                0x80018190       0xa0 ../src/screen.o
                                 0xa4 (size before relaxing)
                0x80018190                screen_blank_line
 .text.screen_string_squeeze
                0x80018230      0x2d0 ../src/screen.o
                                0x2e4 (size before relaxing)
                0x80018230                screen_string_squeeze
 .text.screen_string
                0x80018500        0xc ../src/screen.o
                                 0x10 (size before relaxing)
                0x80018500                screen_string
 .text.screen_line
                0x8001850c       0xa4 ../src/screen.o
                                 0xb0 (size before relaxing)
                0x8001850c                screen_line
 .text.screen_refresh
                0x800185b0      0x118 ../src/screen.o
                                0x130 (size before relaxing)
                0x800185b0                screen_refresh
 .text.init_oled
                0x800186c8      0x658 ../src/screen.o
                                0x670 (size before relaxing)
                0x800186c8                init_oled
 .text.str_copy
                0x80018d20       0x44 ../src/simple_string.o
                0x80018d20                str_copy
 .text.process_sw
                0x80018d64       0x44 ../src/switches.o
                                 0x54 (size before relaxing)
                0x80018d64                process_sw
 .text.process_timers
                0x80018da8      0x18c ../src/timers.o
                                0x190 (size before relaxing)
                0x80018da8                process_timers
 .text.set_timer
                0x80018f34      0x124 ../src/timers.o
                0x80018f34                set_timer
 .text.main     0x80019058      0x344 ../src/main.o
                                0x400 (size before relaxing)
                0x80019058                main
 .text.usb_mode_change
                0x8001939c        0x2 ../src/usb.o
                0x8001939c                usb_mode_change
 .text.usb_vbus_change
                0x8001939e        0x2 ../src/usb.o
                0x8001939e                usb_vbus_change
 .text.usb_vbus_error
                0x800193a0        0x2 ../src/usb.o
                0x800193a0                usb_vbus_error
 .text.usb_connection
                0x800193a2        0x2 ../src/usb.o
                0x800193a2                usb_connection
 .text.usb_wakeup
                0x800193a4        0x2 ../src/usb.o
                0x800193a4                usb_wakeup
 .text.usb_sof  0x800193a6        0x2 ../src/usb.o
                0x800193a6                usb_sof
 .text.usb_enum
                0x800193a8        0x2 ../src/usb.o
                0x800193a8                usb_enum
 *fill*         0x800193aa        0x2 d703d703
 .text.hid_mouse_move
                0x800193ac       0x44 ../src/usb/mouse/hid_mouse.o
                                 0x4c (size before relaxing)
                0x800193ac                hid_mouse_move
 .text.hid_mouse_btn_middle
                0x800193f0       0x1c ../src/usb/mouse/hid_mouse.o
                                 0x24 (size before relaxing)
                0x800193f0                hid_mouse_btn_middle
 .text.hid_mouse_btn_right
                0x8001940c       0x1c ../src/usb/mouse/hid_mouse.o
                                 0x24 (size before relaxing)
                0x8001940c                hid_mouse_btn_right
 .text.hid_mouse_btn_left
                0x80019428       0x1c ../src/usb/mouse/hid_mouse.o
                                 0x24 (size before relaxing)
                0x80019428                hid_mouse_btn_left
 .text.uhi_hid_mouse_uninstall
                0x80019444       0x1c ../src/usb/mouse/uhi_hid_mouse.o
                                 0x20 (size before relaxing)
                0x80019444                uhi_hid_mouse_uninstall
 .text.uhi_hid_mouse_enable
                0x80019460       0x34 ../src/usb/mouse/uhi_hid_mouse.o
                                 0x3c (size before relaxing)
                0x80019460                uhi_hid_mouse_enable
 .text.uhi_hid_mouse_report_reception
                0x80019494       0xac ../src/usb/mouse/uhi_hid_mouse.o
                                 0xcc (size before relaxing)
 .text.uhi_hid_mouse_install
                0x80019540       0x90 ../src/usb/mouse/uhi_hid_mouse.o
                                 0x98 (size before relaxing)
                0x80019540                uhi_hid_mouse_install
 .text.uhi_hid_gamepad_uninstall
                0x800195d0       0x1c ../src/usb/gamepad/uhi_hid_gamepad.o
                                 0x20 (size before relaxing)
                0x800195d0                uhi_hid_gamepad_uninstall
 .text.uhi_hid_gamepad_enable
                0x800195ec       0x2c ../src/usb/gamepad/uhi_hid_gamepad.o
                                 0x34 (size before relaxing)
                0x800195ec                uhi_hid_gamepad_enable
 .text.uhi_hid_gamepad_report_reception
                0x80019618       0x68 ../src/usb/gamepad/uhi_hid_gamepad.o
                                 0x78 (size before relaxing)
 .text.uhi_hid_gamepad_install
                0x80019680      0x134 ../src/usb/gamepad/uhi_hid_gamepad.o
                                0x144 (size before relaxing)
                0x80019680                uhi_hid_gamepad_install
 .text.fatfs_lba_of_cluster
                0x800197b4       0x2a ../src/fat_io_lib/fat_access.o
                0x800197b4                fatfs_lba_of_cluster
 .text.fatfs_sector_read
                0x800197de       0x10 ../src/fat_io_lib/fat_access.o
                0x800197de                fatfs_sector_read
 .text.fatfs_sector_write
                0x800197ee       0x10 ../src/fat_io_lib/fat_access.o
                0x800197ee                fatfs_sector_write
 .text.fatfs_get_root_cluster
                0x800197fe        0x4 ../src/fat_io_lib/fat_access.o
                0x800197fe                fatfs_get_root_cluster
 .text.fatfs_list_directory_start
                0x80019802        0xc ../src/fat_io_lib/fat_access.o
                0x80019802                fatfs_list_directory_start
 *fill*         0x8001980e        0x2 d703d703
 .text.fatfs_init
                0x80019810      0x258 ../src/fat_io_lib/fat_access.o
                                0x25c (size before relaxing)
                0x80019810                fatfs_init
 .text.T.41     0x80019a68       0x80 ../src/fat_io_lib/fat_access.o
                                 0x8c (size before relaxing)
 .text.fatfs_get_file_entry
                0x80019ae8      0x150 ../src/fat_io_lib/fat_access.o
                                0x17c (size before relaxing)
                0x80019ae8                fatfs_get_file_entry
 .text.fatfs_sfn_exists
                0x80019c38      0x34c ../src/fat_io_lib/fat_access.o
                                0x360 (size before relaxing)
                0x80019c38                fatfs_sfn_exists
 .text.fatfs_update_file_length
                0x80019f84      0x3fc ../src/fat_io_lib/fat_access.o
                                0x414 (size before relaxing)
                0x80019f84                fatfs_update_file_length
 .text.fatfs_list_directory_next
                0x8001a380      0x20c ../src/fat_io_lib/fat_access.o
                                0x238 (size before relaxing)
                0x8001a380                fatfs_list_directory_next
 .text.fatfs_write_sector
                0x8001a58c       0x9c ../src/fat_io_lib/fat_access.o
                                 0xa0 (size before relaxing)
                0x8001a58c                fatfs_write_sector
 .text.fatfs_sector_reader
                0x8001a628       0xb0 ../src/fat_io_lib/fat_access.o
                                 0xb4 (size before relaxing)
                0x8001a628                fatfs_sector_reader
 .text.fatfs_cache_init
                0x8001a6d8        0x2 ../src/fat_io_lib/fat_cache.o
                0x8001a6d8                fatfs_cache_init
 .text.fatfs_cache_get_next_cluster
                0x8001a6da        0x2 ../src/fat_io_lib/fat_cache.o
                0x8001a6da                fatfs_cache_get_next_cluster
 .text.fatfs_cache_set_next_cluster
                0x8001a6dc        0x2 ../src/fat_io_lib/fat_cache.o
                0x8001a6dc                fatfs_cache_set_next_cluster
 *fill*         0x8001a6de        0x2 d703d703
 .text._free_file
                0x8001a6e0       0x8c ../src/fat_io_lib/fat_filelib.o
 .text.fl_init  0x8001a76c       0x38 ../src/fat_io_lib/fat_filelib.o
                                 0x40 (size before relaxing)
                0x8001a76c                fl_init
 .text._open_directory
                0x8001a7a4       0x8c ../src/fat_io_lib/fat_filelib.o
                                 0xa0 (size before relaxing)
 .text._write_sectors
                0x8001a830       0xf8 ../src/fat_io_lib/fat_filelib.o
                                0x108 (size before relaxing)
 .text._read_sectors
                0x8001a928       0xc8 ../src/fat_io_lib/fat_filelib.o
                                 0xd8 (size before relaxing)
 .text._create_file
                0x8001a9f0      0x218 ../src/fat_io_lib/fat_filelib.o
                                0x250 (size before relaxing)
 .text.fl_readdir
                0x8001ac08       0x7c ../src/fat_io_lib/fat_filelib.o
                                 0x88 (size before relaxing)
                0x8001ac08                fl_readdir
 .text.fl_opendir
                0x8001ac84       0xa0 ../src/fat_io_lib/fat_filelib.o
                                 0xb8 (size before relaxing)
                0x8001ac84                fl_opendir
 .text.fl_fflush
                0x8001ad24       0x80 ../src/fat_io_lib/fat_filelib.o
                                 0x90 (size before relaxing)
                0x8001ad24                fl_fflush
 .text.T.96     0x8001ada4       0xf0 ../src/fat_io_lib/fat_filelib.o
                                0x104 (size before relaxing)
 .text.fl_fgetc
                0x8001ae94       0x1c ../src/fat_io_lib/fat_filelib.o
                                 0x20 (size before relaxing)
                0x8001ae94                fl_fgetc
 .text.fl_fclose
                0x8001aeb0      0x120 ../src/fat_io_lib/fat_filelib.o
                                0x130 (size before relaxing)
                0x8001aeb0                fl_fclose
 .text.fl_attach_media
                0x8001afd0       0x84 ../src/fat_io_lib/fat_filelib.o
                                 0xa4 (size before relaxing)
                0x8001afd0                fl_attach_media
 .text._open_file
                0x8001b054      0x258 ../src/fat_io_lib/fat_filelib.o
                                0x288 (size before relaxing)
 .text.fl_fopen
                0x8001b2ac      0x150 ../src/fat_io_lib/fat_filelib.o
                                0x16c (size before relaxing)
                0x8001b2ac                fl_fopen
 .text.fatfs_lfn_cache_entry
                0x8001b3fc      0x1a0 ../src/fat_io_lib/fat_misc.o
                0x8001b3fc                fatfs_lfn_cache_entry
 .text.fatfs_lfn_cache_get
                0x8001b59c       0x2e ../src/fat_io_lib/fat_misc.o
                0x8001b59c                fatfs_lfn_cache_get
 .text.fatfs_entry_lfn_text
                0x8001b5ca        0xe ../src/fat_io_lib/fat_misc.o
                0x8001b5ca                fatfs_entry_lfn_text
 .text.fatfs_entry_lfn_invalid
                0x8001b5d8       0x32 ../src/fat_io_lib/fat_misc.o
                0x8001b5d8                fatfs_entry_lfn_invalid
 .text.fatfs_entry_lfn_exists
                0x8001b60a       0x36 ../src/fat_io_lib/fat_misc.o
                0x8001b60a                fatfs_entry_lfn_exists
 .text.fatfs_entry_sfn_only
                0x8001b640       0x2c ../src/fat_io_lib/fat_misc.o
                0x8001b640                fatfs_entry_sfn_only
 .text.fatfs_entry_is_dir
                0x8001b66c        0xa ../src/fat_io_lib/fat_misc.o
                0x8001b66c                fatfs_entry_is_dir
 .text.fatfs_entry_is_file
                0x8001b676        0xa ../src/fat_io_lib/fat_misc.o
                0x8001b676                fatfs_entry_is_file
 .text.fatfs_sfn_create_entry
                0x8001b680      0x116 ../src/fat_io_lib/fat_misc.o
                0x8001b680                fatfs_sfn_create_entry
 .text.fatfs_lfn_cache_init
                0x8001b796       0x36 ../src/fat_io_lib/fat_misc.o
                0x8001b796                fatfs_lfn_cache_init
 .text.fatfs_lfn_generate_tail
                0x8001b7cc       0xc4 ../src/fat_io_lib/fat_misc.o
                                 0xcc (size before relaxing)
                0x8001b7cc                fatfs_lfn_generate_tail
 .text.fatfs_lfn_create_sfn
                0x8001b890      0x150 ../src/fat_io_lib/fat_misc.o
                                0x158 (size before relaxing)
                0x8001b890                fatfs_lfn_create_sfn
 .text.fatfs_lfn_entries_required
                0x8001b9e0       0x24 ../src/fat_io_lib/fat_misc.o
                                 0x28 (size before relaxing)
                0x8001b9e0                fatfs_lfn_entries_required
 .text.fatfs_filename_to_lfn
                0x8001ba04      0x3a0 ../src/fat_io_lib/fat_misc.o
                                0x3ac (size before relaxing)
                0x8001ba04                fatfs_filename_to_lfn
 .text.fatfs_total_path_levels
                0x8001bda4       0x5c ../src/fat_io_lib/fat_string.o
                0x8001bda4                fatfs_total_path_levels
 .text.fatfs_get_sfn_display_name
                0x8001be00       0x4c ../src/fat_io_lib/fat_string.o
                0x8001be00                fatfs_get_sfn_display_name
 .text.fatfs_compare_names
                0x8001be4c      0x1f0 ../src/fat_io_lib/fat_string.o
                                0x1f4 (size before relaxing)
                0x8001be4c                fatfs_compare_names
 .text.fatfs_get_substring
                0x8001c03c       0xb0 ../src/fat_io_lib/fat_string.o
                                 0xb4 (size before relaxing)
                0x8001c03c                fatfs_get_substring
 .text.fatfs_split_path
                0x8001c0ec       0xb0 ../src/fat_io_lib/fat_string.o
                                 0xbc (size before relaxing)
                0x8001c0ec                fatfs_split_path
 .text.fatfs_fat_writeback
                0x8001c19c       0x48 ../src/fat_io_lib/fat_table.o
 .text.fatfs_set_fs_info_next_free_cluster
                0x8001c1e4       0xec ../src/fat_io_lib/fat_table.o
                                 0xf0 (size before relaxing)
                0x8001c1e4                fatfs_set_fs_info_next_free_cluster
 .text.fatfs_fat_init
                0x8001c2d0       0x3c ../src/fat_io_lib/fat_table.o
                                 0x40 (size before relaxing)
                0x8001c2d0                fatfs_fat_init
 .text.fatfs_fat_purge
                0x8001c30c       0x58 ../src/fat_io_lib/fat_table.o
                0x8001c30c                fatfs_fat_purge
 .text.fatfs_find_next_cluster
                0x8001c364      0x128 ../src/fat_io_lib/fat_table.o
                                0x12c (size before relaxing)
                0x8001c364                fatfs_find_next_cluster
 .text.fatfs_fat_set_cluster
                0x8001c48c      0x120 ../src/fat_io_lib/fat_table.o
                                0x124 (size before relaxing)
                0x8001c48c                fatfs_fat_set_cluster
 .text.fatfs_fat_add_cluster_to_chain
                0x8001c5ac      0x16c ../src/fat_io_lib/fat_table.o
                                0x178 (size before relaxing)
                0x8001c5ac                fatfs_fat_add_cluster_to_chain
 .text.fatfs_free_cluster_chain
                0x8001c718      0x2ca ../src/fat_io_lib/fat_table.o
                0x8001c718                fatfs_free_cluster_chain
 .text.fatfs_find_blank_cluster
                0x8001c9e2      0x14e ../src/fat_io_lib/fat_table.o
                0x8001c9e2                fatfs_find_blank_cluster
 .text.fatfs_add_file_entry
                0x8001cb30      0x970 ../src/fat_io_lib/fat_write.o
                                0x998 (size before relaxing)
                0x8001cb30                fatfs_add_file_entry
 .text.fatfs_add_free_space
                0x8001d4a0       0x68 ../src/fat_io_lib/fat_write.o
                                 0x74 (size before relaxing)
                0x8001d4a0                fatfs_add_free_space
 .text.fatfs_allocate_free_space
                0x8001d508       0xbc ../src/fat_io_lib/fat_write.o
                                 0xc8 (size before relaxing)
                0x8001d508                fatfs_allocate_free_space
 .text.itoa_whole
                0x8001d5c4       0xb0 ../../common/fix.o
                                 0xb8 (size before relaxing)
                0x8001d5c4                itoa_whole
 .text.itoa_whole_lj
                0x8001d674       0xd4 ../../common/fix.o
                                 0xd8 (size before relaxing)
                0x8001d674                itoa_whole_lj
 .text.print_fix16
                0x8001d748      0x3e8 ../../common/fix.o
                                0x404 (size before relaxing)
                0x8001d748                print_fix16
 .text.fix16_add
                0x8001db30       0x1a ../../common/libfixmath/fix16.o
                0x8001db30                fix16_add
 .text.fix16_sub
                0x8001db4a       0x1c ../../common/libfixmath/fix16.o
                0x8001db4a                fix16_sub
 .text.fix16_mul
                0x8001db66       0x56 ../../common/libfixmath/fix16.o
                0x8001db66                fix16_mul
 .text.key_handler_dsp
                0x8001dbbc       0x9c ../apps/bees/src/key_handler.o
                                 0xac (size before relaxing)
                0x8001dbbc                key_handler_dsp
 .text.key_handler_scenes
                0x8001dc58      0x16c ../apps/bees/src/key_handler.o
                                0x174 (size before relaxing)
                0x8001dc58                key_handler_scenes
 .text.key_handler_presets
                0x8001ddc4       0xe4 ../apps/bees/src/key_handler.o
                                 0xe8 (size before relaxing)
                0x8001ddc4                key_handler_presets
 .text.key_handler_play
                0x8001dea8      0x104 ../apps/bees/src/key_handler.o
                                0x110 (size before relaxing)
                0x8001dea8                key_handler_play
 .text.key_handler_outs
                0x8001dfac       0xd8 ../apps/bees/src/key_handler.o
                                 0xf8 (size before relaxing)
                0x8001dfac                key_handler_outs
 .text.key_handler_gathered
                0x8001e084        0x8 ../apps/bees/src/key_handler.o
                                  0xc (size before relaxing)
                0x8001e084                key_handler_gathered
 .text.scale_knob_value
                0x8001e08c       0x8c ../apps/bees/src/key_handler.o
                                 0xa0 (size before relaxing)
 .text.key_handler_ins
                0x8001e118       0xec ../apps/bees/src/key_handler.o
                                0x110 (size before relaxing)
                0x8001e118                key_handler_ins
 .text.key_handler_ops
                0x8001e204       0xe0 ../apps/bees/src/key_handler.o
                                0x124 (size before relaxing)
                0x8001e204                key_handler_ops
 .text.scroll_select_clip
                0x8001e2e4       0x54 ../apps/bees/src/menu.o
                                 0x60 (size before relaxing)
                0x8001e2e4                scroll_select_clip
 .text.set_page
                0x8001e338       0x74 ../apps/bees/src/menu.o
                                 0x8c (size before relaxing)
                0x8001e338                set_page
 .text.scroll_page
                0x8001e3ac       0xb0 ../apps/bees/src/menu.o
                                 0xc8 (size before relaxing)
                0x8001e3ac                scroll_page
 .text.menu_handleKey
                0x8001e45c       0x58 ../apps/bees/src/menu.o
                                 0x6c (size before relaxing)
                0x8001e45c                menu_handleKey
 .text.menu_init
                0x8001e4b4       0x10 ../apps/bees/src/menu.o
                                 0x18 (size before relaxing)
                0x8001e4b4                menu_init
 .text.scroll_select
                0x8001e4c4       0x4c ../apps/bees/src/menu.o
                0x8001e4c4                scroll_select
 .text.net_pop_op
                0x8001e510       0x6c ../apps/bees/src/net.o
                                 0x70 (size before relaxing)
                0x8001e510                net_pop_op
 .text.net_connect
                0x8001e57c       0x3c ../apps/bees/src/net.o
                                 0x40 (size before relaxing)
                0x8001e57c                net_connect
 .text.net_disconnect
                0x8001e5b8       0x40 ../apps/bees/src/net.o
                0x8001e5b8                net_disconnect
 .text.net_num_ops
                0x8001e5f8       0x10 ../apps/bees/src/net.o
                                 0x14 (size before relaxing)
                0x8001e5f8                net_num_ops
 .text.net_num_ins
                0x8001e608       0x1c ../apps/bees/src/net.o
                                 0x20 (size before relaxing)
                0x8001e608                net_num_ins
 .text.net_num_outs
                0x8001e624       0x10 ../apps/bees/src/net.o
                                 0x14 (size before relaxing)
                0x8001e624                net_num_outs
 .text.net_param_idx
                0x8001e634       0x14 ../apps/bees/src/net.o
                                 0x18 (size before relaxing)
                0x8001e634                net_param_idx
 .text.net_op_name
                0x8001e648       0x1c ../apps/bees/src/net.o
                                 0x20 (size before relaxing)
                0x8001e648                net_op_name
 .text.net_in_op_idx
                0x8001e664       0x28 ../apps/bees/src/net.o
                0x8001e664                net_in_op_idx
 .text.net_out_op_idx
                0x8001e68c       0x28 ../apps/bees/src/net.o
                                 0x2c (size before relaxing)
                0x8001e68c                net_out_op_idx
 .text.net_op_in_idx
                0x8001e6b4       0x48 ../apps/bees/src/net.o
                                 0x4c (size before relaxing)
                0x8001e6b4                net_op_in_idx
 .text.net_op_out_idx
                0x8001e6fc       0x48 ../apps/bees/src/net.o
                                 0x4c (size before relaxing)
                0x8001e6fc                net_op_out_idx
 .text.net_get_target
                0x8001e744       0x18 ../apps/bees/src/net.o
                                 0x1c (size before relaxing)
                0x8001e744                net_get_target
 .text.net_op_status
                0x8001e75c       0x10 ../apps/bees/src/net.o
                                 0x14 (size before relaxing)
                0x8001e75c                net_op_status
 .text.net_gather
                0x8001e76c       0x40 ../apps/bees/src/net.o
                0x8001e76c                net_gather
 .text.net_toggle_in_preset
                0x8001e7ac       0x24 ../apps/bees/src/net.o
                                 0x28 (size before relaxing)
                0x8001e7ac                net_toggle_in_preset
 .text.net_get_in_preset
                0x8001e7d0       0x14 ../apps/bees/src/net.o
                0x8001e7d0                net_get_in_preset
 .text.net_get_out_preset
                0x8001e7e4       0x18 ../apps/bees/src/net.o
                0x8001e7e4                net_get_out_preset
 .text.net_clear_params
                0x8001e7fc       0x14 ../apps/bees/src/net.o
                0x8001e7fc                net_clear_params
 .text.net_add_param
                0x8001e810       0xa8 ../apps/bees/src/net.o
                                 0xac (size before relaxing)
                0x8001e810                net_add_param
 .text.net_set_in_value
                0x8001e8b8       0x44 ../apps/bees/src/net.o
                                 0x4c (size before relaxing)
                0x8001e8b8                net_set_in_value
 .text.net_activate
                0x8001e8fc       0x5c ../apps/bees/src/net.o
                                 0x64 (size before relaxing)
                0x8001e8fc                net_activate
 .text.net_get_in_value
                0x8001e958       0x44 ../apps/bees/src/net.o
                                 0x4c (size before relaxing)
                0x8001e958                net_get_in_value
 .text.net_out_name
                0x8001e99c       0x2c ../apps/bees/src/net.o
                                 0x34 (size before relaxing)
                0x8001e99c                net_out_name
 .text.net_in_name
                0x8001e9c8       0x68 ../apps/bees/src/net.o
                                 0x70 (size before relaxing)
                0x8001e9c8                net_in_name
 .text.net_add_op
                0x8001ea30      0x1b8 ../apps/bees/src/net.o
                                0x1d0 (size before relaxing)
                0x8001ea30                net_add_op
 .text.net_init
                0x8001ebe8      0x104 ../apps/bees/src/net.o
                                0x128 (size before relaxing)
                0x8001ebe8                net_init
 .text.net_inc_in_value
                0x8001ecec       0x98 ../apps/bees/src/net.o
                                 0xb4 (size before relaxing)
                0x8001ecec                net_inc_in_value
 .text.op_in_name
                0x8001ed84       0x54 ../apps/bees/src/op.o
                                 0x58 (size before relaxing)
                0x8001ed84                op_in_name
 .text.op_out_name
                0x8001edd8       0x54 ../apps/bees/src/op.o
                                 0x58 (size before relaxing)
                0x8001edd8                op_out_name
 .text.op_get_in_val
                0x8001ee2c        0xa ../apps/bees/src/op.o
                0x8001ee2c                op_get_in_val
 *fill*         0x8001ee36        0x2 d703d703
 .text.op_set_in_val
                0x8001ee38       0x24 ../apps/bees/src/op.o
                                 0x2c (size before relaxing)
                0x8001ee38                op_set_in_val
 .text.get_param_value
                0x8001ee5c       0x20 ../apps/bees/src/param.o
                0x8001ee5c                get_param_value
 .text.get_param_preset
                0x8001ee7c       0x18 ../apps/bees/src/param.o
                0x8001ee7c                get_param_preset
 .text.get_param_name
                0x8001ee94       0x18 ../apps/bees/src/param.o
                0x8001ee94                get_param_name
 .text.set_param_value
                0x8001eeac       0x48 ../apps/bees/src/param.o
                                 0x4c (size before relaxing)
                0x8001eeac                set_param_value
 .text.play_get_entry
                0x8001eef4       0x3c ../apps/bees/src/play.o
                                 0x40 (size before relaxing)
                0x8001eef4                play_get_entry
 .text.play_param
                0x8001ef30       0x78 ../apps/bees/src/play.o
                                 0x94 (size before relaxing)
                0x8001ef30                play_param
 .text.preset_name
                0x8001efa8       0x14 ../apps/bees/src/preset.o
                                 0x18 (size before relaxing)
                0x8001efa8                preset_name
 .text.preset_recall
                0x8001efbc       0xcc ../apps/bees/src/preset.o
                                 0xe0 (size before relaxing)
                0x8001efbc                preset_recall
 .text.preset_store
                0x8001f088       0xc4 ../apps/bees/src/preset.o
                                 0xe4 (size before relaxing)
                0x8001f088                preset_store
 .text.preset_init
                0x8001f14c      0x554 ../apps/bees/src/preset.o
                                0x560 (size before relaxing)
                0x8001f14c                preset_init
 .text.redraw_gathered
                0x8001f6a0        0x2 ../apps/bees/src/redraw.o
                0x8001f6a0                redraw_gathered
 *fill*         0x8001f6a2        0x2 d703d703
 .text.redraw_play
                0x8001f6a4      0x170 ../apps/bees/src/redraw.o
                                0x184 (size before relaxing)
                0x8001f6a4                redraw_play
 .text.redraw_scenes
                0x8001f814       0xb8 ../apps/bees/src/redraw.o
                                 0xd8 (size before relaxing)
                0x8001f814                redraw_scenes
 .text.T.66     0x8001f8cc       0x88 ../apps/bees/src/redraw.o
                                 0x98 (size before relaxing)
 .text.redraw_presets
                0x8001f954       0xdc ../apps/bees/src/redraw.o
                                0x104 (size before relaxing)
                0x8001f954                redraw_presets
 .text.draw_line_ops
                0x8001fa30       0x88 ../apps/bees/src/redraw.o
                                 0xa0 (size before relaxing)
 .text.redraw_ops
                0x8001fab8      0x124 ../apps/bees/src/redraw.o
                                0x15c (size before relaxing)
                0x8001fab8                redraw_ops
 .text.draw_line_outs
                0x8001fbdc      0x264 ../apps/bees/src/redraw.o
                                0x280 (size before relaxing)
 .text.redraw_outs
                0x8001fe40       0x8c ../apps/bees/src/redraw.o
                                 0xac (size before relaxing)
                0x8001fe40                redraw_outs
 .text.draw_line_ins
                0x8001fecc      0x17c ../apps/bees/src/redraw.o
                                0x19c (size before relaxing)
 .text.redraw_ins
                0x80020048       0x8c ../apps/bees/src/redraw.o
                                 0xac (size before relaxing)
                0x80020048                redraw_ins
 .text.redraw_dsp
                0x800200d4      0x1a0 ../apps/bees/src/redraw.o
                                0x1b4 (size before relaxing)
                0x800200d4                redraw_dsp
 .text.scene_read_default
                0x80020274       0x20 ../apps/bees/src/scene.o
                                 0x2c (size before relaxing)
                0x80020274                scene_read_default
 .text.scene_init
                0x80020294       0x14 ../apps/bees/src/scene.o
                                 0x18 (size before relaxing)
                0x80020294                scene_init
 .text.scene_write_default
                0x800202a8       0x48 ../apps/bees/src/scene.o
                                 0x5c (size before relaxing)
                0x800202a8                scene_write_default
 .text.op_add_init
                0x800202f0       0x58 ../apps/bees/src/ops/op_add.o
                                 0x64 (size before relaxing)
                0x800202f0                op_add_init
 .text.op_add_in_btrig
                0x80020348        0x8 ../apps/bees/src/ops/op_add.o
 .text.op_add_in_b
                0x80020350       0x28 ../apps/bees/src/ops/op_add.o
                                 0x30 (size before relaxing)
 .text.op_add_in_a
                0x80020378       0x20 ../apps/bees/src/ops/op_add.o
                                 0x28 (size before relaxing)
 .text.op_add_inc_input
                0x80020398       0x7c ../apps/bees/src/ops/op_add.o
                                 0x84 (size before relaxing)
 .text.op_enc_init
                0x80020414       0x84 ../apps/bees/src/ops/op_enc.o
                                 0x90 (size before relaxing)
                0x80020414                op_enc_init
 .text.op_enc_in_step
                0x80020498        0x6 ../apps/bees/src/ops/op_enc.o
 .text.op_enc_in_wrap
                0x8002049e       0x16 ../apps/bees/src/ops/op_enc.o
 .text.op_enc_perform
                0x800204b4       0xbc ../apps/bees/src/ops/op_enc.o
                                 0xc8 (size before relaxing)
 .text.op_enc_in_max
                0x80020570        0xc ../apps/bees/src/ops/op_enc.o
                                 0x10 (size before relaxing)
 .text.op_enc_in_min
                0x8002057c        0xc ../apps/bees/src/ops/op_enc.o
                                 0x10 (size before relaxing)
 .text.op_enc_in_move
                0x80020588       0x20 ../apps/bees/src/ops/op_enc.o
                                 0x30 (size before relaxing)
 .text.op_enc_inc_input
                0x800205a8       0x98 ../apps/bees/src/ops/op_enc.o
                                 0xac (size before relaxing)
 .text.op_gate_init
                0x80020640       0x5c ../apps/bees/src/ops/op_gate.o
                                 0x68 (size before relaxing)
                0x80020640                op_gate_init
 .text.op_gate_in_store
                0x8002069c       0x14 ../apps/bees/src/ops/op_gate.o
 .text.op_gate_in_gate
                0x800206b0       0x28 ../apps/bees/src/ops/op_gate.o
                                 0x2c (size before relaxing)
 .text.op_gate_in_value
                0x800206d8       0x18 ../apps/bees/src/ops/op_gate.o
                                 0x1c (size before relaxing)
 .text.op_gate_inc_input
                0x800206f0       0x7c ../apps/bees/src/ops/op_gate.o
                                 0x84 (size before relaxing)
 .text.op_mul_init
                0x8002076c       0x58 ../apps/bees/src/ops/op_mul.o
                                 0x60 (size before relaxing)
                0x8002076c                op_mul_init
 .text.op_mul_in_btrig
                0x800207c4       0x14 ../apps/bees/src/ops/op_mul.o
 .text.op_mul_in_b
                0x800207d8       0x28 ../apps/bees/src/ops/op_mul.o
                                 0x30 (size before relaxing)
 .text.op_mul_in_a
                0x80020800       0x20 ../apps/bees/src/ops/op_mul.o
                                 0x28 (size before relaxing)
 .text.op_mul_inc_input
                0x80020820       0x80 ../apps/bees/src/ops/op_mul.o
                                 0x8c (size before relaxing)
 .text.op_sw_init
                0x800208a0       0x68 ../apps/bees/src/ops/op_sw.o
                                 0x74 (size before relaxing)
                0x800208a0                op_sw_init
 .text.op_sw_in_tog
                0x80020908       0x16 ../apps/bees/src/ops/op_sw.o
 *fill*         0x8002091e        0x2 d703d703
 .text.op_sw_in_mul
                0x80020920       0x20 ../apps/bees/src/ops/op_sw.o
                                 0x24 (size before relaxing)
 .text.op_sw_in_state
                0x80020940       0x4c ../apps/bees/src/ops/op_sw.o
                                 0x50 (size before relaxing)
 .text.op_sw_inc_func
                0x8002098c       0x90 ../apps/bees/src/ops/op_sw.o
                                 0x98 (size before relaxing)
 .text._stext   0x80020a1c       0x40 avr32/utils/startup/startup_uc3.o
                                 0x50 (size before relaxing)
                0x80020a1c                _stext
 .text          0x80020a5c       0x74 /home/emb/avr32-gnu-toolchain/bin/../lib/gcc/avr32/4.4.3/ucr2/libgcc.a(_avr32_s32_to_f32.o)
                0x80020a5c                __avr32_s32_to_f32
 .text          0x80020ad0       0x1e /home/emb/avr32-gnu-toolchain/bin/../lib/gcc/avr32/4.4.3/ucr2/libgcc.a(_avr32_f32_to_s32.o)
                0x80020ad0                __avr32_f32_to_s32
 .text          0x80020aee      0x292 /home/emb/avr32-gnu-toolchain/bin/../lib/gcc/avr32/4.4.3/ucr2/libgcc.a(_udivdi3.o)
                0x80020aee                __udivdi3
                0x80020aee                __avr32_udiv64
 .text.free     0x80020d80       0x10 /home/emb/avr32-gnu-toolchain/bin/../lib/gcc/avr32/4.4.3/../../../../avr32/lib/ucr2/libc.a(lib_a-malloc.o)
                                 0x18 (size before relaxing)
                0x80020d80                free
 .text.malloc   0x80020d90       0x10 /home/emb/avr32-gnu-toolchain/bin/../lib/gcc/avr32/4.4.3/../../../../avr32/lib/ucr2/libc.a(lib_a-malloc.o)
                                 0x18 (size before relaxing)
                0x80020d90                malloc
 .text._malloc_r
                0x80020da0      0x430 /home/emb/avr32-gnu-toolchain/bin/../lib/gcc/avr32/4.4.3/../../../../avr32/lib/ucr2/libc.a(lib_a-mallocr.o)
                                0x454 (size before relaxing)
                0x80020da0                _malloc_r
 .text          0x800211d0      0x148 /home/emb/avr32-gnu-toolchain/bin/../lib/gcc/avr32/4.4.3/../../../../avr32/lib/ucr2/libc.a(lib_a-memcpy.o)
                0x800211d0                memcpy
 .text.memset   0x80021318        0xe /home/emb/avr32-gnu-toolchain/bin/../lib/gcc/avr32/4.4.3/../../../../avr32/lib/ucr2/libc.a(lib_a-memset.o)
                0x80021318                memset
 .text.__malloc_lock
                0x80021326        0x2 /home/emb/avr32-gnu-toolchain/bin/../lib/gcc/avr32/4.4.3/../../../../avr32/lib/ucr2/libc.a(lib_a-mlock.o)
                0x80021326                __malloc_lock
 .text.__malloc_unlock
                0x80021328        0x2 /home/emb/avr32-gnu-toolchain/bin/../lib/gcc/avr32/4.4.3/../../../../avr32/lib/ucr2/libc.a(lib_a-mlock.o)
                0x80021328                __malloc_unlock
 *fill*         0x8002132a        0x2 d703d703
 .text._sbrk_r  0x8002132c       0x20 /home/emb/avr32-gnu-toolchain/bin/../lib/gcc/avr32/4.4.3/../../../../avr32/lib/ucr2/libc.a(lib_a-sbrkr.o)
                                 0x28 (size before relaxing)
                0x8002132c                _sbrk_r
 .text          0x8002134c       0xa8 /home/emb/avr32-gnu-toolchain/bin/../lib/gcc/avr32/4.4.3/../../../../avr32/lib/ucr2/libc.a(lib_a-strcmp.o)
                0x8002134c                strcmp
 .text.strcpy   0x800213f4       0x12 /home/emb/avr32-gnu-toolchain/bin/../lib/gcc/avr32/4.4.3/../../../../avr32/lib/ucr2/libc.a(lib_a-strcpy.o)
                0x800213f4                strcpy
 .text.strlen   0x80021406       0x16 /home/emb/avr32-gnu-toolchain/bin/../lib/gcc/avr32/4.4.3/../../../../avr32/lib/ucr2/libc.a(lib_a-strlen.o)
                0x80021406                strlen
 .text.strncat  0x8002141c       0x2e /home/emb/avr32-gnu-toolchain/bin/../lib/gcc/avr32/4.4.3/../../../../avr32/lib/ucr2/libc.a(lib_a-strncat.o)
                0x8002141c                strncat
 .text.strncmp  0x8002144a       0x26 /home/emb/avr32-gnu-toolchain/bin/../lib/gcc/avr32/4.4.3/../../../../avr32/lib/ucr2/libc.a(lib_a-strncmp.o)
                0x8002144a                strncmp
 .text          0x80021470       0x20 /home/emb/avr32-gnu-toolchain/bin/../lib/gcc/avr32/4.4.3/../../../../avr32/lib/ucr2/libc.a(lib_a-strncpy.o)
                0x80021470                strncpy
 .text._sbrk    0x80021490       0x38 /home/emb/avr32-gnu-toolchain/bin/../lib/gcc/avr32/4.4.3/../../../../avr32/lib/ucr2/libc.a(lib_a-syscalls.o)
                                 0x40 (size before relaxing)
                0x80021490                _sbrk
 .text.__errno  0x800214c8        0xc /home/emb/avr32-gnu-toolchain/bin/../lib/gcc/avr32/4.4.3/../../../../avr32/lib/ucr2/libc.a(lib_a-errno.o)
                0x800214c8                __errno
 .text._malloc_trim_r
                0x800214d4       0x8c /home/emb/avr32-gnu-toolchain/bin/../lib/gcc/avr32/4.4.3/../../../../avr32/lib/ucr2/libc.a(lib_a-freer.o)
                                 0xa8 (size before relaxing)
                0x800214d4                _malloc_trim_r
 .text._free_r  0x80021560      0x184 /home/emb/avr32-gnu-toolchain/bin/../lib/gcc/avr32/4.4.3/../../../../avr32/lib/ucr2/libc.a(lib_a-freer.o)
                                0x1a4 (size before relaxing)
                0x80021560                _free_r
 *(.text.*personality*)
 *(.gnu.warning)

.exception      0x80021800      0x200
 .exception     0x80021800      0x200 avr32/drivers/intc/exception.o
                0x80021800                _evba
                0x80021904                _int0
                0x80021912                _int1
                0x80021920                _int2
                0x8002192e                _int3

.fini
 *(.fini)
                0x80021a00                PROVIDE (__etext, .)
                0x80021a00                PROVIDE (_etext, .)
                0x80021a00                PROVIDE (etext, .)

.rodata         0x80021a00     0x19a8
 *(.rodata .rodata.* .gnu.linkonce.r.*)
 .rodata.SMC_EBI_GPIO_MAP.10588
                0x80021a00      0x148 avr32/drivers/ebi/smc/smc.o
 .rodata.C.34.10514
                0x80021b48       0x10 avr32/drivers/flashc/flashc.o
 .rodata._int_handler_table
                0x80021b58       0xa0 avr32/drivers/intc/intc.o
 .rodata.HEX_DIGITS
                0x80021bf8       0x10 avr32/utils/debug/print_funcs.o
 .rodata.CSWTCH.100
                0x80021c08        0xc avr32/drivers/usbb/usbb_host.o
 .rodata.CSWTCH.103
                0x80021c14        0xc avr32/drivers/usbb/usbb_host.o
 .rodata.str1.4
                0x80021c20      0x311 common/services/usb/uhc/uhc.o
                                0x314 (size before relaxing)
 *fill*         0x80021f31        0x3 00
 .rodata.uhc_uhis
                0x80021f34       0x20 common/services/usb/uhc/uhc.o
 .rodata.str1.4
                0x80021f54       0x29 ../src/app_timers.o
                                 0x2c (size before relaxing)
 *fill*         0x80021f7d        0x3 00
 .rodata.str1.4
                0x80021f80       0x7d ../src/bfin.o
                                 0x84 (size before relaxing)
 *fill*         0x80021ffd        0x3 00
 .rodata.str1.4
                0x80022000       0x15 ../src/events.o
                                 0x18 (size before relaxing)
 .rodata.enc_map
                0x80022015       0x10 ../src/encoders.o
 *fill*         0x80022025        0x3 00
 .rodata.str1.4
                0x80022028      0x1e6 ../src/files.o
                                0x1e8 (size before relaxing)
 *fill*         0x8002220e        0x2 00
 .rodata.str1.4
                0x80022210      0x121 ../src/filesystem.o
                                0x124 (size before relaxing)
 *fill*         0x80022331        0x3 00
 .rodata.str1.4
                0x80022334       0x36 ../src/flash.o
                                 0x50 (size before relaxing)
 .rodata.font_data
                0x8002236a      0x2f8 ../src/font.o
                0x8002236a                font_data
 *fill*         0x80022662        0x2 00
 .rodata.tc_interrupt.13477
                0x80022664        0x4 ../src/init.o
 .rodata.FTDI_USART_OPTIONS.13482
                0x80022668        0xc ../src/init.o
 .rodata.FTDI_USART_GPIO_MAP.13481
                0x80022674       0x10 ../src/init.o
 .rodata.OLED_SPI_GPIO_MAP.13486
                0x80022684       0x30 ../src/init.o
 .rodata.waveform_opt.13476
                0x800226b4        0x8 ../src/init.o
 .rodata.C.65.13495
                0x800226bc       0x18 ../src/init.o
 .rodata.BFIN_SPI_GPIO_MAP.13499
                0x800226d4       0x20 ../src/init.o
 .rodata.C.63.13488
                0x800226f4       0x10 ../src/init.o
 .rodata.C.66.13501
                0x80022704       0x10 ../src/init.o
 .rodata.C.64.13494
                0x80022714       0x18 ../src/init.o
 .rodata.str1.4
                0x8002272c       0x30 ../src/memory.o
 .rodata.lines  0x8002275c        0x8 ../src/screen.o
                0x8002275c                lines
 .rodata.kSwitchEvents
                0x80022764       0x40 ../src/switches.o
 .rodata.str1.4
                0x800227a4       0x1c ../src/switches.o
 .rodata.kSwitchPins
                0x800227c0        0x8 ../src/switches.o
 .rodata.main   0x800227c8       0x54 ../src/main.o
 .rodata.str1.4
                0x8002281c      0x1de ../src/main.o
                                0x1e0 (size before relaxing)
 *fill*         0x800229fa        0x2 00
 .rodata.str1.4
                0x800229fc       0x7f ../src/usb/mouse/hid_mouse.o
                                 0x80 (size before relaxing)
 *fill*         0x80022a7b        0x1 00
 .rodata.str1.4
                0x80022a7c      0x15b ../src/usb/gamepad/uhi_hid_gamepad.o
                                0x168 (size before relaxing)
 *fill*         0x80022bd7        0x1 00
 .rodata.fl_fopen
                0x80022bd8      0x134 ../src/fat_io_lib/fat_filelib.o
 .rodata.str1.4
                0x80022d0c       0x3b ../src/fat_io_lib/fat_filelib.o
                                 0x40 (size before relaxing)
 *fill*         0x80022d47        0x1 00
 .rodata.str1.4
                0x80022d48       0x11 ../src/fat_io_lib/fat_misc.o
                                 0x14 (size before relaxing)
 *fill*         0x80022d59        0x3 00
 .rodata.C.1.2863
                0x80022d5c       0x34 ../src/fat_io_lib/fat_misc.o
 .rodata.key_handler_scenes
                0x80022d90       0x40 ../apps/bees/src/key_handler.o
 .rodata.key_handler_presets
                0x80022dd0       0x30 ../apps/bees/src/key_handler.o
 .rodata.key_handler_play
                0x80022e00       0x40 ../apps/bees/src/key_handler.o
 .rodata.key_handler_outs
                0x80022e40       0x38 ../apps/bees/src/key_handler.o
 .rodata.key_handler_ins
                0x80022e78       0x40 ../apps/bees/src/key_handler.o
 .rodata.key_handler_ops
                0x80022eb8       0x40 ../apps/bees/src/key_handler.o
 .rodata.str1.4
                0x80022ef8       0x78 ../apps/bees/src/key_handler.o
 .rodata.scroll_page
                0x80022f70       0x1c ../apps/bees/src/menu.o
 .rodata.userOpTypes
                0x80022f8c       0x18 ../apps/bees/src/menu.o
                0x80022f8c                userOpTypes
 .rodata.str1.4
                0x80022fa4       0xc1 ../apps/bees/src/menu.o
                                 0xc4 (size before relaxing)
 *fill*         0x80023065        0x3 00
 .rodata.str1.4
                0x80023068       0x3c ../apps/bees/src/net.o
                                 0x40 (size before relaxing)
 .rodata.op_registry
                0x800230a4       0x28 ../apps/bees/src/op.o
                0x800230a4                op_registry
 .rodata.str1.4
                0x800230cc       0x15 ../apps/bees/src/op.o
                                 0x18 (size before relaxing)
 *fill*         0x800230e1        0x3 00
 .rodata.str1.4
                0x800230e4        0x8 ../apps/bees/src/preset.o
 .rodata.str1.4
                0x800230ec       0xd9 ../apps/bees/src/redraw.o
                                 0xf8 (size before relaxing)
 *fill*         0x800231c5        0x3 00
 .rodata.str1.4
                0x800231c8       0x7d ../apps/bees/src/scene.o
                                 0x80 (size before relaxing)
 *fill*         0x80023245        0x3 00
 .rodata.op_add_instring
                0x80023248        0x4 ../apps/bees/src/ops/op_add.o
 .rodata.str1.4
                0x8002324c       0x2d ../apps/bees/src/ops/op_add.o
                                 0x30 (size before relaxing)
 *fill*         0x80023279        0x3 00
 .rodata.op_add_opstring
                0x8002327c        0x4 ../apps/bees/src/ops/op_add.o
 .rodata.op_add_outstring
                0x80023280        0x4 ../apps/bees/src/ops/op_add.o
 .rodata.op_enc_instring
                0x80023284        0x4 ../apps/bees/src/ops/op_enc.o
 .rodata.op_enc_opstring
                0x80023288        0x4 ../apps/bees/src/ops/op_enc.o
 .rodata.op_enc_outstring
                0x8002328c        0x4 ../apps/bees/src/ops/op_enc.o
 .rodata.str1.4
                0x80023290       0x3d ../apps/bees/src/ops/op_enc.o
                                 0x44 (size before relaxing)
 *fill*         0x800232cd        0x3 00
 .rodata.str1.4
                0x800232d0       0x25 ../apps/bees/src/ops/op_gate.o
                                 0x30 (size before relaxing)
 *fill*         0x800232f5        0x3 00
 .rodata.op_gate_outstring
                0x800232f8        0x4 ../apps/bees/src/ops/op_gate.o
 .rodata.op_gate_instring
                0x800232fc        0x4 ../apps/bees/src/ops/op_gate.o
 .rodata.op_gate_opstring
                0x80023300        0x4 ../apps/bees/src/ops/op_gate.o
 .rodata.str1.4
                0x80023304        0x9 ../apps/bees/src/ops/op_mul.o
                                 0x2c (size before relaxing)
 *fill*         0x8002330d        0x3 00
 .rodata.op_mul_outstring
                0x80023310        0x4 ../apps/bees/src/ops/op_mul.o
 .rodata.op_mul_instring
                0x80023314        0x4 ../apps/bees/src/ops/op_mul.o
 .rodata.op_mul_opstring
                0x80023318        0x4 ../apps/bees/src/ops/op_mul.o
 .rodata.op_sw_instring
                0x8002331c        0x4 ../apps/bees/src/ops/op_sw.o
 .rodata.op_sw_opstring
                0x80023320        0x4 ../apps/bees/src/ops/op_sw.o
 .rodata.op_sw_outstring
                0x80023324        0x4 ../apps/bees/src/ops/op_sw.o
 .rodata.str1.4
                0x80023328       0x19 ../apps/bees/src/ops/op_sw.o
                                 0x2c (size before relaxing)
 *fill*         0x80023341        0x3 00
 .rodata.str1.4
                0x80023344        0x4 /home/emb/avr32-gnu-toolchain/bin/../lib/gcc/avr32/4.4.3/../../../../avr32/lib/ucr2/libc.a(lib_a-impure.o)
 .rodata.__sf_fake_stdin
                0x80023348       0x20 /home/emb/avr32-gnu-toolchain/bin/../lib/gcc/avr32/4.4.3/../../../../avr32/lib/ucr2/libc.a(lib_a-findfp.o)
                0x80023348                __sf_fake_stdin
 .rodata.__sf_fake_stdout
                0x80023368       0x20 /home/emb/avr32-gnu-toolchain/bin/../lib/gcc/avr32/4.4.3/../../../../avr32/lib/ucr2/libc.a(lib_a-findfp.o)
                0x80023368                __sf_fake_stdout
 .rodata.__sf_fake_stderr
                0x80023388       0x20 /home/emb/avr32-gnu-toolchain/bin/../lib/gcc/avr32/4.4.3/../../../../avr32/lib/ucr2/libc.a(lib_a-findfp.o)
                0x80023388                __sf_fake_stderr

.rodata1
 *(.rodata1)

.eh_frame_hdr
 *(.eh_frame_hdr)

.eh_frame
 *(.eh_frame)

.gcc_except_table
 *(.gcc_except_table)
 *(.gcc_except_table.*)

.lalign         0x800233a8        0x0
                0x800233a8                . = ALIGN (0x8)
                0x800233a8                PROVIDE (_data_lma, .)
                0x00000004                . = ORIGIN (INTRAM)

.dalign         0x00000004        0x4
                0x00000008                . = ALIGN (0x8)
 *fill*         0x00000004        0x4 00
                0x00000008                PROVIDE (_data, .)

.eh_frame
 *(.eh_frame)

.gcc_except_table
 *(.gcc_except_table)
 *(.gcc_except_table.*)

.tdata
 *(.tdata .tdata.* .gnu.linkonce.td.*)

.tbss
 *(.tbss .tbss.* .gnu.linkonce.tb.*)
 *(.tcommon)
                0x00000008                PROVIDE (__preinit_array_start, ALIGN (0x4))

.preinit_array
 *(.preinit_array)
                0x00000008                PROVIDE (__preinit_array_end, .)
                0x00000008                PROVIDE (__init_array_start, .)

.init_array
 *(.init_array)
                0x00000008                PROVIDE (__init_array_end, .)
                0x00000008                PROVIDE (__fini_array_start, .)

.fini_array
 *(.fini_array)
                0x00000008                PROVIDE (__fini_array_end, .)

.ctors
 *crtbegin*.o(.ctors)
 *(EXCLUDE_FILE(*crtend*.o) .ctors)
 *(SORT(.ctors.*))
 *(.ctors)

.dtors
 *crtbegin*.o(.dtors)
 *(EXCLUDE_FILE(*crtend*.o) .dtors)
 *(SORT(.dtors.*))
 *(.dtors)

.jcr
 *(.jcr)

.data.rel.ro
 *(.data.rel.ro.local)
 *(.data.rel.ro*)

.dynamic
 *(.dynamic)

.got
 *(.got.plt)
 *(.got)

.ramtext
 *(.ramtext .ramtext.*)

.ddalign        0x00000008        0x0 load address 0x800233a8
                0x00000008                . = ALIGN (0x8)

.data           0x00000008      0x64c load address 0x800233a8
 *(.data .data.* .gnu.linkonce.d.*)
 .data.flashc_wait_until_ready
                0x00000008        0x4 avr32/drivers/flashc/flashc.o
                0x00000008                flashc_wait_until_ready
 .data.startup  0x0000000c        0x1 ../src/main.o
 *fill*         0x0000000d        0x3 00
 .data.bufLo    0x00000010        0x4 ../../common/fix.o
 .data.bufHi    0x00000014        0x8 ../../common/fix.o
 .data.pages    0x0000001c       0xe0 ../apps/bees/src/menu.o
                0x0000001c                pages
 .data.numBuf   0x000000fc        0xc ../apps/bees/src/redraw.o
 .data.pline    0x00000108        0x4 ../apps/bees/src/redraw.o
 .data.op_add_in_func
                0x0000010c        0xc ../apps/bees/src/ops/op_add.o
 .data.op_enc_in_func
                0x00000118       0x14 ../apps/bees/src/ops/op_enc.o
 .data.op_gate_in_func
                0x0000012c        0xc ../apps/bees/src/ops/op_gate.o
 .data.op_mul_in_func
                0x00000138        0xc ../apps/bees/src/ops/op_mul.o
 .data.op_sw_in_func
                0x00000144        0xc ../apps/bees/src/ops/op_sw.o
 .data.__malloc_av_
                0x00000150      0x408 /home/emb/avr32-gnu-toolchain/bin/../lib/gcc/avr32/4.4.3/../../../../avr32/lib/ucr2/libc.a(lib_a-mallocr.o)
                0x00000150                __malloc_av_
 .data.__malloc_trim_threshold
                0x00000558        0x4 /home/emb/avr32-gnu-toolchain/bin/../lib/gcc/avr32/4.4.3/../../../../avr32/lib/ucr2/libc.a(lib_a-mallocr.o)
                0x00000558                __malloc_trim_threshold
 .data.__malloc_sbrk_base
                0x0000055c        0x4 /home/emb/avr32-gnu-toolchain/bin/../lib/gcc/avr32/4.4.3/../../../../avr32/lib/ucr2/libc.a(lib_a-mallocr.o)
                0x0000055c                __malloc_sbrk_base
 .data.impure_data
                0x00000560       0xf0 /home/emb/avr32-gnu-toolchain/bin/../lib/gcc/avr32/4.4.3/../../../../avr32/lib/ucr2/libc.a(lib_a-impure.o)
 .data._impure_ptr
                0x00000650        0x4 /home/emb/avr32-gnu-toolchain/bin/../lib/gcc/avr32/4.4.3/../../../../avr32/lib/ucr2/libc.a(lib_a-impure.o)
                0x00000650                _impure_ptr
 *(.gnu.linkonce.d.*personality*)

.data1
 *(.data1)

.balign         0x00000654        0x4 load address 0x800239f4
                0x00000658                . = ALIGN (0x8)
 *fill*         0x00000654        0x4 00
                0x00000658                PROVIDE (_edata, .)
                0x00000658                PROVIDE (edata, .)
                0x00000658                __bss_start = .

.bss            0x00000658     0xca80
 *(.dynbss)
 *(.bss .bss.* .gnu.linkonce.b.*)
 .bss.smc_tab_cs_size
                0x00000658        0x8 avr32/drivers/ebi/smc/smc.o
 .bss.flashc_error_status
                0x00000660        0x4 avr32/drivers/flashc/flashc.o
 .bss._int_line_handler_table_6
                0x00000664        0x4 avr32/drivers/intc/intc.o
 .bss._int_line_handler_table_7
                0x00000668        0x4 avr32/drivers/intc/intc.o
 .bss._int_line_handler_table_8
                0x0000066c        0x4 avr32/drivers/intc/intc.o
 .bss._int_line_handler_table_9
                0x00000670        0x4 avr32/drivers/intc/intc.o
 .bss._int_line_handler_table_10
                0x00000674        0x4 avr32/drivers/intc/intc.o
 .bss._int_line_handler_table_11
                0x00000678        0x4 avr32/drivers/intc/intc.o
 .bss._int_line_handler_table_12
                0x0000067c        0x4 avr32/drivers/intc/intc.o
 .bss._int_line_handler_table_13
                0x00000680        0x4 avr32/drivers/intc/intc.o
 .bss._int_line_handler_table_14
                0x00000684        0xc avr32/drivers/intc/intc.o
 .bss._int_line_handler_table_15
                0x00000690        0x4 avr32/drivers/intc/intc.o
 .bss._int_line_handler_table_16
                0x00000694        0x4 avr32/drivers/intc/intc.o
 .bss._int_line_handler_table_17
                0x00000698        0x4 avr32/drivers/intc/intc.o
 .bss._int_line_handler_table_18
                0x0000069c        0x4 avr32/drivers/intc/intc.o
 .bss._int_line_handler_table_19
                0x000006a0        0x4 avr32/drivers/intc/intc.o
 .bss._int_line_handler_table_0
                0x000006a4        0x4 avr32/drivers/intc/intc.o
 .bss._int_line_handler_table_1
                0x000006a8       0x2c avr32/drivers/intc/intc.o
 .bss._int_line_handler_table_2
                0x000006d4       0x38 avr32/drivers/intc/intc.o
 .bss._int_line_handler_table_3
                0x0000070c       0x3c avr32/drivers/intc/intc.o
 .bss._int_line_handler_table_4
                0x00000748        0x4 avr32/drivers/intc/intc.o
 .bss._int_line_handler_table_5
                0x0000074c        0x4 avr32/drivers/intc/intc.o
 .bss.gl_ptr_mem
                0x00000750        0x4 avr32/components/memory/sd_mmc/sd_mmc_spi/sd_mmc_spi.o
 .bss.sd_mmc_opt
                0x00000754       0x10 avr32/components/memory/sd_mmc/sd_mmc_spi/sd_mmc_spi.o
 .bss.sd_mmc_pba_hz
                0x00000764        0x4 avr32/components/memory/sd_mmc/sd_mmc_spi/sd_mmc_spi.o
 .bss.sd_mmc_spi_init_done
                0x00000768        0x1 avr32/components/memory/sd_mmc/sd_mmc_spi/sd_mmc_spi.o
                0x00000768                sd_mmc_spi_init_done
 .bss.otg_initialized
                0x00000769        0x1 avr32/drivers/usbb/usbb_host.o
 *fill*         0x0000076a        0x2 00
 .bss.uhd_reset_callback
                0x0000076c        0x4 avr32/drivers/usbb/usbb_host.o
 .bss.uhd_pipe_job
                0x00000770       0x78 avr32/drivers/usbb/usbb_host.o
 .bss.uhd_suspend_start
                0x000007e8        0x1 avr32/drivers/usbb/usbb_host.o
 .bss.uhd_pipes_unfreeze
                0x000007e9        0x1 avr32/drivers/usbb/usbb_host.o
 .bss.uhd_resume_start
                0x000007ea        0x1 avr32/drivers/usbb/usbb_host.o
 .bss.uhd_b_suspend_requested
                0x000007eb        0x1 avr32/drivers/usbb/usbb_host.o
 .bss.sysclk_pbb_refcount
                0x000007ec        0x1 common/services/clock/uc3a0_a1/sysclk.o
 *fill*         0x000007ed        0x3 00
 .bss.g_uhc_device_root
                0x000007f0       0x1c common/services/usb/uhc/uhc.o
 .bss.uhc_enum_try
                0x0000080c        0x1 common/services/usb/uhc/uhc.o
 *fill*         0x0000080d        0x3 00
 .bss.uhc_sof_timeout_callback
                0x00000810        0x4 common/services/usb/uhc/uhc.o
 .bss.adcVal.11232
                0x00000814        0x8 ../src/adc.o
 .bss.adcOldVal.11233
                0x0000081c        0x8 ../src/adc.o
 .bss.e.11234   0x00000824        0x8 ../src/adc.o
 .bss.i         0x0000082c        0x1 ../src/app_timers.o
 *fill*         0x0000082d        0x3 00
 .bss.adcTimer  0x00000830       0x14 ../src/app_timers.o
 .bss.screenTimer
                0x00000844       0x14 ../src/app_timers.o
 .bss.encTimer  0x00000858       0x14 ../src/app_timers.o
 .bss.e         0x0000086c        0x8 ../src/app_timers.o
 .bss.val.11066
                0x00000874        0x2 ../src/app_timers.o
 .bss.pval.12988
                0x00000876        0x4 ../src/bfin.o
 *fill*         0x0000087a        0x2 00
 .bss.putIdx    0x0000087c        0x4 ../src/events.o
 .bss.getIdx    0x00000880        0x4 ../src/events.o
 .bss.sysEvents
                0x00000884      0x100 ../src/events.o
 .bss.sceneList
                0x00000984      0x80c ../src/files.o
 .bss.dspList   0x00001190      0x80c ../src/files.o
 .bss.bfinLdrSize
                0x0000199c        0x4 ../src/flash.o
                0x0000199c                bfinLdrSize
 .bss.refresh   0x000019a0        0x1 ../src/interrupts.o
                0x000019a0                refresh
 .bss.tcOverflow
                0x000019a1        0x1 ../src/interrupts.o
                0x000019a1                tcOverflow
 *fill*         0x000019a2        0x2 00
 .bss.tcTicks   0x000019a4        0x8 ../src/interrupts.o
                0x000019a4                tcTicks
 .bss.pHeapStart
                0x000019ac        0x4 ../src/memory.o
 .bss.heapOffset
                0x000019b0        0x4 ../src/memory.o
 .bss.heapSize  0x000019b4        0x4 ../src/memory.o
 .bss.pHeapEnd  0x000019b8        0x4 ../src/memory.o
 .bss.i         0x000019bc        0x1 ../src/screen.o
 .bss.j         0x000019bd        0x1 ../src/screen.o
 .bss.i.12095   0x000019be        0x1 ../src/screen.o
 .bss.y         0x000019bf        0x1 ../src/screen.o
 .bss.pos       0x000019c0        0x4 ../src/screen.o
 .bss.g.12247   0x000019c4        0x4 ../src/screen.o
 .bss.xnum.12246
                0x000019c8        0x1 ../src/screen.o
 *fill*         0x000019c9        0x3 00
 .bss.screen    0x000019cc     0x1000 ../src/screen.o
 .bss.e.10623   0x000029cc        0x8 ../src/switches.o
 .bss.timers    0x000029d4       0x20 ../src/timers.o
 .bss.e.13637   0x000029f4        0x8 ../src/main.o
 .bss.mode      0x000029fc        0x1 ../src/main.o
 *fill*         0x000029fd        0x3 00
 .bss.uhi_hid_mouse_dev
                0x00002a00       0x10 ../src/usb/mouse/uhi_hid_mouse.o
 .bss.uhi_hid_gamepad_dev
                0x00002a10        0xc ../src/usb/gamepad/uhi_hid_gamepad.o
 .bss._open_file_list
                0x00002a1c        0x8 ../src/fat_io_lib/fat_filelib.o
 .bss._filelib_valid
                0x00002a24        0x4 ../src/fat_io_lib/fat_filelib.o
 .bss._fs       0x00002a28      0x468 ../src/fat_io_lib/fat_filelib.o
 .bss._files    0x00002e90      0x888 ../src/fat_io_lib/fat_filelib.o
 .bss._filelib_init
                0x00003718        0x4 ../src/fat_io_lib/fat_filelib.o
 .bss._free_file_list
                0x0000371c        0x8 ../src/fat_io_lib/fat_filelib.o
 .bss.p.10522   0x00003724        0x4 ../../common/fix.o
 .bss.u         0x00003728        0x4 ../../common/fix.o
 .bss.p.10486   0x0000372c        0x4 ../../common/fix.o
 .bss.a         0x00003730        0x4 ../../common/fix.o
 .bss.p.10605   0x00003734        0x4 ../../common/fix.o
 .bss.p.10557   0x00003738        0x4 ../../common/fix.o
 .bss.sign      0x0000373c        0x4 ../../common/fix.o
 .bss.target.11164
                0x00003740        0x4 ../apps/bees/src/key_handler.o
 .bss.selectedLabelChar
                0x00003744        0x1 ../apps/bees/src/key_handler.o
 .bss.savedPageIdx
                0x00003745        0x1 ../apps/bees/src/menu.o
 .bss.pageIdx   0x00003746        0x1 ../apps/bees/src/menu.o
                0x00003746                pageIdx
 *fill*         0x00003747        0x1 00
 .bss.str.10985
                0x00003748       0x10 ../apps/bees/src/op.o
 .bss.str.11004
                0x00003758       0x10 ../apps/bees/src/op.o
 .bss.scrollIdx
                0x00003768        0x2 ../apps/bees/src/play.o
 .bss.getIdx.11063
                0x0000376a        0x2 ../apps/bees/src/play.o
 .bss.scrollBuf
                0x0000376c      0x15e ../apps/bees/src/play.o
 *fill*         0x000038ca        0x2 00
 .bss.lineBuf   0x000038cc       0x34 ../apps/bees/src/redraw.o
 .bss.__malloc_max_total_mem
                0x00003900        0x4 /home/emb/avr32-gnu-toolchain/bin/../lib/gcc/avr32/4.4.3/../../../../avr32/lib/ucr2/libc.a(lib_a-mallocr.o)
                0x00003900                __malloc_max_total_mem
 .bss.__malloc_max_sbrked_mem
                0x00003904        0x4 /home/emb/avr32-gnu-toolchain/bin/../lib/gcc/avr32/4.4.3/../../../../avr32/lib/ucr2/libc.a(lib_a-mallocr.o)
                0x00003904                __malloc_max_sbrked_mem
 .bss.__malloc_top_pad
                0x00003908        0x4 /home/emb/avr32-gnu-toolchain/bin/../lib/gcc/avr32/4.4.3/../../../../avr32/lib/ucr2/libc.a(lib_a-mallocr.o)
                0x00003908                __malloc_top_pad
 .bss.__malloc_current_mallinfo
                0x0000390c       0x28 /home/emb/avr32-gnu-toolchain/bin/../lib/gcc/avr32/4.4.3/../../../../avr32/lib/ucr2/libc.a(lib_a-mallocr.o)
                0x0000390c                __malloc_current_mallinfo
 .bss.cur_heap_pos.1869
                0x00003934        0x4 /home/emb/avr32-gnu-toolchain/bin/../lib/gcc/avr32/4.4.3/../../../../avr32/lib/ucr2/libc.a(lib_a-syscalls.o)
 *(COMMON)
 COMMON         0x00003938      0x229 avr32/components/memory/sd_mmc/sd_mmc_spi/sd_mmc_spi.o
                0x00003938                data_mem
                0x00003b3c                capacity
                0x00003b44                capacity_mult
                0x00003b46                erase_group_size
                0x00003b48                sd_mmc_spi_last_block_address
                0x00003b4c                r2
                0x00003b4e                card_type
                0x00003b50                csd
                0x00003b60                r1
 *fill*         0x00003b61        0x3 00
 COMMON         0x00003b64       0x12 avr32/drivers/usbb/usbb_host.o
                0x00003b64                uhd_ctrl_request_phase
                0x00003b68                uhd_ctrl_request_first
                0x00003b6c                uhd_ctrl_nb_trans
                0x00003b70                uhd_ctrl_request_last
                0x00003b74                uhd_ctrl_request_timeout
 COMMON         0x00003b76        0x1 common/services/usb/uhc/uhc.o
                0x00003b76                uhc_sof_timeout
 *fill*         0x00003b77        0x1 00
 COMMON         0x00003b78       0x30 ../src/encoders.o
                0x00003b78                enc
 COMMON         0x00003ba8      0x40c ../src/filesystem.o
                0x00003ba8                pdcaRxChan
                0x00003bac                fsEndTransfer
                0x00003bb0                pdcaTxChan
                0x00003bb4                pdcaTxBuf
                0x00003db4                pdcaRxBuf
 COMMON         0x00003fb4        0x8 ../src/flash.o
                0x00003fb4                bfinLdrData
                0x00003fb8                fwBinData
 COMMON         0x00003fbc       0x10 ../apps/bees/src/menu.o
                0x00003fbc                curPage
                0x00003fc0                gathered
                0x00003fc4                newOpType
                0x00003fc8                numGathered
 COMMON         0x00003fcc        0x4 ../apps/bees/src/net.o
                0x00003fcc                net
 COMMON         0x00003fd0     0x9100 ../apps/bees/src/preset.o
                0x00003fd0                presets
 COMMON         0x0000d0d0        0x4 ../apps/bees/src/scene.o
                0x0000d0d0                sceneData
 COMMON         0x0000d0d4        0x4 /home/emb/avr32-gnu-toolchain/bin/../lib/gcc/avr32/4.4.3/../../../../avr32/lib/ucr2/libc.a(lib_a-reent.o)
                0x0000d0d4                errno
                0x0000d0d8                . = ALIGN (0x8)
                0x0000d0d8                . = ALIGN (0x8)
                0x0000d0d8                _end = .
                0x0000d0d8                PROVIDE (end, .)
                0x0000d0d8                __heap_start__ = ALIGN (0x8)

.heap           0x0000d0d8     0x1f28
 *(.heap)
                0x00001f28                . = (__heap_size__ == __max_heap_size__)?(((ORIGIN (INTRAM) + 0xfffc) - __stack_size__) - ABSOLUTE (.)):__heap_size__
 *fill*         0x0000d0d8     0x1f28 00
                0x0000f000                __heap_end__ = .

.stab
 *(.stab)

.stabstr
 *(.stabstr)

.stab.excl
 *(.stab.excl)

.stab.exclstr
 *(.stab.exclstr)

.stab.index
 *(.stab.index)

.stab.indexstr
 *(.stab.indexstr)

.comment        0x00000000       0x30
 *(.comment)
 .comment       0x00000000       0x30 avr32/drivers/ebi/smc/smc.o
                                 0x31 (size before relaxing)
 .comment       0x00000000       0x31 avr32/drivers/flashc/flashc.o
 .comment       0x00000000       0x31 avr32/drivers/gpio/gpio.o
 .comment       0x00000000       0x31 avr32/drivers/intc/intc.o
 .comment       0x00000000       0x31 avr32/drivers/pdca/pdca.o
 .comment       0x00000000       0x31 avr32/drivers/spi/spi.o
 .comment       0x00000000       0x31 avr32/drivers/tc/tc.o
 .comment       0x00000000       0x31 avr32/drivers/usart/usart.o
 .comment       0x00000000       0x31 avr32/utils/debug/print_funcs.o
 .comment       0x00000000       0x31 avr32/components/memory/sd_mmc/sd_mmc_spi/sd_mmc_spi.o
 .comment       0x00000000       0x31 avr32/drivers/usbb/usbb_host.o
 .comment       0x00000000       0x31 common/services/clock/uc3a0_a1/sysclk.o
 .comment       0x00000000       0x31 common/services/usb/uhc/uhc.o
 .comment       0x00000000       0x31 ../src/adc.o
 .comment       0x00000000       0x31 ../src/app_timers.o
 .comment       0x00000000       0x31 ../src/bfin.o
 .comment       0x00000000       0x31 ../src/events.o
 .comment       0x00000000       0x31 ../src/encoders.o
 .comment       0x00000000       0x31 ../src/files.o
 .comment       0x00000000       0x31 ../src/filesystem.o
 .comment       0x00000000       0x31 ../src/flash.o
 .comment       0x00000000       0x31 ../src/font.o
 .comment       0x00000000       0x31 ../src/init.o
 .comment       0x00000000       0x31 ../src/interrupts.o
 .comment       0x00000000       0x31 ../src/memory.o
 .comment       0x00000000       0x31 ../src/screen.o
 .comment       0x00000000       0x31 ../src/simple_string.o
 .comment       0x00000000       0x31 ../src/switches.o
 .comment       0x00000000       0x31 ../src/timers.o
 .comment       0x00000000       0x31 ../src/main.o
 .comment       0x00000000       0x31 ../src/usb.o
 .comment       0x00000000       0x31 ../src/usb/mouse/hid_mouse.o
 .comment       0x00000000       0x31 ../src/usb/mouse/uhi_hid_mouse.o
 .comment       0x00000000       0x31 ../src/usb/gamepad/uhi_hid_gamepad.o
 .comment       0x00000000       0x31 ../src/fat_io_lib/fat_access.o
 .comment       0x00000000       0x31 ../src/fat_io_lib/fat_cache.o
 .comment       0x00000000       0x31 ../src/fat_io_lib/fat_filelib.o
 .comment       0x00000000       0x31 ../src/fat_io_lib/fat_misc.o
 .comment       0x00000000       0x31 ../src/fat_io_lib/fat_string.o
 .comment       0x00000000       0x31 ../src/fat_io_lib/fat_table.o
 .comment       0x00000000       0x31 ../src/fat_io_lib/fat_write.o
 .comment       0x00000000       0x31 ../../common/fix.o
 .comment       0x00000000       0x31 ../../common/libfixmath/fix16.o
 .comment       0x00000000       0x31 ../apps/bees/src/key_handler.o
 .comment       0x00000000       0x31 ../apps/bees/src/menu.o
 .comment       0x00000000       0x31 ../apps/bees/src/net.o
 .comment       0x00000000       0x31 ../apps/bees/src/op.o
 .comment       0x00000000       0x31 ../apps/bees/src/param.o
 .comment       0x00000000       0x31 ../apps/bees/src/play.o
 .comment       0x00000000       0x31 ../apps/bees/src/preset.o
 .comment       0x00000000       0x31 ../apps/bees/src/redraw.o
 .comment       0x00000000       0x31 ../apps/bees/src/scene.o
 .comment       0x00000000       0x31 ../apps/bees/src/ops/op_add.o
 .comment       0x00000000       0x31 ../apps/bees/src/ops/op_enc.o
 .comment       0x00000000       0x31 ../apps/bees/src/ops/op_gate.o
 .comment       0x00000000       0x31 ../apps/bees/src/ops/op_mul.o
 .comment       0x00000000       0x31 ../apps/bees/src/ops/op_sw.o
 .comment       0x00000000       0x31 /home/emb/avr32-gnu-toolchain/bin/../lib/gcc/avr32/4.4.3/ucr2/libgcc.a(_udivdi3.o)
 .comment       0x00000000       0x31 /home/emb/avr32-gnu-toolchain/bin/../lib/gcc/avr32/4.4.3/../../../../avr32/lib/ucr2/libc.a(lib_a-malloc.o)
 .comment       0x00000000       0x31 /home/emb/avr32-gnu-toolchain/bin/../lib/gcc/avr32/4.4.3/../../../../avr32/lib/ucr2/libc.a(lib_a-mallocr.o)
 .comment       0x00000000       0x31 /home/emb/avr32-gnu-toolchain/bin/../lib/gcc/avr32/4.4.3/../../../../avr32/lib/ucr2/libc.a(lib_a-memset.o)
 .comment       0x00000000       0x31 /home/emb/avr32-gnu-toolchain/bin/../lib/gcc/avr32/4.4.3/../../../../avr32/lib/ucr2/libc.a(lib_a-mlock.o)
 .comment       0x00000000       0x31 /home/emb/avr32-gnu-toolchain/bin/../lib/gcc/avr32/4.4.3/../../../../avr32/lib/ucr2/libc.a(lib_a-sbrkr.o)
 .comment       0x00000000       0x31 /home/emb/avr32-gnu-toolchain/bin/../lib/gcc/avr32/4.4.3/../../../../avr32/lib/ucr2/libc.a(lib_a-strcpy.o)
 .comment       0x00000000       0x31 /home/emb/avr32-gnu-toolchain/bin/../lib/gcc/avr32/4.4.3/../../../../avr32/lib/ucr2/libc.a(lib_a-strlen.o)
 .comment       0x00000000       0x31 /home/emb/avr32-gnu-toolchain/bin/../lib/gcc/avr32/4.4.3/../../../../avr32/lib/ucr2/libc.a(lib_a-strncat.o)
 .comment       0x00000000       0x31 /home/emb/avr32-gnu-toolchain/bin/../lib/gcc/avr32/4.4.3/../../../../avr32/lib/ucr2/libc.a(lib_a-strncmp.o)
 .comment       0x00000000       0x31 /home/emb/avr32-gnu-toolchain/bin/../lib/gcc/avr32/4.4.3/../../../../avr32/lib/ucr2/libc.a(lib_a-syscalls.o)
 .comment       0x00000000       0x31 /home/emb/avr32-gnu-toolchain/bin/../lib/gcc/avr32/4.4.3/../../../../avr32/lib/ucr2/libc.a(lib_a-errno.o)
 .comment       0x00000000       0x31 /home/emb/avr32-gnu-toolchain/bin/../lib/gcc/avr32/4.4.3/../../../../avr32/lib/ucr2/libc.a(lib_a-freer.o)
 .comment       0x00000000       0x31 /home/emb/avr32-gnu-toolchain/bin/../lib/gcc/avr32/4.4.3/../../../../avr32/lib/ucr2/libc.a(lib_a-impure.o)
 .comment       0x00000000       0x31 /home/emb/avr32-gnu-toolchain/bin/../lib/gcc/avr32/4.4.3/../../../../avr32/lib/ucr2/libc.a(lib_a-reent.o)
 .comment       0x00000000       0x31 /home/emb/avr32-gnu-toolchain/bin/../lib/gcc/avr32/4.4.3/../../../../avr32/lib/ucr2/libc.a(lib_a-findfp.o)

.debug
 *(.debug)

.line
 *(.line)

.debug_srcinfo
 *(.debug_srcinfo)

.debug_sfnames
 *(.debug_sfnames)

.debug_aranges  0x00000000     0x1820
 *(.debug_aranges)
 .debug_aranges
                0x00000000       0x28 avr32/drivers/ebi/smc/smc.o
 .debug_aranges
                0x00000028      0x218 avr32/drivers/flashc/flashc.o
 .debug_aranges
                0x00000240      0x100 avr32/drivers/gpio/gpio.o
 .debug_aranges
                0x00000340       0x38 avr32/drivers/intc/intc.o
 .debug_aranges
                0x00000378       0xa8 avr32/drivers/pdca/pdca.o
 .debug_aranges
                0x00000420       0xa8 avr32/drivers/spi/spi.o
 .debug_aranges
                0x000004c8       0xa8 avr32/drivers/tc/tc.o
 .debug_aranges
                0x00000570       0xd8 avr32/drivers/usart/usart.o
 .debug_aranges
                0x00000648       0x88 avr32/utils/debug/print_funcs.o
 .debug_aranges
                0x000006d0       0xf8 avr32/components/memory/sd_mmc/sd_mmc_spi/sd_mmc_spi.o
 .debug_aranges
                0x000007c8       0xc0 avr32/drivers/usbb/usbb_host.o
 .debug_aranges
                0x00000888       0x58 common/services/clock/uc3a0_a1/sysclk.o
 .debug_aranges
                0x000008e0      0x118 common/services/usb/uhc/uhc.o
 .debug_aranges
                0x000009f8       0x28 ../src/adc.o
 .debug_aranges
                0x00000a20       0x38 ../src/app_timers.o
 .debug_aranges
                0x00000a58       0x48 ../src/bfin.o
 .debug_aranges
                0x00000aa0       0x30 ../src/events.o
 .debug_aranges
                0x00000ad0       0x30 ../src/encoders.o
 .debug_aranges
                0x00000b00       0x98 ../src/files.o
 .debug_aranges
                0x00000b98       0x30 ../src/filesystem.o
 .debug_aranges
                0x00000bc8       0x40 ../src/flash.o
 .debug_aranges
                0x00000c08       0x58 ../src/init.o
 .debug_aranges
                0x00000c60       0x50 ../src/interrupts.o
 .debug_aranges
                0x00000cb0       0x30 ../src/memory.o
 .debug_aranges
                0x00000ce0       0x98 ../src/screen.o
 .debug_aranges
                0x00000d78       0x20 ../src/simple_string.o
 .debug_aranges
                0x00000d98       0x20 ../src/switches.o
 .debug_aranges
                0x00000db8       0x38 ../src/timers.o
 .debug_aranges
                0x00000df0       0x20 ../src/main.o
 .debug_aranges
                0x00000e10       0x50 ../src/usb.o
 .debug_aranges
                0x00000e60       0x38 ../src/usb/mouse/hid_mouse.o
 .debug_aranges
                0x00000e98       0x38 ../src/usb/mouse/uhi_hid_mouse.o
 .debug_aranges
                0x00000ed0       0x38 ../src/usb/gamepad/uhi_hid_gamepad.o
 .debug_aranges
                0x00000f08       0x98 ../src/fat_io_lib/fat_access.o
 .debug_aranges
                0x00000fa0       0x30 ../src/fat_io_lib/fat_cache.o
 .debug_aranges
                0x00000fd0      0x118 ../src/fat_io_lib/fat_filelib.o
 .debug_aranges
                0x000010e8       0x88 ../src/fat_io_lib/fat_misc.o
 .debug_aranges
                0x00001170       0x58 ../src/fat_io_lib/fat_string.o
 .debug_aranges
                0x000011c8       0x68 ../src/fat_io_lib/fat_table.o
 .debug_aranges
                0x00001230       0x30 ../src/fat_io_lib/fat_write.o
 .debug_aranges
                0x00001260       0x38 ../../common/fix.o
 .debug_aranges
                0x00001298       0x70 ../../common/libfixmath/fix16.o
 .debug_aranges
                0x00001308       0x60 ../apps/bees/src/key_handler.o
 .debug_aranges
                0x00001368       0x60 ../apps/bees/src/menu.o
 .debug_aranges
                0x000013c8      0x148 ../apps/bees/src/net.o
 .debug_aranges
                0x00001510       0x40 ../apps/bees/src/op.o
 .debug_aranges
                0x00001550       0x38 ../apps/bees/src/param.o
 .debug_aranges
                0x00001588       0x30 ../apps/bees/src/play.o
 .debug_aranges
                0x000015b8       0x50 ../apps/bees/src/preset.o
 .debug_aranges
                0x00001608       0x78 ../apps/bees/src/redraw.o
 .debug_aranges
                0x00001680       0x48 ../apps/bees/src/scene.o
 .debug_aranges
                0x000016c8       0x40 ../apps/bees/src/ops/op_add.o
 .debug_aranges
                0x00001708       0x58 ../apps/bees/src/ops/op_enc.o
 .debug_aranges
                0x00001760       0x40 ../apps/bees/src/ops/op_gate.o
 .debug_aranges
                0x000017a0       0x40 ../apps/bees/src/ops/op_mul.o
 .debug_aranges
                0x000017e0       0x40 ../apps/bees/src/ops/op_sw.o

.debug_pubnames
                0x00000000     0x34ee
 *(.debug_pubnames)
 .debug_pubnames
                0x00000000       0x33 avr32/drivers/ebi/smc/smc.o
 .debug_pubnames
                0x00000033      0x771 avr32/drivers/flashc/flashc.o
 .debug_pubnames
                0x000007a4      0x330 avr32/drivers/gpio/gpio.o
 .debug_pubnames
                0x00000ad4       0x62 avr32/drivers/intc/intc.o
 .debug_pubnames
                0x00000b36      0x238 avr32/drivers/pdca/pdca.o
 .debug_pubnames
                0x00000d6e      0x178 avr32/drivers/spi/spi.o
 .debug_pubnames
                0x00000ee6      0x164 avr32/drivers/tc/tc.o
 .debug_pubnames
                0x0000104a      0x227 avr32/drivers/usart/usart.o
 .debug_pubnames
                0x00001271      0x10f avr32/utils/debug/print_funcs.o
 .debug_pubnames
                0x00001380      0x3b1 avr32/components/memory/sd_mmc/sd_mmc_spi/sd_mmc_spi.o
 .debug_pubnames
                0x00001731      0x1d4 avr32/drivers/usbb/usbb_host.o
 .debug_pubnames
                0x00001905       0xc7 common/services/clock/uc3a0_a1/sysclk.o
 .debug_pubnames
                0x000019cc      0x196 common/services/usb/uhc/uhc.o
 .debug_pubnames
                0x00001b62       0x2c ../src/adc.o
 .debug_pubnames
                0x00001b8e       0x26 ../src/app_timers.o
 .debug_pubnames
                0x00001bb4       0x97 ../src/bfin.o
 .debug_pubnames
                0x00001c4b       0x44 ../src/events.o
 .debug_pubnames
                0x00001c8f       0x4f ../src/encoders.o
 .debug_pubnames
                0x00001cde      0x15a ../src/files.o
 .debug_pubnames
                0x00001e38       0x8a ../src/filesystem.o
 .debug_pubnames
                0x00001ec2       0xaf ../src/flash.o
 .debug_pubnames
                0x00001f71       0x31 ../src/font.o
 .debug_pubnames
                0x00001fa2       0x99 ../src/init.o
 .debug_pubnames
                0x0000203b       0x51 ../src/interrupts.o
 .debug_pubnames
                0x0000208c       0x3b ../src/memory.o
 .debug_pubnames
                0x000020c7      0x13d ../src/screen.o
 .debug_pubnames
                0x00002204       0x1f ../src/simple_string.o
 .debug_pubnames
                0x00002223       0x21 ../src/switches.o
 .debug_pubnames
                0x00002244       0x52 ../src/timers.o
 .debug_pubnames
                0x00002296       0x1b ../src/main.o
 .debug_pubnames
                0x000022b1       0x88 ../src/usb.o
 .debug_pubnames
                0x00002339       0x6d ../src/usb/mouse/hid_mouse.o
 .debug_pubnames
                0x000023a6       0x61 ../src/usb/mouse/uhi_hid_mouse.o
 .debug_pubnames
                0x00002407       0x67 ../src/usb/gamepad/uhi_hid_gamepad.o
 .debug_pubnames
                0x0000246e      0x182 ../src/fat_io_lib/fat_access.o
 .debug_pubnames
                0x000025f0       0x69 ../src/fat_io_lib/fat_cache.o
 .debug_pubnames
                0x00002659      0x179 ../src/fat_io_lib/fat_filelib.o
 .debug_pubnames
                0x000027d2      0x17e ../src/fat_io_lib/fat_misc.o
 .debug_pubnames
                0x00002950       0xe8 ../src/fat_io_lib/fat_string.o
 .debug_pubnames
                0x00002a38      0x112 ../src/fat_io_lib/fat_table.o
 .debug_pubnames
                0x00002b4a       0x62 ../src/fat_io_lib/fat_write.o
 .debug_pubnames
                0x00002bac       0x52 ../../common/fix.o
 .debug_pubnames
                0x00002bfe       0xb8 ../../common/libfixmath/fix16.o
 .debug_pubnames
                0x00002cb6       0xc0 ../apps/bees/src/key_handler.o
 .debug_pubnames
                0x00002d76      0x10e ../apps/bees/src/menu.o
 .debug_pubnames
                0x00002e84      0x2e1 ../apps/bees/src/net.o
 .debug_pubnames
                0x00003165       0x71 ../apps/bees/src/op.o
 .debug_pubnames
                0x000031d6       0x62 ../apps/bees/src/param.o
 .debug_pubnames
                0x00003238       0x42 ../apps/bees/src/play.o
 .debug_pubnames
                0x0000327a       0x9c ../apps/bees/src/preset.o
 .debug_pubnames
                0x00003316       0x98 ../apps/bees/src/redraw.o
 .debug_pubnames
                0x000033ae       0x96 ../apps/bees/src/scene.o
 .debug_pubnames
                0x00003444       0x22 ../apps/bees/src/ops/op_add.o
 .debug_pubnames
                0x00003466       0x22 ../apps/bees/src/ops/op_enc.o
 .debug_pubnames
                0x00003488       0x23 ../apps/bees/src/ops/op_gate.o
 .debug_pubnames
                0x000034ab       0x22 ../apps/bees/src/ops/op_mul.o
 .debug_pubnames
                0x000034cd       0x21 ../apps/bees/src/ops/op_sw.o

.debug_info     0x00000000    0x370e4
 *(.debug_info .gnu.linkonce.wi.*)
 .debug_info    0x00000000      0xb89 avr32/drivers/ebi/smc/smc.o
 .debug_info    0x00000b89     0x36ee avr32/drivers/flashc/flashc.o
 .debug_info    0x00004277      0xb8f avr32/drivers/gpio/gpio.o
 .debug_info    0x00004e06      0x5b1 avr32/drivers/intc/intc.o
 .debug_info    0x000053b7      0xf67 avr32/drivers/pdca/pdca.o
 .debug_info    0x0000631e     0x1080 avr32/drivers/spi/spi.o
 .debug_info    0x0000739e     0x117e avr32/drivers/tc/tc.o
 .debug_info    0x0000851c     0x2412 avr32/drivers/usart/usart.o
 .debug_info    0x0000a92e     0x1992 avr32/utils/debug/print_funcs.o
 .debug_info    0x0000c2c0     0x18b7 avr32/components/memory/sd_mmc/sd_mmc_spi/sd_mmc_spi.o
 .debug_info    0x0000db77     0xd94e avr32/drivers/usbb/usbb_host.o
 .debug_info    0x0001b4c5     0x1cd7 common/services/clock/uc3a0_a1/sysclk.o
 .debug_info    0x0001d19c     0x1027 common/services/usb/uhc/uhc.o
 .debug_info    0x0001e1c3      0xea7 ../src/adc.o
 .debug_info    0x0001f06a      0x414 ../src/app_timers.o
 .debug_info    0x0001f47e     0x10f6 ../src/bfin.o
 .debug_info    0x00020574      0x1da ../src/events.o
 .debug_info    0x0002074e      0x2de ../src/encoders.o
 .debug_info    0x00020a2c      0x7e8 ../src/files.o
 .debug_info    0x00021214     0x1087 ../src/filesystem.o
 .debug_info    0x0002229b      0x9fb ../src/flash.o
 .debug_info    0x00022c96      0x14a ../src/font.o
 .debug_info    0x00022de0     0x2b42 ../src/init.o
 .debug_info    0x00025922      0xbd8 ../src/interrupts.o
 .debug_info    0x000264fa      0x276 ../src/memory.o
 .debug_info    0x00026770     0x196f ../src/screen.o
 .debug_info    0x000280df      0x11c ../src/simple_string.o
 .debug_info    0x000281fb      0x243 ../src/switches.o
 .debug_info    0x0002843e      0x2d5 ../src/timers.o
 .debug_info    0x00028713      0xd7b ../src/main.o
 .debug_info    0x0002948e      0x3cf ../src/usb.o
 .debug_info    0x0002985d      0x158 ../src/usb/mouse/hid_mouse.o
 .debug_info    0x000299b5      0x67f ../src/usb/mouse/uhi_hid_mouse.o
 .debug_info    0x0002a034      0x678 ../src/usb/gamepad/uhi_hid_gamepad.o
 .debug_info    0x0002a6ac      0xcd9 ../src/fat_io_lib/fat_access.o
 .debug_info    0x0002b385      0x51c ../src/fat_io_lib/fat_cache.o
 .debug_info    0x0002b8a1     0x2431 ../src/fat_io_lib/fat_filelib.o
 .debug_info    0x0002dcd2      0x6c9 ../src/fat_io_lib/fat_misc.o
 .debug_info    0x0002e39b      0x6a3 ../src/fat_io_lib/fat_string.o
 .debug_info    0x0002ea3e      0xa78 ../src/fat_io_lib/fat_table.o
 .debug_info    0x0002f4b6      0x760 ../src/fat_io_lib/fat_write.o
 .debug_info    0x0002fc16      0x49f ../../common/fix.o
 .debug_info    0x000300b5      0x785 ../../common/libfixmath/fix16.o
 .debug_info    0x0003083a      0x6f4 ../apps/bees/src/key_handler.o
 .debug_info    0x00030f2e      0x64b ../apps/bees/src/menu.o
 .debug_info    0x00031579     0x100d ../apps/bees/src/net.o
 .debug_info    0x00032586      0x540 ../apps/bees/src/op.o
 .debug_info    0x00032ac6      0x748 ../apps/bees/src/param.o
 .debug_info    0x0003320e      0x2a9 ../apps/bees/src/play.o
 .debug_info    0x000334b7      0x49e ../apps/bees/src/preset.o
 .debug_info    0x00033955     0x1057 ../apps/bees/src/redraw.o
 .debug_info    0x000349ac      0x960 ../apps/bees/src/scene.o
 .debug_info    0x0003530c      0x5c1 ../apps/bees/src/ops/op_add.o
 .debug_info    0x000358cd      0x6ed ../apps/bees/src/ops/op_enc.o
 .debug_info    0x00035fba      0x5b7 ../apps/bees/src/ops/op_gate.o
 .debug_info    0x00036571      0x5c1 ../apps/bees/src/ops/op_mul.o
 .debug_info    0x00036b32      0x5b2 ../apps/bees/src/ops/op_sw.o

.debug_abbrev   0x00000000     0x7b8b
 *(.debug_abbrev)
 .debug_abbrev  0x00000000      0x1dd avr32/drivers/ebi/smc/smc.o
 .debug_abbrev  0x000001dd      0x45b avr32/drivers/flashc/flashc.o
 .debug_abbrev  0x00000638      0x2f0 avr32/drivers/gpio/gpio.o
 .debug_abbrev  0x00000928      0x1f2 avr32/drivers/intc/intc.o
 .debug_abbrev  0x00000b1a      0x3a7 avr32/drivers/pdca/pdca.o
 .debug_abbrev  0x00000ec1      0x27d avr32/drivers/spi/spi.o
 .debug_abbrev  0x0000113e      0x25c avr32/drivers/tc/tc.o
 .debug_abbrev  0x0000139a      0x2f4 avr32/drivers/usart/usart.o
 .debug_abbrev  0x0000168e      0x22c avr32/utils/debug/print_funcs.o
 .debug_abbrev  0x000018ba      0x388 avr32/components/memory/sd_mmc/sd_mmc_spi/sd_mmc_spi.o
 .debug_abbrev  0x00001c42      0x44b avr32/drivers/usbb/usbb_host.o
 .debug_abbrev  0x0000208d      0x30c common/services/clock/uc3a0_a1/sysclk.o
 .debug_abbrev  0x00002399      0x335 common/services/usb/uhc/uhc.o
 .debug_abbrev  0x000026ce      0x296 ../src/adc.o
 .debug_abbrev  0x00002964      0x14c ../src/app_timers.o
 .debug_abbrev  0x00002ab0      0x319 ../src/bfin.o
 .debug_abbrev  0x00002dc9      0x10b ../src/events.o
 .debug_abbrev  0x00002ed4      0x135 ../src/encoders.o
 .debug_abbrev  0x00003009      0x365 ../src/files.o
 .debug_abbrev  0x0000336e      0x1d4 ../src/filesystem.o
 .debug_abbrev  0x00003542      0x1d2 ../src/flash.o
 .debug_abbrev  0x00003714       0x97 ../src/font.o
 .debug_abbrev  0x000037ab      0x20e ../src/init.o
 .debug_abbrev  0x000039b9      0x198 ../src/interrupts.o
 .debug_abbrev  0x00003b51      0x125 ../src/memory.o
 .debug_abbrev  0x00003c76      0x3c4 ../src/screen.o
 .debug_abbrev  0x0000403a       0x94 ../src/simple_string.o
 .debug_abbrev  0x000040ce       0xe0 ../src/switches.o
 .debug_abbrev  0x000041ae      0x1dd ../src/timers.o
 .debug_abbrev  0x0000438b      0x260 ../src/main.o
 .debug_abbrev  0x000045eb      0x107 ../src/usb.o
 .debug_abbrev  0x000046f2       0x8e ../src/usb/mouse/hid_mouse.o
 .debug_abbrev  0x00004780      0x197 ../src/usb/mouse/uhi_hid_mouse.o
 .debug_abbrev  0x00004917      0x1a6 ../src/usb/gamepad/uhi_hid_gamepad.o
 .debug_abbrev  0x00004abd      0x2b3 ../src/fat_io_lib/fat_access.o
 .debug_abbrev  0x00004d70      0x123 ../src/fat_io_lib/fat_cache.o
 .debug_abbrev  0x00004e93      0x3d9 ../src/fat_io_lib/fat_filelib.o
 .debug_abbrev  0x0000526c      0x270 ../src/fat_io_lib/fat_misc.o
 .debug_abbrev  0x000054dc      0x1fa ../src/fat_io_lib/fat_string.o
 .debug_abbrev  0x000056d6      0x2ce ../src/fat_io_lib/fat_table.o
 .debug_abbrev  0x000059a4      0x273 ../src/fat_io_lib/fat_write.o
 .debug_abbrev  0x00005c17      0x19a ../../common/fix.o
 .debug_abbrev  0x00005db1      0x22d ../../common/libfixmath/fix16.o
 .debug_abbrev  0x00005fde      0x1c6 ../apps/bees/src/key_handler.o
 .debug_abbrev  0x000061a4      0x1d4 ../apps/bees/src/menu.o
 .debug_abbrev  0x00006378      0x3c8 ../apps/bees/src/net.o
 .debug_abbrev  0x00006740      0x1bb ../apps/bees/src/op.o
 .debug_abbrev  0x000068fb      0x183 ../apps/bees/src/param.o
 .debug_abbrev  0x00006a7e      0x13e ../apps/bees/src/play.o
 .debug_abbrev  0x00006bbc      0x173 ../apps/bees/src/preset.o
 .debug_abbrev  0x00006d2f      0x2ce ../apps/bees/src/redraw.o
 .debug_abbrev  0x00006ffd      0x1f0 ../apps/bees/src/scene.o
 .debug_abbrev  0x000071ed      0x1d7 ../apps/bees/src/ops/op_add.o
 .debug_abbrev  0x000073c4      0x204 ../apps/bees/src/ops/op_enc.o
 .debug_abbrev  0x000075c8      0x204 ../apps/bees/src/ops/op_gate.o
 .debug_abbrev  0x000077cc      0x1d7 ../apps/bees/src/ops/op_mul.o
 .debug_abbrev  0x000079a3      0x1e8 ../apps/bees/src/ops/op_sw.o

.debug_line     0x00000000    0x2cedb
 *(.debug_line)
 .debug_line    0x00000000      0x6c4 avr32/drivers/ebi/smc/smc.o
 .debug_line    0x000006c4     0x4433 avr32/drivers/flashc/flashc.o
 .debug_line    0x00004af7      0xc84 avr32/drivers/gpio/gpio.o
 .debug_line    0x0000577b      0x656 avr32/drivers/intc/intc.o
 .debug_line    0x00005dd1      0xb9c avr32/drivers/pdca/pdca.o
 .debug_line    0x0000696d      0x9ae avr32/drivers/spi/spi.o
 .debug_line    0x0000731b      0x8e3 avr32/drivers/tc/tc.o
 .debug_line    0x00007bfe     0x1365 avr32/drivers/usart/usart.o
 .debug_line    0x00008f63      0x8f9 avr32/utils/debug/print_funcs.o
 .debug_line    0x0000985c     0x2648 avr32/components/memory/sd_mmc/sd_mmc_spi/sd_mmc_spi.o
 .debug_line    0x0000bea4     0x1c59 avr32/drivers/usbb/usbb_host.o
 .debug_line    0x0000dafd      0xcc7 common/services/clock/uc3a0_a1/sysclk.o
 .debug_line    0x0000e7c4     0x12b3 common/services/usb/uhc/uhc.o
 .debug_line    0x0000fa77      0x99d ../src/adc.o
 .debug_line    0x00010414      0x7e3 ../src/app_timers.o
 .debug_line    0x00010bf7     0x11e7 ../src/bfin.o
 .debug_line    0x00011dde      0x740 ../src/events.o
 .debug_line    0x0001251e      0x793 ../src/encoders.o
 .debug_line    0x00012cb1      0xc87 ../src/files.o
 .debug_line    0x00013938      0x929 ../src/filesystem.o
 .debug_line    0x00014261      0x8be ../src/flash.o
 .debug_line    0x00014b1f      0x5bf ../src/font.o
 .debug_line    0x000150de      0xd51 ../src/init.o
 .debug_line    0x00015e2f      0xb5b ../src/interrupts.o
 .debug_line    0x0001698a      0x7ea ../src/memory.o
 .debug_line    0x00017174     0x1689 ../src/screen.o
 .debug_line    0x000187fd      0x63f ../src/simple_string.o
 .debug_line    0x00018e3c      0x6e8 ../src/switches.o
 .debug_line    0x00019524      0x922 ../src/timers.o
 .debug_line    0x00019e46      0xe80 ../src/main.o
 .debug_line    0x0001acc6      0x82c ../src/usb.o
 .debug_line    0x0001b4f2      0x823 ../src/usb/mouse/hid_mouse.o
 .debug_line    0x0001bd15      0x8e7 ../src/usb/mouse/uhi_hid_mouse.o
 .debug_line    0x0001c5fc      0x945 ../src/usb/gamepad/uhi_hid_gamepad.o
 .debug_line    0x0001cf41     0x13b2 ../src/fat_io_lib/fat_access.o
 .debug_line    0x0001e2f3      0x31a ../src/fat_io_lib/fat_cache.o
 .debug_line    0x0001e60d     0x220f ../src/fat_io_lib/fat_filelib.o
 .debug_line    0x0002081c      0x9f8 ../src/fat_io_lib/fat_misc.o
 .debug_line    0x00021214      0x73e ../src/fat_io_lib/fat_string.o
 .debug_line    0x00021952      0xc69 ../src/fat_io_lib/fat_table.o
 .debug_line    0x000225bb      0x949 ../src/fat_io_lib/fat_write.o
 .debug_line    0x00022f04      0xaa8 ../../common/fix.o
 .debug_line    0x000239ac      0x43a ../../common/libfixmath/fix16.o
 .debug_line    0x00023de6      0xdff ../apps/bees/src/key_handler.o
 .debug_line    0x00024be5      0x9f2 ../apps/bees/src/menu.o
 .debug_line    0x000255d7     0x11f3 ../apps/bees/src/net.o
 .debug_line    0x000267ca      0x91e ../apps/bees/src/op.o
 .debug_line    0x000270e8      0x733 ../apps/bees/src/param.o
 .debug_line    0x0002781b      0x7a0 ../apps/bees/src/play.o
 .debug_line    0x00027fbb      0xa2a ../apps/bees/src/preset.o
 .debug_line    0x000289e5     0x132d ../apps/bees/src/redraw.o
 .debug_line    0x00029d12      0x842 ../apps/bees/src/scene.o
 .debug_line    0x0002a554      0x821 ../apps/bees/src/ops/op_add.o
 .debug_line    0x0002ad75      0x930 ../apps/bees/src/ops/op_enc.o
 .debug_line    0x0002b6a5      0x7db ../apps/bees/src/ops/op_gate.o
 .debug_line    0x0002be80      0x81c ../apps/bees/src/ops/op_mul.o
 .debug_line    0x0002c69c      0x83f ../apps/bees/src/ops/op_sw.o

.debug_frame    0x00000000     0x434c
 *(.debug_frame)
 .debug_frame   0x00000000       0x3c avr32/drivers/ebi/smc/smc.o
 .debug_frame   0x0000003c      0x78c avr32/drivers/flashc/flashc.o
 .debug_frame   0x000007c8      0x1f4 avr32/drivers/gpio/gpio.o
 .debug_frame   0x000009bc       0x60 avr32/drivers/intc/intc.o
 .debug_frame   0x00000a1c      0x13c avr32/drivers/pdca/pdca.o
 .debug_frame   0x00000b58      0x164 avr32/drivers/spi/spi.o
 .debug_frame   0x00000cbc      0x144 avr32/drivers/tc/tc.o
 .debug_frame   0x00000e00      0x228 avr32/drivers/usart/usart.o
 .debug_frame   0x00001028      0x194 avr32/utils/debug/print_funcs.o
 .debug_frame   0x000011bc      0x3c0 avr32/components/memory/sd_mmc/sd_mmc_spi/sd_mmc_spi.o
 .debug_frame   0x0000157c      0x278 avr32/drivers/usbb/usbb_host.o
 .debug_frame   0x000017f4       0xbc common/services/clock/uc3a0_a1/sysclk.o
 .debug_frame   0x000018b0      0x3cc common/services/usb/uhc/uhc.o
 .debug_frame   0x00001c7c       0x4c ../src/adc.o
 .debug_frame   0x00001cc8       0x84 ../src/app_timers.o
 .debug_frame   0x00001d4c       0xe8 ../src/bfin.o
 .debug_frame   0x00001e34       0x48 ../src/events.o
 .debug_frame   0x00001e7c       0x68 ../src/encoders.o
 .debug_frame   0x00001ee4      0x19c ../src/files.o
 .debug_frame   0x00002080       0x84 ../src/filesystem.o
 .debug_frame   0x00002104       0x90 ../src/flash.o
 .debug_frame   0x00002194       0xfc ../src/init.o
 .debug_frame   0x00002290       0xbc ../src/interrupts.o
 .debug_frame   0x0000234c       0x54 ../src/memory.o
 .debug_frame   0x000023a0      0x248 ../src/screen.o
 .debug_frame   0x000025e8       0x20 ../src/simple_string.o
 .debug_frame   0x00002608       0x2c ../src/switches.o
 .debug_frame   0x00002634       0x68 ../src/timers.o
 .debug_frame   0x0000269c       0x38 ../src/main.o
 .debug_frame   0x000026d4       0x80 ../src/usb.o
 .debug_frame   0x00002754       0x84 ../src/usb/mouse/hid_mouse.o
 .debug_frame   0x000027d8       0xa4 ../src/usb/mouse/uhi_hid_mouse.o
 .debug_frame   0x0000287c       0x9c ../src/usb/gamepad/uhi_hid_gamepad.o
 .debug_frame   0x00002918      0x238 ../src/fat_io_lib/fat_access.o
 .debug_frame   0x00002b50       0x40 ../src/fat_io_lib/fat_cache.o
 .debug_frame   0x00002b90      0x4a0 ../src/fat_io_lib/fat_filelib.o
 .debug_frame   0x00003030      0x168 ../src/fat_io_lib/fat_misc.o
 .debug_frame   0x00003198      0x11c ../src/fat_io_lib/fat_string.o
 .debug_frame   0x000032b4      0x194 ../src/fat_io_lib/fat_table.o
 .debug_frame   0x00003448       0x98 ../src/fat_io_lib/fat_write.o
 .debug_frame   0x000034e0       0xb0 ../../common/fix.o
 .debug_frame   0x00003590      0x12c ../../common/libfixmath/fix16.o
 .debug_frame   0x000036bc      0x108 ../apps/bees/src/key_handler.o
 .debug_frame   0x000037c4       0xf0 ../apps/bees/src/menu.o
 .debug_frame   0x000038b4      0x35c ../apps/bees/src/net.o
 .debug_frame   0x00003c10       0x78 ../apps/bees/src/op.o
 .debug_frame   0x00003c88       0x5c ../apps/bees/src/param.o
 .debug_frame   0x00003ce4       0x6c ../apps/bees/src/play.o
 .debug_frame   0x00003d50       0xe0 ../apps/bees/src/preset.o
 .debug_frame   0x00003e30      0x1b4 ../apps/bees/src/redraw.o
 .debug_frame   0x00003fe4       0x98 ../apps/bees/src/scene.o
 .debug_frame   0x0000407c       0x84 ../apps/bees/src/ops/op_add.o
 .debug_frame   0x00004100       0xd0 ../apps/bees/src/ops/op_enc.o
 .debug_frame   0x000041d0       0x7c ../apps/bees/src/ops/op_gate.o
 .debug_frame   0x0000424c       0x84 ../apps/bees/src/ops/op_mul.o
 .debug_frame   0x000042d0       0x7c ../apps/bees/src/ops/op_sw.o

.debug_str      0x00000000     0xa878
 *(.debug_str)
 .debug_str     0x00000000      0x425 avr32/drivers/ebi/smc/smc.o
                                0x487 (size before relaxing)
 .debug_str     0x00000425      0xa8b avr32/drivers/flashc/flashc.o
                                0xc25 (size before relaxing)
 .debug_str     0x00000eb0      0x40d avr32/drivers/gpio/gpio.o
                                0x513 (size before relaxing)
 .debug_str     0x000012bd      0x382 avr32/drivers/intc/intc.o
                                0x467 (size before relaxing)
 .debug_str     0x0000163f      0x366 avr32/drivers/pdca/pdca.o
                                0x476 (size before relaxing)
 .debug_str     0x000019a5      0x3df avr32/drivers/spi/spi.o
                                0x54c (size before relaxing)
 .debug_str     0x00001d84      0x369 avr32/drivers/tc/tc.o
                                0x4b4 (size before relaxing)
 .debug_str     0x000020ed      0x755 avr32/drivers/usart/usart.o
                                0x8e6 (size before relaxing)
 .debug_str     0x00002842      0x125 avr32/utils/debug/print_funcs.o
                                0x625 (size before relaxing)
 .debug_str     0x00002967      0x41a avr32/components/memory/sd_mmc/sd_mmc_spi/sd_mmc_spi.o
                                0x7c2 (size before relaxing)
 .debug_str     0x00002d81     0x39b4 avr32/drivers/usbb/usbb_host.o
                               0x3e5c (size before relaxing)
 .debug_str     0x00006735      0x35e common/services/clock/uc3a0_a1/sysclk.o
                                0x7fa (size before relaxing)
 .debug_str     0x00006a93      0x924 common/services/usb/uhc/uhc.o
                                0xbd1 (size before relaxing)
 .debug_str     0x000073b7      0x29f ../src/adc.o
                                0x5ce (size before relaxing)
 .debug_str     0x00007656      0x11c ../src/app_timers.o
                                0x3ee (size before relaxing)
 .debug_str     0x00007772      0x204 ../src/bfin.o
                                0x5ce (size before relaxing)
 .debug_str     0x00007976       0x68 ../src/events.o
                                0x164 (size before relaxing)
 .debug_str     0x000079de       0x53 ../src/encoders.o
                                0x2e6 (size before relaxing)
 .debug_str     0x00007a31      0x1f3 ../src/files.o
                                0x3c2 (size before relaxing)
 .debug_str     0x00007c24       0x80 ../src/filesystem.o
                                0x42a (size before relaxing)
 .debug_str     0x00007ca4      0x270 ../src/flash.o
                                0x542 (size before relaxing)
 .debug_str     0x00007f14       0x44 ../src/font.o
                                0x12d (size before relaxing)
 .debug_str     0x00007f58      0x11f ../src/init.o
                                0xa70 (size before relaxing)
 .debug_str     0x00008077       0xaa ../src/interrupts.o
                                0x450 (size before relaxing)
 .debug_str     0x00008121       0x7a ../src/memory.o
                                0x1f8 (size before relaxing)
 .debug_str     0x0000819b      0x141 ../src/screen.o
                                0x4d9 (size before relaxing)
 .debug_str     0x000082dc       0x30 ../src/simple_string.o
                                0x107 (size before relaxing)
 .debug_str     0x0000830c       0x4d ../src/switches.o
                                0x2e6 (size before relaxing)
 .debug_str     0x00008359       0x7e ../src/timers.o
                                0x197 (size before relaxing)
 .debug_str     0x000083d7      0x126 ../src/main.o
                                0x6a9 (size before relaxing)
 .debug_str     0x000084fd       0x9c ../src/usb.o
                                0x3c4 (size before relaxing)
 .debug_str     0x00008599       0x87 ../src/usb/mouse/hid_mouse.o
                                0x156 (size before relaxing)
 .debug_str     0x00008620      0x1cc ../src/usb/mouse/uhi_hid_mouse.o
                                0x6d8 (size before relaxing)
 .debug_str     0x000087ec       0xec ../src/usb/gamepad/uhi_hid_gamepad.o
                                0x6da (size before relaxing)
 .debug_str     0x000088d8      0x49b ../src/fat_io_lib/fat_access.o
                                0x613 (size before relaxing)
 .debug_str     0x00008d73      0x17d ../src/fat_io_lib/fat_cache.o
                                0x41b (size before relaxing)
 .debug_str     0x00008ef0      0x34f ../src/fat_io_lib/fat_filelib.o
                                0x81d (size before relaxing)
 .debug_str     0x0000923f      0x1f9 ../src/fat_io_lib/fat_misc.o
                                0x397 (size before relaxing)
 .debug_str     0x00009438      0x1e4 ../src/fat_io_lib/fat_string.o
                                0x2c8 (size before relaxing)
 .debug_str     0x0000961c      0x18b ../src/fat_io_lib/fat_table.o
                                0x45b (size before relaxing)
 .debug_str     0x000097a7      0x13a ../src/fat_io_lib/fat_write.o
                                0x497 (size before relaxing)
 .debug_str     0x000098e1       0x6b ../../common/fix.o
                                0x1cb (size before relaxing)
 .debug_str     0x0000994c      0x126 ../../common/libfixmath/fix16.o
                                0x2b9 (size before relaxing)
 .debug_str     0x00009a72      0x251 ../apps/bees/src/key_handler.o
                                0x521 (size before relaxing)
 .debug_str     0x00009cc3       0xc5 ../apps/bees/src/menu.o
                                0x492 (size before relaxing)
 .debug_str     0x00009d88      0x2f7 ../apps/bees/src/net.o
                                0x6da (size before relaxing)
 .debug_str     0x0000a07f       0x7e ../apps/bees/src/op.o
                                0x326 (size before relaxing)
 .debug_str     0x0000a0fd       0x69 ../apps/bees/src/param.o
                                0x3f4 (size before relaxing)
 .debug_str     0x0000a166       0x79 ../apps/bees/src/play.o
                                0x22e (size before relaxing)
 .debug_str     0x0000a1df       0x93 ../apps/bees/src/preset.o
                                0x2dc (size before relaxing)
 .debug_str     0x0000a272      0x14d ../apps/bees/src/redraw.o
                                0x516 (size before relaxing)
 .debug_str     0x0000a3bf       0x87 ../apps/bees/src/scene.o
                                0x507 (size before relaxing)
 .debug_str     0x0000a446       0xd0 ../apps/bees/src/ops/op_add.o
                                0x33f (size before relaxing)
 .debug_str     0x0000a516       0xfa ../apps/bees/src/ops/op_enc.o
                                0x378 (size before relaxing)
 .debug_str     0x0000a610       0xdd ../apps/bees/src/ops/op_gate.o
                                0x357 (size before relaxing)
 .debug_str     0x0000a6ed       0xca ../apps/bees/src/ops/op_mul.o
                                0x33f (size before relaxing)
 .debug_str     0x0000a7b7       0xc1 ../apps/bees/src/ops/op_sw.o
                                0x336 (size before relaxing)

.debug_loc      0x00000000     0xf43a
 *(.debug_loc)
 .debug_loc     0x00000000       0x7e avr32/drivers/ebi/smc/smc.o
 .debug_loc     0x0000007e     0x1e5b avr32/drivers/flashc/flashc.o
 .debug_loc     0x00001ed9      0x3e1 avr32/drivers/gpio/gpio.o
 .debug_loc     0x000022ba       0x89 avr32/drivers/intc/intc.o
 .debug_loc     0x00002343      0x462 avr32/drivers/pdca/pdca.o
 .debug_loc     0x000027a5      0x377 avr32/drivers/spi/spi.o
 .debug_loc     0x00002b1c      0x466 avr32/drivers/tc/tc.o
 .debug_loc     0x00002f82      0x9ef avr32/drivers/usart/usart.o
 .debug_loc     0x00003971      0x46e avr32/utils/debug/print_funcs.o
 .debug_loc     0x00003ddf      0x93a avr32/components/memory/sd_mmc/sd_mmc_spi/sd_mmc_spi.o
 .debug_loc     0x00004719      0xabb avr32/drivers/usbb/usbb_host.o
 .debug_loc     0x000051d4      0x1e6 common/services/clock/uc3a0_a1/sysclk.o
 .debug_loc     0x000053ba      0x984 common/services/usb/uhc/uhc.o
 .debug_loc     0x00005d3e       0xa0 ../src/adc.o
 .debug_loc     0x00005dde       0xcb ../src/app_timers.o
 .debug_loc     0x00005ea9      0x285 ../src/bfin.o
 .debug_loc     0x0000612e       0xaa ../src/events.o
 .debug_loc     0x000061d8       0x64 ../src/encoders.o
 .debug_loc     0x0000623c      0x3ef ../src/files.o
 .debug_loc     0x0000662b      0x163 ../src/filesystem.o
 .debug_loc     0x0000678e       0xd4 ../src/flash.o
 .debug_loc     0x00006862      0x153 ../src/init.o
 .debug_loc     0x000069b5       0xd9 ../src/interrupts.o
 .debug_loc     0x00006a8e       0xab ../src/memory.o
 .debug_loc     0x00006b39      0x8ea ../src/screen.o
 .debug_loc     0x00007423       0x78 ../src/simple_string.o
 .debug_loc     0x0000749b       0x3d ../src/switches.o
 .debug_loc     0x000074d8      0x20d ../src/timers.o
 .debug_loc     0x000076e5       0x1f ../src/main.o
 .debug_loc     0x00007704      0x130 ../src/usb/mouse/hid_mouse.o
 .debug_loc     0x00007834      0x253 ../src/usb/mouse/uhi_hid_mouse.o
 .debug_loc     0x00007a87      0x209 ../src/usb/gamepad/uhi_hid_gamepad.o
 .debug_loc     0x00007c90      0xd4d ../src/fat_io_lib/fat_access.o
 .debug_loc     0x000089dd       0x39 ../src/fat_io_lib/fat_cache.o
 .debug_loc     0x00008a16     0x196e ../src/fat_io_lib/fat_filelib.o
 .debug_loc     0x0000a384      0x4bc ../src/fat_io_lib/fat_misc.o
 .debug_loc     0x0000a840      0xa85 ../src/fat_io_lib/fat_string.o
 .debug_loc     0x0000b2c5      0xb64 ../src/fat_io_lib/fat_table.o
 .debug_loc     0x0000be29      0x697 ../src/fat_io_lib/fat_write.o
 .debug_loc     0x0000c4c0      0x37a ../../common/fix.o
 .debug_loc     0x0000c83a      0x520 ../../common/libfixmath/fix16.o
 .debug_loc     0x0000cd5a      0x6f2 ../apps/bees/src/key_handler.o
 .debug_loc     0x0000d44c      0x2a9 ../apps/bees/src/menu.o
 .debug_loc     0x0000d6f5      0x91e ../apps/bees/src/net.o
 .debug_loc     0x0000e013      0x188 ../apps/bees/src/op.o
 .debug_loc     0x0000e19b       0x89 ../apps/bees/src/param.o
 .debug_loc     0x0000e224       0xae ../apps/bees/src/play.o
 .debug_loc     0x0000e2d2      0x162 ../apps/bees/src/preset.o
 .debug_loc     0x0000e434      0x780 ../apps/bees/src/redraw.o
 .debug_loc     0x0000ebb4       0x7c ../apps/bees/src/scene.o
 .debug_loc     0x0000ec30      0x139 ../apps/bees/src/ops/op_add.o
 .debug_loc     0x0000ed69      0x250 ../apps/bees/src/ops/op_enc.o
 .debug_loc     0x0000efb9      0x18f ../apps/bees/src/ops/op_gate.o
 .debug_loc     0x0000f148      0x12c ../apps/bees/src/ops/op_mul.o
 .debug_loc     0x0000f274      0x1c6 ../apps/bees/src/ops/op_sw.o

.debug_macinfo  0x00000000  0x2f04088
 *(.debug_macinfo)
 .debug_macinfo
                0x00000000    0xebf8d avr32/drivers/ebi/smc/smc.o
 .debug_macinfo
                0x000ebf8d    0xe968c avr32/drivers/flashc/flashc.o
 .debug_macinfo
                0x001d5619    0xe976a avr32/drivers/gpio/gpio.o
 .debug_macinfo
                0x002bed83    0xe9817 avr32/drivers/intc/intc.o
 .debug_macinfo
                0x003a859a    0xe96ac avr32/drivers/pdca/pdca.o
 .debug_macinfo
                0x00491c46    0xe95b8 avr32/drivers/spi/spi.o
 .debug_macinfo
                0x0057b1fe    0xe9e4d avr32/drivers/tc/tc.o
 .debug_macinfo
                0x0066504b    0xe997b avr32/drivers/usart/usart.o
 .debug_macinfo
                0x0074e9c6    0xeb2db avr32/utils/debug/print_funcs.o
 .debug_macinfo
                0x00839ca1    0xebc3d avr32/components/memory/sd_mmc/sd_mmc_spi/sd_mmc_spi.o
 .debug_macinfo
                0x009258de    0xf3520 avr32/drivers/usbb/usbb_host.o
 .debug_macinfo
                0x00a18dfe    0xebe74 common/services/clock/uc3a0_a1/sysclk.o
 .debug_macinfo
                0x00b04c72    0xed010 common/services/usb/uhc/uhc.o
 .debug_macinfo
                0x00bf1c82    0xec3f2 ../src/adc.o
 .debug_macinfo
                0x00cde074    0xebb8a ../src/app_timers.o
 .debug_macinfo
                0x00dc9bfe    0xee59d ../src/bfin.o
 .debug_macinfo
                0x00eb819b    0xead13 ../src/events.o
 .debug_macinfo
                0x00fa2eae    0xeaf2c ../src/encoders.o
 .debug_macinfo
                0x0108ddda    0xecd4c ../src/files.o
 .debug_macinfo
                0x0117ab26    0xed4b5 ../src/filesystem.o
 .debug_macinfo
                0x01267fdb    0xeb900 ../src/flash.o
 .debug_macinfo
                0x013538db    0xe95c4 ../src/font.o
 .debug_macinfo
                0x0143ce9f    0xf1cac ../src/init.o
 .debug_macinfo
                0x0152eb4b    0xee3fb ../src/interrupts.o
 .debug_macinfo
                0x0161cf46    0xec22e ../src/memory.o
 .debug_macinfo
                0x01709174    0xeca68 ../src/screen.o
 .debug_macinfo
                0x017f5bdc    0xe959a ../src/simple_string.o
 .debug_macinfo
                0x018df176    0xeaf26 ../src/switches.o
 .debug_macinfo
                0x019ca09c    0xea388 ../src/timers.o
 .debug_macinfo
                0x01ab4424    0xf02a9 ../src/main.o
 .debug_macinfo
                0x01ba46cd    0xed14f ../src/usb.o
 .debug_macinfo
                0x01c9181c    0xecf3b ../src/usb/mouse/hid_mouse.o
 .debug_macinfo
                0x01d7e757    0xeb996 ../src/usb/mouse/uhi_hid_mouse.o
 .debug_macinfo
                0x01e6a0ed    0xed0ce ../src/usb/gamepad/uhi_hid_gamepad.o
 .debug_macinfo
                0x01f571bb    0xec461 ../src/fat_io_lib/fat_access.o
 .debug_macinfo
                0x0204361c     0x4192 ../src/fat_io_lib/fat_cache.o
 .debug_macinfo
                0x020477ae    0xec6ab ../src/fat_io_lib/fat_filelib.o
 .debug_macinfo
                0x02133e59     0x4234 ../src/fat_io_lib/fat_misc.o
 .debug_macinfo
                0x0213808d     0x2926 ../src/fat_io_lib/fat_string.o
 .debug_macinfo
                0x0213a9b3     0x43ef ../src/fat_io_lib/fat_table.o
 .debug_macinfo
                0x0213eda2     0x42a8 ../src/fat_io_lib/fat_write.o
 .debug_macinfo
                0x0214304a    0xe983b ../../common/fix.o
 .debug_macinfo
                0x0222c885     0x1476 ../../common/libfixmath/fix16.o
 .debug_macinfo
                0x0222dcfb    0xeb7ec ../apps/bees/src/key_handler.o
 .debug_macinfo
                0x023194e7    0xeb7da ../apps/bees/src/menu.o
 .debug_macinfo
                0x02404cc1    0xec3e5 ../apps/bees/src/net.o
 .debug_macinfo
                0x024f10a6    0xeb7f3 ../apps/bees/src/op.o
 .debug_macinfo
                0x025dc899    0xe9e60 ../apps/bees/src/param.o
 .debug_macinfo
                0x026c66f9    0xea04e ../apps/bees/src/play.o
 .debug_macinfo
                0x027b0747    0xeb552 ../apps/bees/src/preset.o
 .debug_macinfo
                0x0289bc99    0xeb83e ../apps/bees/src/redraw.o
 .debug_macinfo
                0x029874d7    0xeb64c ../apps/bees/src/scene.o
 .debug_macinfo
                0x02a72b23    0xe9de1 ../apps/bees/src/ops/op_add.o
 .debug_macinfo
                0x02b5c904    0xe9de1 ../apps/bees/src/ops/op_enc.o
 .debug_macinfo
                0x02c466e5    0xe9de2 ../apps/bees/src/ops/op_gate.o
 .debug_macinfo
                0x02d304c7    0xe9de1 ../apps/bees/src/ops/op_mul.o
 .debug_macinfo
                0x02e1a2a8    0xe9de0 ../apps/bees/src/ops/op_sw.o

.debug_weaknames
 *(.debug_weaknames)

.debug_funcnames
 *(.debug_funcnames)

.debug_typenames
 *(.debug_typenames)

.debug_varnames
 *(.debug_varnames)

.stack          0x0000f000     0x1000
                0x0000f000                _stack = .
 *(.stack)
                0x00001000                . = __stack_size__
 *fill*         0x0000f000     0x1000 00
                0x00010000                _estack = .

.flash_nvram    0x80040000    0x22648 load address 0x800239f4
 *(.flash_nvram)
 .flash_nvram   0x80040000    0x22648 ../src/flash.o
                0x80062800                . = ALIGN (0x200)

.userpage
 *(.userpage .userpage.*)

/DISCARD/
 *(.note.GNU-stack)
LOAD avr32/drivers/ebi/smc/smc.o
LOAD avr32/drivers/flashc/flashc.o
LOAD avr32/drivers/gpio/gpio.o
LOAD avr32/drivers/intc/intc.o
LOAD avr32/drivers/pdca/pdca.o
LOAD avr32/drivers/pm/pm.o
LOAD avr32/drivers/pm/pm_conf_clocks.o
LOAD avr32/drivers/pm/power_clocks_lib.o
LOAD avr32/drivers/spi/spi.o
LOAD avr32/drivers/tc/tc.o
LOAD avr32/drivers/usart/usart.o
LOAD avr32/utils/debug/print_funcs.o
LOAD avr32/components/memory/sd_mmc/sd_mmc_spi/sd_mmc_spi.o
LOAD avr32/components/memory/sd_mmc/sd_mmc_spi/sd_mmc_spi_mem.o
LOAD avr32/drivers/usbb/usbb_host.o
LOAD common/services/clock/uc3a0_a1/sysclk.o
LOAD common/services/storage/ctrl_access/ctrl_access.o
LOAD common/services/usb/uhc/uhc.o
LOAD ../src/adc.o
LOAD ../src/app_timers.o
LOAD ../src/bfin.o
LOAD ../src/events.o
LOAD ../src/encoders.o
LOAD ../src/files.o
LOAD ../src/filesystem.o
LOAD ../src/flash.o
LOAD ../src/font.o
LOAD ../src/init.o
LOAD ../src/interrupts.o
LOAD ../src/memory.o
LOAD ../src/screen.o
LOAD ../src/simple_string.o
LOAD ../src/switches.o
LOAD ../src/timers.o
LOAD ../src/main.o
LOAD ../src/usb.o
LOAD ../src/usb/mouse/hid_mouse.o
LOAD ../src/usb/mouse/uhi_hid_mouse.o
LOAD ../src/usb/gamepad/hid_gamepad.o
LOAD ../src/usb/gamepad/uhi_hid_gamepad.o
LOAD ../src/fat_io_lib/fat_access.o
LOAD ../src/fat_io_lib/fat_cache.o
LOAD ../src/fat_io_lib/fat_filelib.o
LOAD ../src/fat_io_lib/fat_format.o
LOAD ../src/fat_io_lib/fat_misc.o
LOAD ../src/fat_io_lib/fat_string.o
LOAD ../src/fat_io_lib/fat_table.o
LOAD ../src/fat_io_lib/fat_write.o
LOAD ../../common/fix.o
LOAD ../../common/libfixmath/fix16.o
LOAD ../apps/bees/src/key_handler.o
LOAD ../apps/bees/src/menu.o
LOAD ../apps/bees/src/net.o
LOAD ../apps/bees/src/op.o
LOAD ../apps/bees/src/param.o
LOAD ../apps/bees/src/play.o
LOAD ../apps/bees/src/preset.o
LOAD ../apps/bees/src/redraw.o
LOAD ../apps/bees/src/scene.o
LOAD ../apps/bees/src/ops/op_add.o
LOAD ../apps/bees/src/ops/op_enc.o
LOAD ../apps/bees/src/ops/op_gate.o
LOAD ../apps/bees/src/ops/op_mul.o
LOAD ../apps/bees/src/ops/op_sw.o
LOAD avr32/drivers/intc/exception.o
LOAD avr32/utils/startup/startup_uc3.o
LOAD avr32/utils/startup/trampoline_uc3.o
START GROUP
END GROUP
LOAD /home/emb/avr32-gnu-toolchain/bin/../lib/gcc/avr32/4.4.3/ucr2/libgcc.a
LOAD /home/emb/avr32-gnu-toolchain/bin/../lib/gcc/avr32/4.4.3/../../../../avr32/lib/ucr2/libc.a
LOAD /home/emb/avr32-gnu-toolchain/bin/../lib/gcc/avr32/4.4.3/ucr2/libgcc.a
OUTPUT(aleph.elf elf32-avr32)

.debug_ranges   0x00000000     0x7b50
 .debug_ranges  0x00000000       0x80 avr32/drivers/ebi/smc/smc.o
 .debug_ranges  0x00000080     0x2cd0 avr32/drivers/flashc/flashc.o
 .debug_ranges  0x00002d50      0x1d8 avr32/drivers/gpio/gpio.o
 .debug_ranges  0x00002f28       0x48 avr32/drivers/intc/intc.o
 .debug_ranges  0x00002f70      0x3f0 avr32/drivers/pdca/pdca.o
 .debug_ranges  0x00003360       0xa0 avr32/drivers/spi/spi.o
 .debug_ranges  0x00003400       0xa0 avr32/drivers/tc/tc.o
 .debug_ranges  0x000034a0      0x5c0 avr32/drivers/usart/usart.o
 .debug_ranges  0x00003a60       0xb0 avr32/utils/debug/print_funcs.o
 .debug_ranges  0x00003b10      0x9d0 avr32/components/memory/sd_mmc/sd_mmc_spi/sd_mmc_spi.o
 .debug_ranges  0x000044e0      0x598 avr32/drivers/usbb/usbb_host.o
 .debug_ranges  0x00004a78      0x218 common/services/clock/uc3a0_a1/sysclk.o
 .debug_ranges  0x00004c90      0x140 common/services/usb/uhc/uhc.o
 .debug_ranges  0x00004dd0       0x80 ../src/adc.o
 .debug_ranges  0x00004e50       0x30 ../src/app_timers.o
 .debug_ranges  0x00004e80       0xb8 ../src/bfin.o
 .debug_ranges  0x00004f38       0x28 ../src/events.o
 .debug_ranges  0x00004f60       0x28 ../src/encoders.o
 .debug_ranges  0x00004f88       0xc0 ../src/files.o
 .debug_ranges  0x00005048       0x28 ../src/filesystem.o
 .debug_ranges  0x00005070       0x38 ../src/flash.o
 .debug_ranges  0x000050a8       0x50 ../src/init.o
 .debug_ranges  0x000050f8       0x48 ../src/interrupts.o
 .debug_ranges  0x00005140       0x28 ../src/memory.o
 .debug_ranges  0x00005168      0x4c8 ../src/screen.o
 .debug_ranges  0x00005630       0x18 ../src/simple_string.o
 .debug_ranges  0x00005648       0x18 ../src/switches.o
 .debug_ranges  0x00005660       0x90 ../src/timers.o
 .debug_ranges  0x000056f0       0x18 ../src/main.o
 .debug_ranges  0x00005708       0x48 ../src/usb.o
 .debug_ranges  0x00005750       0x30 ../src/usb/mouse/hid_mouse.o
 .debug_ranges  0x00005780       0x30 ../src/usb/mouse/uhi_hid_mouse.o
 .debug_ranges  0x000057b0       0x30 ../src/usb/gamepad/uhi_hid_gamepad.o
 .debug_ranges  0x000057e0      0x168 ../src/fat_io_lib/fat_access.o
 .debug_ranges  0x00005948       0x28 ../src/fat_io_lib/fat_cache.o
 .debug_ranges  0x00005970      0xad0 ../src/fat_io_lib/fat_filelib.o
 .debug_ranges  0x00006440      0x100 ../src/fat_io_lib/fat_misc.o
 .debug_ranges  0x00006540      0x170 ../src/fat_io_lib/fat_string.o
 .debug_ranges  0x000066b0      0x588 ../src/fat_io_lib/fat_table.o
 .debug_ranges  0x00006c38       0xe0 ../src/fat_io_lib/fat_write.o
 .debug_ranges  0x00006d18      0x130 ../../common/fix.o
 .debug_ranges  0x00006e48      0x190 ../../common/libfixmath/fix16.o
 .debug_ranges  0x00006fd8       0x58 ../apps/bees/src/key_handler.o
 .debug_ranges  0x00007030       0x58 ../apps/bees/src/menu.o
 .debug_ranges  0x00007088      0x1c0 ../apps/bees/src/net.o
 .debug_ranges  0x00007248       0x38 ../apps/bees/src/op.o
 .debug_ranges  0x00007280       0x30 ../apps/bees/src/param.o
 .debug_ranges  0x000072b0       0x28 ../apps/bees/src/play.o
 .debug_ranges  0x000072d8       0x48 ../apps/bees/src/preset.o
 .debug_ranges  0x00007320      0x658 ../apps/bees/src/redraw.o
 .debug_ranges  0x00007978       0x40 ../apps/bees/src/scene.o
 .debug_ranges  0x000079b8       0x38 ../apps/bees/src/ops/op_add.o
 .debug_ranges  0x000079f0       0x68 ../apps/bees/src/ops/op_enc.o
 .debug_ranges  0x00007a58       0x50 ../apps/bees/src/ops/op_gate.o
 .debug_ranges  0x00007aa8       0x38 ../apps/bees/src/ops/op_mul.o
 .debug_ranges  0x00007ae0       0x70 ../apps/bees/src/ops/op_sw.o

Cross Reference Table

Symbol                                            File
INTC_init_interrupts                              avr32/drivers/intc/intc.o
                                                  ../src/main.o
INTC_register_interrupt                           avr32/drivers/intc/intc.o
                                                  ../src/interrupts.o
                                                  avr32/drivers/usbb/usbb_host.o
__avr32_f32_to_s32                                /home/emb/avr32-gnu-toolchain/bin/../lib/gcc/avr32/4.4.3/ucr2/libgcc.a(_avr32_f32_to_s32.o)
                                                  ../apps/bees/src/preset.o
                                                  ../src/bfin.o
__avr32_s32_to_f32                                /home/emb/avr32-gnu-toolchain/bin/../lib/gcc/avr32/4.4.3/ucr2/libgcc.a(_avr32_s32_to_f32.o)
                                                  ../apps/bees/src/preset.o
__avr32_udiv64                                    /home/emb/avr32-gnu-toolchain/bin/../lib/gcc/avr32/4.4.3/ucr2/libgcc.a(_udivdi3.o)
                                                  ../src/bfin.o
                                                  ../src/adc.o
__bss_start                                       avr32/utils/startup/startup_uc3.o
__errno                                           /home/emb/avr32-gnu-toolchain/bin/../lib/gcc/avr32/4.4.3/../../../../avr32/lib/ucr2/libc.a(lib_a-errno.o)
                                                  /home/emb/avr32-gnu-toolchain/bin/../lib/gcc/avr32/4.4.3/../../../../avr32/lib/ucr2/libc.a(lib_a-syscalls.o)
__fp_lock_all                                     /home/emb/avr32-gnu-toolchain/bin/../lib/gcc/avr32/4.4.3/../../../../avr32/lib/ucr2/libc.a(lib_a-findfp.o)
__fp_unlock_all                                   /home/emb/avr32-gnu-toolchain/bin/../lib/gcc/avr32/4.4.3/../../../../avr32/lib/ucr2/libc.a(lib_a-findfp.o)
__heap_end__                                      /home/emb/avr32-gnu-toolchain/bin/../lib/gcc/avr32/4.4.3/../../../../avr32/lib/ucr2/libc.a(lib_a-syscalls.o)
__heap_start__                                    /home/emb/avr32-gnu-toolchain/bin/../lib/gcc/avr32/4.4.3/../../../../avr32/lib/ucr2/libc.a(lib_a-syscalls.o)
__malloc_av_                                      /home/emb/avr32-gnu-toolchain/bin/../lib/gcc/avr32/4.4.3/../../../../avr32/lib/ucr2/libc.a(lib_a-mallocr.o)
                                                  /home/emb/avr32-gnu-toolchain/bin/../lib/gcc/avr32/4.4.3/../../../../avr32/lib/ucr2/libc.a(lib_a-freer.o)
__malloc_current_mallinfo                         /home/emb/avr32-gnu-toolchain/bin/../lib/gcc/avr32/4.4.3/../../../../avr32/lib/ucr2/libc.a(lib_a-mallocr.o)
                                                  /home/emb/avr32-gnu-toolchain/bin/../lib/gcc/avr32/4.4.3/../../../../avr32/lib/ucr2/libc.a(lib_a-freer.o)
__malloc_lock                                     /home/emb/avr32-gnu-toolchain/bin/../lib/gcc/avr32/4.4.3/../../../../avr32/lib/ucr2/libc.a(lib_a-mlock.o)
                                                  /home/emb/avr32-gnu-toolchain/bin/../lib/gcc/avr32/4.4.3/../../../../avr32/lib/ucr2/libc.a(lib_a-freer.o)
                                                  /home/emb/avr32-gnu-toolchain/bin/../lib/gcc/avr32/4.4.3/../../../../avr32/lib/ucr2/libc.a(lib_a-mallocr.o)
__malloc_max_sbrked_mem                           /home/emb/avr32-gnu-toolchain/bin/../lib/gcc/avr32/4.4.3/../../../../avr32/lib/ucr2/libc.a(lib_a-mallocr.o)
__malloc_max_total_mem                            /home/emb/avr32-gnu-toolchain/bin/../lib/gcc/avr32/4.4.3/../../../../avr32/lib/ucr2/libc.a(lib_a-mallocr.o)
__malloc_sbrk_base                                /home/emb/avr32-gnu-toolchain/bin/../lib/gcc/avr32/4.4.3/../../../../avr32/lib/ucr2/libc.a(lib_a-mallocr.o)
                                                  /home/emb/avr32-gnu-toolchain/bin/../lib/gcc/avr32/4.4.3/../../../../avr32/lib/ucr2/libc.a(lib_a-freer.o)
__malloc_top_pad                                  /home/emb/avr32-gnu-toolchain/bin/../lib/gcc/avr32/4.4.3/../../../../avr32/lib/ucr2/libc.a(lib_a-mallocr.o)
                                                  /home/emb/avr32-gnu-toolchain/bin/../lib/gcc/avr32/4.4.3/../../../../avr32/lib/ucr2/libc.a(lib_a-freer.o)
__malloc_trim_threshold                           /home/emb/avr32-gnu-toolchain/bin/../lib/gcc/avr32/4.4.3/../../../../avr32/lib/ucr2/libc.a(lib_a-mallocr.o)
                                                  /home/emb/avr32-gnu-toolchain/bin/../lib/gcc/avr32/4.4.3/../../../../avr32/lib/ucr2/libc.a(lib_a-freer.o)
__malloc_unlock                                   /home/emb/avr32-gnu-toolchain/bin/../lib/gcc/avr32/4.4.3/../../../../avr32/lib/ucr2/libc.a(lib_a-mlock.o)
                                                  /home/emb/avr32-gnu-toolchain/bin/../lib/gcc/avr32/4.4.3/../../../../avr32/lib/ucr2/libc.a(lib_a-freer.o)
                                                  /home/emb/avr32-gnu-toolchain/bin/../lib/gcc/avr32/4.4.3/../../../../avr32/lib/ucr2/libc.a(lib_a-mallocr.o)
__sclose                                          /home/emb/avr32-gnu-toolchain/bin/../lib/gcc/avr32/4.4.3/../../../../avr32/lib/ucr2/libc.a(lib_a-stdio.o)
                                                  /home/emb/avr32-gnu-toolchain/bin/../lib/gcc/avr32/4.4.3/../../../../avr32/lib/ucr2/libc.a(lib_a-findfp.o)
__sf_fake_stderr                                  /home/emb/avr32-gnu-toolchain/bin/../lib/gcc/avr32/4.4.3/../../../../avr32/lib/ucr2/libc.a(lib_a-findfp.o)
                                                  /home/emb/avr32-gnu-toolchain/bin/../lib/gcc/avr32/4.4.3/../../../../avr32/lib/ucr2/libc.a(lib_a-fflush.o)
                                                  /home/emb/avr32-gnu-toolchain/bin/../lib/gcc/avr32/4.4.3/../../../../avr32/lib/ucr2/libc.a(lib_a-fclose.o)
                                                  /home/emb/avr32-gnu-toolchain/bin/../lib/gcc/avr32/4.4.3/../../../../avr32/lib/ucr2/libc.a(lib_a-impure.o)
__sf_fake_stdin                                   /home/emb/avr32-gnu-toolchain/bin/../lib/gcc/avr32/4.4.3/../../../../avr32/lib/ucr2/libc.a(lib_a-findfp.o)
                                                  /home/emb/avr32-gnu-toolchain/bin/../lib/gcc/avr32/4.4.3/../../../../avr32/lib/ucr2/libc.a(lib_a-fflush.o)
                                                  /home/emb/avr32-gnu-toolchain/bin/../lib/gcc/avr32/4.4.3/../../../../avr32/lib/ucr2/libc.a(lib_a-fclose.o)
                                                  /home/emb/avr32-gnu-toolchain/bin/../lib/gcc/avr32/4.4.3/../../../../avr32/lib/ucr2/libc.a(lib_a-impure.o)
__sf_fake_stdout                                  /home/emb/avr32-gnu-toolchain/bin/../lib/gcc/avr32/4.4.3/../../../../avr32/lib/ucr2/libc.a(lib_a-findfp.o)
                                                  /home/emb/avr32-gnu-toolchain/bin/../lib/gcc/avr32/4.4.3/../../../../avr32/lib/ucr2/libc.a(lib_a-fflush.o)
                                                  /home/emb/avr32-gnu-toolchain/bin/../lib/gcc/avr32/4.4.3/../../../../avr32/lib/ucr2/libc.a(lib_a-fclose.o)
                                                  /home/emb/avr32-gnu-toolchain/bin/../lib/gcc/avr32/4.4.3/../../../../avr32/lib/ucr2/libc.a(lib_a-impure.o)
__sfmoreglue                                      /home/emb/avr32-gnu-toolchain/bin/../lib/gcc/avr32/4.4.3/../../../../avr32/lib/ucr2/libc.a(lib_a-findfp.o)
__sfp                                             /home/emb/avr32-gnu-toolchain/bin/../lib/gcc/avr32/4.4.3/../../../../avr32/lib/ucr2/libc.a(lib_a-findfp.o)
__sfp_lock_acquire                                /home/emb/avr32-gnu-toolchain/bin/../lib/gcc/avr32/4.4.3/../../../../avr32/lib/ucr2/libc.a(lib_a-findfp.o)
                                                  /home/emb/avr32-gnu-toolchain/bin/../lib/gcc/avr32/4.4.3/../../../../avr32/lib/ucr2/libc.a(lib_a-fclose.o)
                                                  /home/emb/avr32-gnu-toolchain/bin/../lib/gcc/avr32/4.4.3/../../../../avr32/lib/ucr2/libc.a(lib_a-fwalk.o)
__sfp_lock_release                                /home/emb/avr32-gnu-toolchain/bin/../lib/gcc/avr32/4.4.3/../../../../avr32/lib/ucr2/libc.a(lib_a-findfp.o)
                                                  /home/emb/avr32-gnu-toolchain/bin/../lib/gcc/avr32/4.4.3/../../../../avr32/lib/ucr2/libc.a(lib_a-fclose.o)
                                                  /home/emb/avr32-gnu-toolchain/bin/../lib/gcc/avr32/4.4.3/../../../../avr32/lib/ucr2/libc.a(lib_a-fwalk.o)
__sinit                                           /home/emb/avr32-gnu-toolchain/bin/../lib/gcc/avr32/4.4.3/../../../../avr32/lib/ucr2/libc.a(lib_a-findfp.o)
                                                  /home/emb/avr32-gnu-toolchain/bin/../lib/gcc/avr32/4.4.3/../../../../avr32/lib/ucr2/libc.a(lib_a-fflush.o)
                                                  /home/emb/avr32-gnu-toolchain/bin/../lib/gcc/avr32/4.4.3/../../../../avr32/lib/ucr2/libc.a(lib_a-fclose.o)
__sinit_lock_acquire                              /home/emb/avr32-gnu-toolchain/bin/../lib/gcc/avr32/4.4.3/../../../../avr32/lib/ucr2/libc.a(lib_a-findfp.o)
__sinit_lock_release                              /home/emb/avr32-gnu-toolchain/bin/../lib/gcc/avr32/4.4.3/../../../../avr32/lib/ucr2/libc.a(lib_a-findfp.o)
__sread                                           /home/emb/avr32-gnu-toolchain/bin/../lib/gcc/avr32/4.4.3/../../../../avr32/lib/ucr2/libc.a(lib_a-stdio.o)
                                                  /home/emb/avr32-gnu-toolchain/bin/../lib/gcc/avr32/4.4.3/../../../../avr32/lib/ucr2/libc.a(lib_a-findfp.o)
__sseek                                           /home/emb/avr32-gnu-toolchain/bin/../lib/gcc/avr32/4.4.3/../../../../avr32/lib/ucr2/libc.a(lib_a-stdio.o)
                                                  /home/emb/avr32-gnu-toolchain/bin/../lib/gcc/avr32/4.4.3/../../../../avr32/lib/ucr2/libc.a(lib_a-findfp.o)
__swrite                                          /home/emb/avr32-gnu-toolchain/bin/../lib/gcc/avr32/4.4.3/../../../../avr32/lib/ucr2/libc.a(lib_a-stdio.o)
                                                  /home/emb/avr32-gnu-toolchain/bin/../lib/gcc/avr32/4.4.3/../../../../avr32/lib/ucr2/libc.a(lib_a-findfp.o)
__udivdi3                                         /home/emb/avr32-gnu-toolchain/bin/../lib/gcc/avr32/4.4.3/ucr2/libgcc.a(_udivdi3.o)
_cleanup                                          /home/emb/avr32-gnu-toolchain/bin/../lib/gcc/avr32/4.4.3/../../../../avr32/lib/ucr2/libc.a(lib_a-findfp.o)
_cleanup_r                                        /home/emb/avr32-gnu-toolchain/bin/../lib/gcc/avr32/4.4.3/../../../../avr32/lib/ucr2/libc.a(lib_a-findfp.o)
_close                                            /home/emb/avr32-gnu-toolchain/bin/../lib/gcc/avr32/4.4.3/../../../../avr32/lib/ucr2/libc.a(lib_a-syscalls.o)
                                                  /home/emb/avr32-gnu-toolchain/bin/../lib/gcc/avr32/4.4.3/../../../../avr32/lib/ucr2/libc.a(lib_a-closer.o)
_close_r                                          /home/emb/avr32-gnu-toolchain/bin/../lib/gcc/avr32/4.4.3/../../../../avr32/lib/ucr2/libc.a(lib_a-closer.o)
                                                  /home/emb/avr32-gnu-toolchain/bin/../lib/gcc/avr32/4.4.3/../../../../avr32/lib/ucr2/libc.a(lib_a-stdio.o)
_cluster_size_table                               ../src/fat_io_lib/fat_format.o
_data                                             avr32/utils/startup/startup_uc3.o
_data_lma                                         avr32/utils/startup/startup_uc3.o
_edata                                            avr32/utils/startup/startup_uc3.o
_end                                              avr32/utils/startup/startup_uc3.o
_estack                                           avr32/utils/startup/startup_uc3.o
_evba                                             avr32/drivers/intc/exception.o
                                                  avr32/utils/startup/startup_uc3.o
                                                  avr32/drivers/intc/intc.o
_execve                                           /home/emb/avr32-gnu-toolchain/bin/../lib/gcc/avr32/4.4.3/../../../../avr32/lib/ucr2/libc.a(lib_a-syscalls.o)
_exit                                             /home/emb/avr32-gnu-toolchain/bin/../lib/gcc/avr32/4.4.3/../../../../avr32/lib/ucr2/libc.a(lib_a-syscalls.o)
_fclose_r                                         /home/emb/avr32-gnu-toolchain/bin/../lib/gcc/avr32/4.4.3/../../../../avr32/lib/ucr2/libc.a(lib_a-fclose.o)
_fcntl                                            /home/emb/avr32-gnu-toolchain/bin/../lib/gcc/avr32/4.4.3/../../../../avr32/lib/ucr2/libc.a(lib_a-syscalls.o)
_fflush_r                                         /home/emb/avr32-gnu-toolchain/bin/../lib/gcc/avr32/4.4.3/../../../../avr32/lib/ucr2/libc.a(lib_a-fflush.o)
                                                  /home/emb/avr32-gnu-toolchain/bin/../lib/gcc/avr32/4.4.3/../../../../avr32/lib/ucr2/libc.a(lib_a-fclose.o)
_fork                                             /home/emb/avr32-gnu-toolchain/bin/../lib/gcc/avr32/4.4.3/../../../../avr32/lib/ucr2/libc.a(lib_a-syscalls.o)
_free_r                                           /home/emb/avr32-gnu-toolchain/bin/../lib/gcc/avr32/4.4.3/../../../../avr32/lib/ucr2/libc.a(lib_a-freer.o)
                                                  /home/emb/avr32-gnu-toolchain/bin/../lib/gcc/avr32/4.4.3/../../../../avr32/lib/ucr2/libc.a(lib_a-fclose.o)
                                                  /home/emb/avr32-gnu-toolchain/bin/../lib/gcc/avr32/4.4.3/../../../../avr32/lib/ucr2/libc.a(lib_a-reent.o)
                                                  /home/emb/avr32-gnu-toolchain/bin/../lib/gcc/avr32/4.4.3/../../../../avr32/lib/ucr2/libc.a(lib_a-mallocr.o)
                                                  /home/emb/avr32-gnu-toolchain/bin/../lib/gcc/avr32/4.4.3/../../../../avr32/lib/ucr2/libc.a(lib_a-malloc.o)
_fstat                                            /home/emb/avr32-gnu-toolchain/bin/../lib/gcc/avr32/4.4.3/../../../../avr32/lib/ucr2/libc.a(lib_a-syscalls.o)
_fstat_host                                       /home/emb/avr32-gnu-toolchain/bin/../lib/gcc/avr32/4.4.3/../../../../avr32/lib/ucr2/libc.a(lib_a-syscalls.o)
_fwalk                                            /home/emb/avr32-gnu-toolchain/bin/../lib/gcc/avr32/4.4.3/../../../../avr32/lib/ucr2/libc.a(lib_a-fwalk.o)
                                                  /home/emb/avr32-gnu-toolchain/bin/../lib/gcc/avr32/4.4.3/../../../../avr32/lib/ucr2/libc.a(lib_a-findfp.o)
_fwalk_reent                                      /home/emb/avr32-gnu-toolchain/bin/../lib/gcc/avr32/4.4.3/../../../../avr32/lib/ucr2/libc.a(lib_a-fwalk.o)
                                                  /home/emb/avr32-gnu-toolchain/bin/../lib/gcc/avr32/4.4.3/../../../../avr32/lib/ucr2/libc.a(lib_a-fflush.o)
_get_interrupt_handler                            avr32/drivers/intc/intc.o
                                                  avr32/drivers/intc/exception.o
_getpid                                           /home/emb/avr32-gnu-toolchain/bin/../lib/gcc/avr32/4.4.3/../../../../avr32/lib/ucr2/libc.a(lib_a-syscalls.o)
_gettimeofday                                     /home/emb/avr32-gnu-toolchain/bin/../lib/gcc/avr32/4.4.3/../../../../avr32/lib/ucr2/libc.a(lib_a-syscalls.o)
_gettimeofday_host                                /home/emb/avr32-gnu-toolchain/bin/../lib/gcc/avr32/4.4.3/../../../../avr32/lib/ucr2/libc.a(lib_a-syscalls.o)
_global_impure_ptr                                /home/emb/avr32-gnu-toolchain/bin/../lib/gcc/avr32/4.4.3/../../../../avr32/lib/ucr2/libc.a(lib_a-impure.o)
                                                  /home/emb/avr32-gnu-toolchain/bin/../lib/gcc/avr32/4.4.3/../../../../avr32/lib/ucr2/libc.a(lib_a-fflush.o)
                                                  /home/emb/avr32-gnu-toolchain/bin/../lib/gcc/avr32/4.4.3/../../../../avr32/lib/ucr2/libc.a(lib_a-findfp.o)
_impure_ptr                                       /home/emb/avr32-gnu-toolchain/bin/../lib/gcc/avr32/4.4.3/../../../../avr32/lib/ucr2/libc.a(lib_a-impure.o)
                                                  /home/emb/avr32-gnu-toolchain/bin/../lib/gcc/avr32/4.4.3/../../../../avr32/lib/ucr2/libc.a(lib_a-fflush.o)
                                                  /home/emb/avr32-gnu-toolchain/bin/../lib/gcc/avr32/4.4.3/../../../../avr32/lib/ucr2/libc.a(lib_a-fclose.o)
                                                  /home/emb/avr32-gnu-toolchain/bin/../lib/gcc/avr32/4.4.3/../../../../avr32/lib/ucr2/libc.a(lib_a-findfp.o)
                                                  /home/emb/avr32-gnu-toolchain/bin/../lib/gcc/avr32/4.4.3/../../../../avr32/lib/ucr2/libc.a(lib_a-reent.o)
                                                  /home/emb/avr32-gnu-toolchain/bin/../lib/gcc/avr32/4.4.3/../../../../avr32/lib/ucr2/libc.a(lib_a-errno.o)
                                                  /home/emb/avr32-gnu-toolchain/bin/../lib/gcc/avr32/4.4.3/../../../../avr32/lib/ucr2/libc.a(lib_a-malloc.o)
_init_argv                                        /home/emb/avr32-gnu-toolchain/bin/../lib/gcc/avr32/4.4.3/../../../../avr32/lib/ucr2/libc.a(lib_a-syscalls.o)
_init_startup                                     /home/emb/avr32-gnu-toolchain/bin/../lib/gcc/avr32/4.4.3/../../../../avr32/lib/ucr2/libc.a(lib_a-syscalls.o)
_int0                                             avr32/drivers/intc/exception.o
                                                  avr32/drivers/intc/intc.o
_int1                                             avr32/drivers/intc/exception.o
                                                  avr32/drivers/intc/intc.o
_int2                                             avr32/drivers/intc/exception.o
                                                  avr32/drivers/intc/intc.o
_int3                                             avr32/drivers/intc/exception.o
                                                  avr32/drivers/intc/intc.o
_kill                                             /home/emb/avr32-gnu-toolchain/bin/../lib/gcc/avr32/4.4.3/../../../../avr32/lib/ucr2/libc.a(lib_a-syscalls.o)
_link                                             /home/emb/avr32-gnu-toolchain/bin/../lib/gcc/avr32/4.4.3/../../../../avr32/lib/ucr2/libc.a(lib_a-syscalls.o)
_lseek                                            /home/emb/avr32-gnu-toolchain/bin/../lib/gcc/avr32/4.4.3/../../../../avr32/lib/ucr2/libc.a(lib_a-syscalls.o)
                                                  /home/emb/avr32-gnu-toolchain/bin/../lib/gcc/avr32/4.4.3/../../../../avr32/lib/ucr2/libc.a(lib_a-lseekr.o)
_lseek_r                                          /home/emb/avr32-gnu-toolchain/bin/../lib/gcc/avr32/4.4.3/../../../../avr32/lib/ucr2/libc.a(lib_a-lseekr.o)
                                                  /home/emb/avr32-gnu-toolchain/bin/../lib/gcc/avr32/4.4.3/../../../../avr32/lib/ucr2/libc.a(lib_a-stdio.o)
_malloc_r                                         /home/emb/avr32-gnu-toolchain/bin/../lib/gcc/avr32/4.4.3/../../../../avr32/lib/ucr2/libc.a(lib_a-mallocr.o)
                                                  /home/emb/avr32-gnu-toolchain/bin/../lib/gcc/avr32/4.4.3/../../../../avr32/lib/ucr2/libc.a(lib_a-findfp.o)
                                                  /home/emb/avr32-gnu-toolchain/bin/../lib/gcc/avr32/4.4.3/../../../../avr32/lib/ucr2/libc.a(lib_a-malloc.o)
_malloc_trim_r                                    /home/emb/avr32-gnu-toolchain/bin/../lib/gcc/avr32/4.4.3/../../../../avr32/lib/ucr2/libc.a(lib_a-freer.o)
_open                                             /home/emb/avr32-gnu-toolchain/bin/../lib/gcc/avr32/4.4.3/../../../../avr32/lib/ucr2/libc.a(lib_a-syscalls.o)
_read                                             /home/emb/avr32-gnu-toolchain/bin/../lib/gcc/avr32/4.4.3/../../../../avr32/lib/ucr2/libc.a(lib_a-syscalls.o)
                                                  /home/emb/avr32-gnu-toolchain/bin/../lib/gcc/avr32/4.4.3/../../../../avr32/lib/ucr2/libc.a(lib_a-readr.o)
_read_r                                           /home/emb/avr32-gnu-toolchain/bin/../lib/gcc/avr32/4.4.3/../../../../avr32/lib/ucr2/libc.a(lib_a-readr.o)
                                                  /home/emb/avr32-gnu-toolchain/bin/../lib/gcc/avr32/4.4.3/../../../../avr32/lib/ucr2/libc.a(lib_a-stdio.o)
_reclaim_reent                                    /home/emb/avr32-gnu-toolchain/bin/../lib/gcc/avr32/4.4.3/../../../../avr32/lib/ucr2/libc.a(lib_a-reent.o)
_sbrk                                             /home/emb/avr32-gnu-toolchain/bin/../lib/gcc/avr32/4.4.3/../../../../avr32/lib/ucr2/libc.a(lib_a-syscalls.o)
                                                  /home/emb/avr32-gnu-toolchain/bin/../lib/gcc/avr32/4.4.3/../../../../avr32/lib/ucr2/libc.a(lib_a-sbrkr.o)
_sbrk_r                                           /home/emb/avr32-gnu-toolchain/bin/../lib/gcc/avr32/4.4.3/../../../../avr32/lib/ucr2/libc.a(lib_a-sbrkr.o)
                                                  /home/emb/avr32-gnu-toolchain/bin/../lib/gcc/avr32/4.4.3/../../../../avr32/lib/ucr2/libc.a(lib_a-freer.o)
                                                  /home/emb/avr32-gnu-toolchain/bin/../lib/gcc/avr32/4.4.3/../../../../avr32/lib/ucr2/libc.a(lib_a-mallocr.o)
_start                                            avr32/utils/startup/startup_uc3.o
_stat                                             /home/emb/avr32-gnu-toolchain/bin/../lib/gcc/avr32/4.4.3/../../../../avr32/lib/ucr2/libc.a(lib_a-syscalls.o)
_stat_host                                        /home/emb/avr32-gnu-toolchain/bin/../lib/gcc/avr32/4.4.3/../../../../avr32/lib/ucr2/libc.a(lib_a-syscalls.o)
_stext                                            avr32/utils/startup/startup_uc3.o
                                                  avr32/utils/startup/trampoline_uc3.o
_system                                           /home/emb/avr32-gnu-toolchain/bin/../lib/gcc/avr32/4.4.3/../../../../avr32/lib/ucr2/libc.a(lib_a-syscalls.o)
_times                                            /home/emb/avr32-gnu-toolchain/bin/../lib/gcc/avr32/4.4.3/../../../../avr32/lib/ucr2/libc.a(lib_a-syscalls.o)
_trampoline                                       avr32/utils/startup/trampoline_uc3.o
_unlink                                           /home/emb/avr32-gnu-toolchain/bin/../lib/gcc/avr32/4.4.3/../../../../avr32/lib/ucr2/libc.a(lib_a-syscalls.o)
_wait                                             /home/emb/avr32-gnu-toolchain/bin/../lib/gcc/avr32/4.4.3/../../../../avr32/lib/ucr2/libc.a(lib_a-syscalls.o)
_wrapup_reent                                     /home/emb/avr32-gnu-toolchain/bin/../lib/gcc/avr32/4.4.3/../../../../avr32/lib/ucr2/libc.a(lib_a-reent.o)
_write                                            /home/emb/avr32-gnu-toolchain/bin/../lib/gcc/avr32/4.4.3/../../../../avr32/lib/ucr2/libc.a(lib_a-syscalls.o)
                                                  /home/emb/avr32-gnu-toolchain/bin/../lib/gcc/avr32/4.4.3/../../../../avr32/lib/ucr2/libc.a(lib_a-writer.o)
_write_r                                          /home/emb/avr32-gnu-toolchain/bin/../lib/gcc/avr32/4.4.3/../../../../avr32/lib/ucr2/libc.a(lib_a-writer.o)
                                                  /home/emb/avr32-gnu-toolchain/bin/../lib/gcc/avr32/4.4.3/../../../../avr32/lib/ucr2/libc.a(lib_a-stdio.o)
adc_poll                                          ../src/adc.o
                                                  ../src/app_timers.o
alloc_mem                                         ../src/memory.o
                                                  ../apps/bees/src/scene.o
                                                  ../apps/bees/src/net.o
                                                  ../src/flash.o
bfinLdrData                                       ../src/flash.o
                                                  ../src/files.o
                                                  ../src/bfin.o
bfinLdrSize                                       ../src/flash.o
                                                  ../src/files.o
                                                  ../src/bfin.o
bfin_get_module_name                              ../src/bfin.o
bfin_get_num_params                               ../src/bfin.o
bfin_get_param_desc                               ../src/bfin.o
bfin_load_buf                                     ../src/bfin.o
                                                  ../src/files.o
bfin_report_params                                ../src/bfin.o
bfin_set_param                                    ../src/bfin.o
                                                  ../apps/bees/src/param.o
capacity                                          avr32/components/memory/sd_mmc/sd_mmc_spi/sd_mmc_spi.o
capacity_mult                                     avr32/components/memory/sd_mmc/sd_mmc_spi/sd_mmc_spi.o
card_type                                         avr32/components/memory/sd_mmc/sd_mmc_spi/sd_mmc_spi.o
cleanup_glue                                      /home/emb/avr32-gnu-toolchain/bin/../lib/gcc/avr32/4.4.3/../../../../avr32/lib/ucr2/libc.a(lib_a-reent.o)
csd                                               avr32/components/memory/sd_mmc/sd_mmc_spi/sd_mmc_spi.o
curPage                                           ../apps/bees/src/redraw.o
                                                  ../apps/bees/src/menu.o
                                                  ../apps/bees/src/key_handler.o
data_mem                                          avr32/components/memory/sd_mmc/sd_mmc_spi/sd_mmc_spi.o
enc                                               ../src/encoders.o
                                                  ../src/app_timers.o
erase_group_size                                  avr32/components/memory/sd_mmc/sd_mmc_spi/sd_mmc_spi.o
errno                                             /home/emb/avr32-gnu-toolchain/bin/../lib/gcc/avr32/4.4.3/../../../../avr32/lib/ucr2/libc.a(lib_a-readr.o)
                                                  /home/emb/avr32-gnu-toolchain/bin/../lib/gcc/avr32/4.4.3/../../../../avr32/lib/ucr2/libc.a(lib_a-lseekr.o)
                                                  /home/emb/avr32-gnu-toolchain/bin/../lib/gcc/avr32/4.4.3/../../../../avr32/lib/ucr2/libc.a(lib_a-closer.o)
                                                  /home/emb/avr32-gnu-toolchain/bin/../lib/gcc/avr32/4.4.3/../../../../avr32/lib/ucr2/libc.a(lib_a-writer.o)
                                                  /home/emb/avr32-gnu-toolchain/bin/../lib/gcc/avr32/4.4.3/../../../../avr32/lib/ucr2/libc.a(lib_a-reent.o)
                                                  /home/emb/avr32-gnu-toolchain/bin/../lib/gcc/avr32/4.4.3/../../../../avr32/lib/ucr2/libc.a(lib_a-syscalls.o)
                                                  /home/emb/avr32-gnu-toolchain/bin/../lib/gcc/avr32/4.4.3/../../../../avr32/lib/ucr2/libc.a(lib_a-sbrkr.o)
fat_init                                          ../src/filesystem.o
                                                  ../src/files.o
fatfs_add_file_entry                              ../src/fat_io_lib/fat_write.o
                                                  ../src/fat_io_lib/fat_filelib.o
fatfs_add_free_space                              ../src/fat_io_lib/fat_write.o
                                                  ../src/fat_io_lib/fat_filelib.o
fatfs_allocate_free_space                         ../src/fat_io_lib/fat_write.o
                                                  ../src/fat_io_lib/fat_filelib.o
fatfs_cache_get_next_cluster                      ../src/fat_io_lib/fat_cache.o
                                                  ../src/fat_io_lib/fat_filelib.o
fatfs_cache_init                                  ../src/fat_io_lib/fat_cache.o
                                                  ../src/fat_io_lib/fat_filelib.o
fatfs_cache_set_next_cluster                      ../src/fat_io_lib/fat_cache.o
                                                  ../src/fat_io_lib/fat_filelib.o
fatfs_compare_names                               ../src/fat_io_lib/fat_string.o
                                                  ../src/fat_io_lib/fat_filelib.o
                                                  ../src/fat_io_lib/fat_access.o
fatfs_count_free_clusters                         ../src/fat_io_lib/fat_table.o
fatfs_create_boot_sector                          ../src/fat_io_lib/fat_format.o
fatfs_create_path_string                          ../src/fat_io_lib/fat_string.o
fatfs_entry_is_dir                                ../src/fat_io_lib/fat_misc.o
                                                  ../src/fat_io_lib/fat_filelib.o
                                                  ../src/fat_io_lib/fat_access.o
fatfs_entry_is_file                               ../src/fat_io_lib/fat_misc.o
                                                  ../src/fat_io_lib/fat_filelib.o
fatfs_entry_lfn_exists                            ../src/fat_io_lib/fat_misc.o
                                                  ../src/fat_io_lib/fat_access.o
fatfs_entry_lfn_invalid                           ../src/fat_io_lib/fat_misc.o
                                                  ../src/fat_io_lib/fat_access.o
fatfs_entry_lfn_text                              ../src/fat_io_lib/fat_misc.o
                                                  ../src/fat_io_lib/fat_write.o
                                                  ../src/fat_io_lib/fat_access.o
fatfs_entry_sfn_only                              ../src/fat_io_lib/fat_misc.o
                                                  ../src/fat_io_lib/fat_access.o
fatfs_erase_fat                                   ../src/fat_io_lib/fat_format.o
fatfs_fat_add_cluster_to_chain                    ../src/fat_io_lib/fat_table.o
                                                  ../src/fat_io_lib/fat_write.o
fatfs_fat_init                                    ../src/fat_io_lib/fat_table.o
                                                  ../src/fat_io_lib/fat_format.o
                                                  ../src/fat_io_lib/fat_access.o
fatfs_fat_purge                                   ../src/fat_io_lib/fat_table.o
                                                  ../src/fat_io_lib/fat_filelib.o
fatfs_fat_set_cluster                             ../src/fat_io_lib/fat_table.o
                                                  ../src/fat_io_lib/fat_write.o
fatfs_filename_to_lfn                             ../src/fat_io_lib/fat_misc.o
                                                  ../src/fat_io_lib/fat_write.o
fatfs_find_blank_cluster                          ../src/fat_io_lib/fat_table.o
                                                  ../src/fat_io_lib/fat_write.o
fatfs_find_next_cluster                           ../src/fat_io_lib/fat_table.o
                                                  ../src/fat_io_lib/fat_filelib.o
                                                  ../src/fat_io_lib/fat_access.o
fatfs_format_fat16                                ../src/fat_io_lib/fat_format.o
fatfs_free_cluster_chain                          ../src/fat_io_lib/fat_table.o
                                                  ../src/fat_io_lib/fat_filelib.o
fatfs_get_extension                               ../src/fat_io_lib/fat_string.o
fatfs_get_file_entry                              ../src/fat_io_lib/fat_access.o
                                                  ../src/fat_io_lib/fat_filelib.o
fatfs_get_root_cluster                            ../src/fat_io_lib/fat_access.o
                                                  ../src/fat_io_lib/fat_filelib.o
fatfs_get_sfn_display_name                        ../src/fat_io_lib/fat_string.o
                                                  ../src/fat_io_lib/fat_access.o
fatfs_get_substring                               ../src/fat_io_lib/fat_string.o
                                                  ../src/fat_io_lib/fat_filelib.o
fatfs_init                                        ../src/fat_io_lib/fat_access.o
                                                  ../src/fat_io_lib/fat_filelib.o
fatfs_lba_of_cluster                              ../src/fat_io_lib/fat_access.o
                                                  ../src/fat_io_lib/fat_filelib.o
fatfs_lfn_cache_entry                             ../src/fat_io_lib/fat_misc.o
                                                  ../src/fat_io_lib/fat_access.o
fatfs_lfn_cache_get                               ../src/fat_io_lib/fat_misc.o
                                                  ../src/fat_io_lib/fat_access.o
fatfs_lfn_cache_init                              ../src/fat_io_lib/fat_misc.o
                                                  ../src/fat_io_lib/fat_access.o
fatfs_lfn_create_sfn                              ../src/fat_io_lib/fat_misc.o
                                                  ../src/fat_io_lib/fat_filelib.o
fatfs_lfn_entries_required                        ../src/fat_io_lib/fat_misc.o
                                                  ../src/fat_io_lib/fat_write.o
fatfs_lfn_generate_tail                           ../src/fat_io_lib/fat_misc.o
                                                  ../src/fat_io_lib/fat_filelib.o
fatfs_list_directory_next                         ../src/fat_io_lib/fat_access.o
                                                  ../src/fat_io_lib/fat_filelib.o
fatfs_list_directory_start                        ../src/fat_io_lib/fat_access.o
                                                  ../src/fat_io_lib/fat_filelib.o
fatfs_mark_file_deleted                           ../src/fat_io_lib/fat_access.o
                                                  ../src/fat_io_lib/fat_filelib.o
fatfs_read_sector                                 ../src/fat_io_lib/fat_access.o
fatfs_sector_read                                 ../src/fat_io_lib/fat_access.o
                                                  ../src/fat_io_lib/fat_filelib.o
fatfs_sector_reader                               ../src/fat_io_lib/fat_access.o
                                                  ../src/fat_io_lib/fat_write.o
fatfs_sector_write                                ../src/fat_io_lib/fat_access.o
                                                  ../src/fat_io_lib/fat_filelib.o
fatfs_set_fs_info_next_free_cluster               ../src/fat_io_lib/fat_table.o
                                                  ../src/fat_io_lib/fat_write.o
fatfs_sfn_create_entry                            ../src/fat_io_lib/fat_misc.o
                                                  ../src/fat_io_lib/fat_write.o
fatfs_sfn_exists                                  ../src/fat_io_lib/fat_access.o
                                                  ../src/fat_io_lib/fat_filelib.o
fatfs_show_details                                ../src/fat_io_lib/fat_access.o
fatfs_split_path                                  ../src/fat_io_lib/fat_string.o
                                                  ../src/fat_io_lib/fat_filelib.o
fatfs_string_ends_with_slash                      ../src/fat_io_lib/fat_string.o
fatfs_total_path_levels                           ../src/fat_io_lib/fat_string.o
                                                  ../src/fat_io_lib/fat_filelib.o
fatfs_update_file_length                          ../src/fat_io_lib/fat_access.o
                                                  ../src/fat_io_lib/fat_filelib.o
fatfs_write_sector                                ../src/fat_io_lib/fat_access.o
                                                  ../src/fat_io_lib/fat_write.o
                                                  ../src/fat_io_lib/fat_filelib.o
fclose                                            /home/emb/avr32-gnu-toolchain/bin/../lib/gcc/avr32/4.4.3/../../../../avr32/lib/ucr2/libc.a(lib_a-fclose.o)
                                                  /home/emb/avr32-gnu-toolchain/bin/../lib/gcc/avr32/4.4.3/../../../../avr32/lib/ucr2/libc.a(lib_a-findfp.o)
fflush                                            /home/emb/avr32-gnu-toolchain/bin/../lib/gcc/avr32/4.4.3/../../../../avr32/lib/ucr2/libc.a(lib_a-fflush.o)
files_get_dsp_count                               ../src/files.o
                                                  ../apps/bees/src/redraw.o
                                                  ../apps/bees/src/key_handler.o
files_get_dsp_name                                ../src/files.o
                                                  ../apps/bees/src/redraw.o
files_get_scene_count                             ../src/files.o
                                                  ../apps/bees/src/redraw.o
                                                  ../apps/bees/src/key_handler.o
files_get_scene_name                              ../src/files.o
files_load_dsp                                    ../src/files.o
                                                  ../apps/bees/src/key_handler.o
files_load_dsp_name                               ../src/files.o
                                                  ../src/main.o
files_load_scene                                  ../src/files.o
                                                  ../apps/bees/src/key_handler.o
files_load_scene_name                             ../src/files.o
files_store_default_dsp                           ../src/files.o
files_store_default_scene                         ../src/files.o
files_store_scene                                 ../src/files.o
                                                  ../apps/bees/src/key_handler.o
files_store_scene_name                            ../src/files.o
fix16_add                                         ../../common/libfixmath/fix16.o
                                                  ../apps/bees/src/ops/op_sw.o
                                                  ../apps/bees/src/ops/op_mul.o
                                                  ../apps/bees/src/ops/op_gate.o
                                                  ../apps/bees/src/ops/op_enc.o
                                                  ../apps/bees/src/ops/op_add.o
                                                  ../apps/bees/src/net.o
fix16_div                                         ../../common/libfixmath/fix16.o
fix16_lerp16                                      ../../common/libfixmath/fix16.o
fix16_lerp32                                      ../../common/libfixmath/fix16.o
fix16_lerp8                                       ../../common/libfixmath/fix16.o
fix16_mul                                         ../../common/libfixmath/fix16.o
                                                  ../apps/bees/src/ops/op_mul.o
                                                  ../apps/bees/src/ops/op_enc.o
fix16_sadd                                        ../../common/libfixmath/fix16.o
fix16_sdiv                                        ../../common/libfixmath/fix16.o
fix16_smul                                        ../../common/libfixmath/fix16.o
fix16_ssub                                        ../../common/libfixmath/fix16.o
fix16_sub                                         ../../common/libfixmath/fix16.o
                                                  ../apps/bees/src/ops/op_enc.o
fl_attach_locks                                   ../src/fat_io_lib/fat_filelib.o
fl_attach_media                                   ../src/fat_io_lib/fat_filelib.o
                                                  ../src/filesystem.o
fl_closedir                                       ../src/fat_io_lib/fat_filelib.o
fl_createdirectory                                ../src/fat_io_lib/fat_filelib.o
fl_fclose                                         ../src/fat_io_lib/fat_filelib.o
                                                  ../src/files.o
fl_feof                                           ../src/fat_io_lib/fat_filelib.o
fl_fflush                                         ../src/fat_io_lib/fat_filelib.o
fl_fgetc                                          ../src/fat_io_lib/fat_filelib.o
                                                  ../src/files.o
fl_fgetpos                                        ../src/fat_io_lib/fat_filelib.o
fl_fgets                                          ../src/fat_io_lib/fat_filelib.o
fl_fopen                                          ../src/fat_io_lib/fat_filelib.o
                                                  ../src/files.o
fl_fputc                                          ../src/fat_io_lib/fat_filelib.o
fl_fputs                                          ../src/fat_io_lib/fat_filelib.o
fl_fread                                          ../src/fat_io_lib/fat_filelib.o
                                                  ../src/files.o
fl_fseek                                          ../src/fat_io_lib/fat_filelib.o
fl_ftell                                          ../src/fat_io_lib/fat_filelib.o
fl_fwrite                                         ../src/fat_io_lib/fat_filelib.o
fl_init                                           ../src/fat_io_lib/fat_filelib.o
                                                  ../src/filesystem.o
fl_is_dir                                         ../src/fat_io_lib/fat_filelib.o
fl_listdirectory                                  ../src/fat_io_lib/fat_filelib.o
fl_opendir                                        ../src/fat_io_lib/fat_filelib.o
                                                  ../src/files.o
fl_readdir                                        ../src/fat_io_lib/fat_filelib.o
                                                  ../src/files.o
fl_remove                                         ../src/fat_io_lib/fat_filelib.o
fl_shutdown                                       ../src/fat_io_lib/fat_filelib.o
flash_read_ldr                                    ../src/flash.o
flash_read_scene                                  ../src/flash.o
                                                  ../apps/bees/src/scene.o
flash_write_ldr                                   ../src/flash.o
                                                  ../src/files.o
flash_write_scene                                 ../src/flash.o
                                                  ../apps/bees/src/scene.o
flashc_activate_security_bit                      avr32/drivers/flashc/flashc.o
flashc_clear_page_buffer                          avr32/drivers/flashc/flashc.o
flashc_default_wait_until_ready                   avr32/drivers/flashc/flashc.o
flashc_enable_lock_error_int                      avr32/drivers/flashc/flashc.o
flashc_enable_prog_error_int                      avr32/drivers/flashc/flashc.o
flashc_enable_ready_int                           avr32/drivers/flashc/flashc.o
flashc_erase_all                                  avr32/drivers/flashc/flashc.o
flashc_erase_all_gp_fuses                         avr32/drivers/flashc/flashc.o
flashc_erase_all_pages                            avr32/drivers/flashc/flashc.o
flashc_erase_gp_fuse_bit                          avr32/drivers/flashc/flashc.o
flashc_erase_gp_fuse_bitfield                     avr32/drivers/flashc/flashc.o
flashc_erase_gp_fuse_byte                         avr32/drivers/flashc/flashc.o
flashc_erase_page                                 avr32/drivers/flashc/flashc.o
flashc_erase_user_page                            avr32/drivers/flashc/flashc.o
flashc_get_bootloader_protected_size              avr32/drivers/flashc/flashc.o
flashc_get_command                                avr32/drivers/flashc/flashc.o
flashc_get_flash_size                             avr32/drivers/flashc/flashc.o
flashc_get_page_count                             avr32/drivers/flashc/flashc.o
flashc_get_page_count_per_region                  avr32/drivers/flashc/flashc.o
flashc_get_page_number                            avr32/drivers/flashc/flashc.o
flashc_get_page_region                            avr32/drivers/flashc/flashc.o
flashc_get_region_first_page_number               avr32/drivers/flashc/flashc.o
flashc_get_wait_state                             avr32/drivers/flashc/flashc.o
flashc_is_external_privileged_fetch_locked        avr32/drivers/flashc/flashc.o
flashc_is_lock_error                              avr32/drivers/flashc/flashc.o
flashc_is_lock_error_int_enabled                  avr32/drivers/flashc/flashc.o
flashc_is_page_erased                             avr32/drivers/flashc/flashc.o
flashc_is_page_region_locked                      avr32/drivers/flashc/flashc.o
flashc_is_prog_error_int_enabled                  avr32/drivers/flashc/flashc.o
flashc_is_programming_error                       avr32/drivers/flashc/flashc.o
flashc_is_ready                                   avr32/drivers/flashc/flashc.o
flashc_is_ready_int_enabled                       avr32/drivers/flashc/flashc.o
flashc_is_region_locked                           avr32/drivers/flashc/flashc.o
flashc_is_security_bit_active                     avr32/drivers/flashc/flashc.o
flashc_issue_command                              avr32/drivers/flashc/flashc.o
flashc_lock_all_regions                           avr32/drivers/flashc/flashc.o
flashc_lock_external_privileged_fetch             avr32/drivers/flashc/flashc.o
flashc_lock_page_region                           avr32/drivers/flashc/flashc.o
flashc_lock_region                                avr32/drivers/flashc/flashc.o
flashc_memcpy                                     avr32/drivers/flashc/flashc.o
                                                  ../src/flash.o
flashc_memset16                                   avr32/drivers/flashc/flashc.o
flashc_memset32                                   avr32/drivers/flashc/flashc.o
                                                  ../src/flash.o
flashc_memset64                                   avr32/drivers/flashc/flashc.o
flashc_memset8                                    avr32/drivers/flashc/flashc.o
flashc_no_operation                               avr32/drivers/flashc/flashc.o
flashc_quick_page_read                            avr32/drivers/flashc/flashc.o
flashc_quick_user_page_read                       avr32/drivers/flashc/flashc.o
flashc_read_all_gp_fuses                          avr32/drivers/flashc/flashc.o
flashc_read_gp_fuse_bit                           avr32/drivers/flashc/flashc.o
flashc_read_gp_fuse_bitfield                      avr32/drivers/flashc/flashc.o
flashc_read_gp_fuse_byte                          avr32/drivers/flashc/flashc.o
flashc_set_all_gp_fuses                           avr32/drivers/flashc/flashc.o
flashc_set_bootloader_protected_size              avr32/drivers/flashc/flashc.o
flashc_set_bus_freq                               avr32/drivers/flashc/flashc.o
                                                  ../src/main.o
                                                  common/services/clock/uc3a0_a1/sysclk.o
flashc_set_gp_fuse_bit                            avr32/drivers/flashc/flashc.o
flashc_set_gp_fuse_bitfield                       avr32/drivers/flashc/flashc.o
flashc_set_gp_fuse_byte                           avr32/drivers/flashc/flashc.o
flashc_set_wait_state                             avr32/drivers/flashc/flashc.o
                                                  ../src/main.o
                                                  avr32/drivers/pm/pm_conf_clocks.o
flashc_wait_until_ready                           avr32/drivers/flashc/flashc.o
flashc_write_all_gp_fuses                         avr32/drivers/flashc/flashc.o
flashc_write_gp_fuse_bit                          avr32/drivers/flashc/flashc.o
flashc_write_gp_fuse_bitfield                     avr32/drivers/flashc/flashc.o
flashc_write_gp_fuse_byte                         avr32/drivers/flashc/flashc.o
flashc_write_page                                 avr32/drivers/flashc/flashc.o
flashc_write_user_page                            avr32/drivers/flashc/flashc.o
font_data                                         ../src/font.o
                                                  ../src/screen.o
font_nglyphs                                      ../src/font.o
free                                              /home/emb/avr32-gnu-toolchain/bin/../lib/gcc/avr32/4.4.3/../../../../avr32/lib/ucr2/libc.a(lib_a-malloc.o)
                                                  ../src/usb/gamepad/uhi_hid_gamepad.o
                                                  ../src/usb/mouse/uhi_hid_mouse.o
                                                  common/services/usb/uhc/uhc.o
                                                  avr32/drivers/usbb/usbb_host.o
fsEndTransfer                                     ../src/interrupts.o
                                                  ../src/filesystem.o
fwBinData                                         ../src/flash.o
fwBinSize                                         ../src/flash.o
gathered                                          ../apps/bees/src/menu.o
                                                  ../apps/bees/src/key_handler.o
getBaudDiv                                        avr32/drivers/spi/spi.o
get_cur_lun                                       common/services/storage/ctrl_access/ctrl_access.o
get_nb_lun                                        common/services/storage/ctrl_access/ctrl_access.o
get_next_event                                    ../src/events.o
                                                  ../src/main.o
get_param_name                                    ../apps/bees/src/param.o
                                                  ../apps/bees/src/play.o
get_param_preset                                  ../apps/bees/src/param.o
                                                  ../apps/bees/src/preset.o
get_param_value                                   ../apps/bees/src/param.o
                                                  ../apps/bees/src/preset.o
                                                  ../apps/bees/src/play.o
                                                  ../apps/bees/src/net.o
gpio_clear_pin_interrupt_flag                     avr32/drivers/gpio/gpio.o
                                                  ../src/interrupts.o
gpio_clr_gpio_open_drain_pin                      avr32/drivers/gpio/gpio.o
gpio_clr_gpio_pin                                 avr32/drivers/gpio/gpio.o
                                                  ../src/main.o
                                                  ../src/screen.o
                                                  ../src/bfin.o
gpio_configure_group                              avr32/drivers/gpio/gpio.o
gpio_configure_pin                                avr32/drivers/gpio/gpio.o
gpio_disable_pin_glitch_filter                    avr32/drivers/gpio/gpio.o
gpio_disable_pin_interrupt                        avr32/drivers/gpio/gpio.o
gpio_disable_pin_pull_up                          avr32/drivers/gpio/gpio.o
gpio_enable_gpio                                  avr32/drivers/gpio/gpio.o
gpio_enable_gpio_pin                              avr32/drivers/gpio/gpio.o
gpio_enable_module                                avr32/drivers/gpio/gpio.o
                                                  ../src/init.o
                                                  avr32/utils/debug/print_funcs.o
                                                  avr32/drivers/ebi/smc/smc.o
gpio_enable_module_pin                            avr32/drivers/gpio/gpio.o
gpio_enable_pin_glitch_filter                     avr32/drivers/gpio/gpio.o
                                                  ../src/init.o
gpio_enable_pin_interrupt                         avr32/drivers/gpio/gpio.o
                                                  ../src/interrupts.o
gpio_enable_pin_pull_up                           avr32/drivers/gpio/gpio.o
                                                  ../src/init.o
gpio_get_gpio_open_drain_pin_output_value         avr32/drivers/gpio/gpio.o
gpio_get_gpio_pin_output_value                    avr32/drivers/gpio/gpio.o
gpio_get_pin_interrupt_flag                       avr32/drivers/gpio/gpio.o
                                                  ../src/interrupts.o
gpio_get_pin_value                                avr32/drivers/gpio/gpio.o
                                                  ../src/switches.o
                                                  ../src/encoders.o
                                                  ../src/bfin.o
gpio_set_gpio_open_drain_pin                      avr32/drivers/gpio/gpio.o
gpio_set_gpio_pin                                 avr32/drivers/gpio/gpio.o
                                                  ../src/main.o
                                                  ../src/screen.o
                                                  ../src/bfin.o
gpio_set_group_high                               avr32/drivers/gpio/gpio.o
gpio_set_group_low                                avr32/drivers/gpio/gpio.o
gpio_set_pin_high                                 avr32/drivers/gpio/gpio.o
gpio_set_pin_low                                  avr32/drivers/gpio/gpio.o
gpio_tgl_gpio_open_drain_pin                      avr32/drivers/gpio/gpio.o
gpio_tgl_gpio_pin                                 avr32/drivers/gpio/gpio.o
gpio_toggle_group                                 avr32/drivers/gpio/gpio.o
gpio_toggle_pin                                   avr32/drivers/gpio/gpio.o
hid_mouse_btn_left                                ../src/usb/mouse/hid_mouse.o
                                                  ../src/usb/mouse/uhi_hid_mouse.o
hid_mouse_btn_middle                              ../src/usb/mouse/hid_mouse.o
                                                  ../src/usb/mouse/uhi_hid_mouse.o
hid_mouse_btn_right                               ../src/usb/mouse/hid_mouse.o
                                                  ../src/usb/mouse/uhi_hid_mouse.o
hid_mouse_move                                    ../src/usb/mouse/hid_mouse.o
                                                  ../src/usb/mouse/uhi_hid_mouse.o
init_adc                                          ../src/adc.o
                                                  ../src/main.o
init_app_timers                                   ../src/app_timers.o
                                                  ../src/main.o
init_bfin_resources                               ../src/init.o
                                                  ../src/main.o
init_dbg_rs232                                    avr32/utils/debug/print_funcs.o
init_dbg_rs232_ex                                 avr32/utils/debug/print_funcs.o
init_encoders                                     ../src/encoders.o
                                                  ../src/main.o
init_events                                       ../src/events.o
                                                  ../src/main.o
init_files                                        ../src/files.o
                                                  ../src/main.o
init_flash                                        ../src/flash.o
                                                  ../src/main.o
init_ftdi_usart                                   ../src/init.o
                                                  ../src/main.o
init_gpio                                         ../src/init.o
                                                  ../src/main.o
init_local_pdca                                   ../src/init.o
                                                  ../src/main.o
init_mem                                          ../src/memory.o
                                                  ../src/main.o
init_oled                                         ../src/screen.o
                                                  ../src/main.o
init_spi1                                         ../src/init.o
                                                  ../src/main.o
init_tc                                           ../src/init.o
                                                  ../src/main.o
init_timers                                       ../src/timers.o
init_twi                                          ../src/init.o
init_usb_host                                     ../src/init.o
                                                  ../src/main.o
is_sd_mmc_spi_write_pwd_locked                    avr32/components/memory/sd_mmc/sd_mmc_spi/sd_mmc_spi.o
isatty                                            /home/emb/avr32-gnu-toolchain/bin/../lib/gcc/avr32/4.4.3/../../../../avr32/lib/ucr2/libc.a(lib_a-syscalls.o)
itoa_fract                                        ../../common/fix.o
itoa_whole                                        ../../common/fix.o
                                                  ../apps/bees/src/play.o
                                                  ../src/screen.o
itoa_whole_lj                                     ../../common/fix.o
                                                  ../apps/bees/src/redraw.o
key_handler_dsp                                   ../apps/bees/src/key_handler.o
                                                  ../apps/bees/src/menu.o
key_handler_gathered                              ../apps/bees/src/key_handler.o
                                                  ../apps/bees/src/menu.o
key_handler_ins                                   ../apps/bees/src/key_handler.o
                                                  ../apps/bees/src/menu.o
key_handler_ops                                   ../apps/bees/src/key_handler.o
                                                  ../apps/bees/src/menu.o
key_handler_outs                                  ../apps/bees/src/key_handler.o
                                                  ../apps/bees/src/menu.o
key_handler_play                                  ../apps/bees/src/key_handler.o
                                                  ../apps/bees/src/menu.o
key_handler_presets                               ../apps/bees/src/key_handler.o
                                                  ../apps/bees/src/menu.o
key_handler_scenes                                ../apps/bees/src/key_handler.o
                                                  ../apps/bees/src/menu.o
kill_timer                                        ../src/timers.o
lines                                             ../src/screen.o
list_get_name                                     ../src/files.o
main                                              ../src/main.o
                                                  avr32/utils/startup/startup_uc3.o
malloc                                            /home/emb/avr32-gnu-toolchain/bin/../lib/gcc/avr32/4.4.3/../../../../avr32/lib/ucr2/libc.a(lib_a-malloc.o)
                                                  ../src/usb/gamepad/uhi_hid_gamepad.o
                                                  ../src/usb/mouse/uhi_hid_mouse.o
                                                  common/services/usb/uhc/uhc.o
                                                  avr32/drivers/usbb/usbb_host.o
media_read                                        ../src/filesystem.o
media_write                                       ../src/filesystem.o
mem_name                                          common/services/storage/ctrl_access/ctrl_access.o
mem_read_capacity                                 common/services/storage/ctrl_access/ctrl_access.o
mem_removal                                       common/services/storage/ctrl_access/ctrl_access.o
mem_sector_size                                   common/services/storage/ctrl_access/ctrl_access.o
mem_test_unit_ready                               common/services/storage/ctrl_access/ctrl_access.o
mem_unload                                        common/services/storage/ctrl_access/ctrl_access.o
mem_wr_protect                                    common/services/storage/ctrl_access/ctrl_access.o
memcpy                                            /home/emb/avr32-gnu-toolchain/bin/../lib/gcc/avr32/4.4.3/../../../../avr32/lib/ucr2/libc.a(lib_a-memcpy.o)
                                                  ../apps/bees/src/scene.o
                                                  ../apps/bees/src/play.o
                                                  ../apps/bees/src/net.o
                                                  ../src/fat_io_lib/fat_write.o
                                                  ../src/fat_io_lib/fat_string.o
                                                  ../src/fat_io_lib/fat_misc.o
                                                  ../src/fat_io_lib/fat_filelib.o
                                                  ../src/fat_io_lib/fat_access.o
                                                  ../src/flash.o
                                                  avr32/drivers/usbb/usbb_host.o
memory_2_ram                                      common/services/storage/ctrl_access/ctrl_access.o
memset                                            /home/emb/avr32-gnu-toolchain/bin/../lib/gcc/avr32/4.4.3/../../../../avr32/lib/ucr2/libc.a(lib_a-memset.o)
                                                  /home/emb/avr32-gnu-toolchain/bin/../lib/gcc/avr32/4.4.3/../../../../avr32/lib/ucr2/libc.a(lib_a-findfp.o)
                                                  ../src/fat_io_lib/fat_write.o
                                                  ../src/fat_io_lib/fat_table.o
                                                  ../src/fat_io_lib/fat_misc.o
                                                  ../src/fat_io_lib/fat_format.o
                                                  ../src/fat_io_lib/fat_filelib.o
menu_deinit                                       ../apps/bees/src/menu.o
menu_handleKey                                    ../apps/bees/src/menu.o
                                                  ../src/main.o
menu_init                                         ../apps/bees/src/menu.o
                                                  ../src/main.o
menu_refresh                                      ../apps/bees/src/menu.o
net                                               ../apps/bees/src/scene.o
                                                  ../apps/bees/src/param.o
                                                  ../apps/bees/src/net.o
net_activate                                      ../apps/bees/src/net.o
                                                  ../apps/bees/src/ops/op_sw.o
                                                  ../apps/bees/src/ops/op_mul.o
                                                  ../apps/bees/src/ops/op_gate.o
                                                  ../apps/bees/src/ops/op_enc.o
                                                  ../apps/bees/src/ops/op_add.o
                                                  ../apps/bees/src/key_handler.o
net_add_op                                        ../apps/bees/src/net.o
                                                  ../apps/bees/src/key_handler.o
net_add_param                                     ../apps/bees/src/net.o
                                                  ../src/bfin.o
net_clear_params                                  ../apps/bees/src/net.o
                                                  ../src/bfin.o
net_connect                                       ../apps/bees/src/net.o
                                                  ../apps/bees/src/preset.o
                                                  ../apps/bees/src/key_handler.o
net_deinit                                        ../apps/bees/src/net.o
net_disconnect                                    ../apps/bees/src/net.o
                                                  ../apps/bees/src/key_handler.o
net_gather                                        ../apps/bees/src/net.o
                                                  ../apps/bees/src/key_handler.o
net_get_in_preset                                 ../apps/bees/src/net.o
                                                  ../apps/bees/src/preset.o
net_get_in_value                                  ../apps/bees/src/net.o
                                                  ../apps/bees/src/redraw.o
                                                  ../apps/bees/src/preset.o
net_get_out_preset                                ../apps/bees/src/net.o
                                                  ../apps/bees/src/preset.o
net_get_target                                    ../apps/bees/src/net.o
                                                  ../apps/bees/src/redraw.o
                                                  ../apps/bees/src/preset.o
                                                  ../apps/bees/src/key_handler.o
net_in_connected                                  ../apps/bees/src/net.o
net_in_name                                       ../apps/bees/src/net.o
                                                  ../apps/bees/src/redraw.o
net_in_op_idx                                     ../apps/bees/src/net.o
                                                  ../apps/bees/src/redraw.o
net_inc_in_value                                  ../apps/bees/src/net.o
                                                  ../apps/bees/src/key_handler.o
net_init                                          ../apps/bees/src/net.o
                                                  ../src/main.o
net_init_inode                                    ../apps/bees/src/net.o
net_init_onode                                    ../apps/bees/src/net.o
net_num_ins                                       ../apps/bees/src/net.o
                                                  ../apps/bees/src/redraw.o
                                                  ../apps/bees/src/key_handler.o
net_num_ops                                       ../apps/bees/src/net.o
                                                  ../apps/bees/src/redraw.o
                                                  ../apps/bees/src/key_handler.o
net_num_outs                                      ../apps/bees/src/net.o
                                                  ../apps/bees/src/redraw.o
                                                  ../apps/bees/src/key_handler.o
net_num_params                                    ../apps/bees/src/net.o
net_op_in_idx                                     ../apps/bees/src/net.o
                                                  ../apps/bees/src/key_handler.o
net_op_name                                       ../apps/bees/src/net.o
                                                  ../apps/bees/src/redraw.o
net_op_out_idx                                    ../apps/bees/src/net.o
                                                  ../apps/bees/src/key_handler.o
net_op_status                                     ../apps/bees/src/net.o
                                                  ../apps/bees/src/redraw.o
                                                  ../apps/bees/src/key_handler.o
net_out_name                                      ../apps/bees/src/net.o
                                                  ../apps/bees/src/redraw.o
net_out_op_idx                                    ../apps/bees/src/net.o
                                                  ../apps/bees/src/redraw.o
net_param_idx                                     ../apps/bees/src/net.o
                                                  ../apps/bees/src/redraw.o
net_pop_op                                        ../apps/bees/src/net.o
                                                  ../apps/bees/src/key_handler.o
net_remove_op                                     ../apps/bees/src/net.o
net_send_params                                   ../apps/bees/src/net.o
net_set_in_preset                                 ../apps/bees/src/net.o
net_set_in_value                                  ../apps/bees/src/net.o
                                                  ../apps/bees/src/preset.o
net_set_out_preset                                ../apps/bees/src/net.o
net_toggle_in_preset                              ../apps/bees/src/net.o
                                                  ../apps/bees/src/key_handler.o
net_toggle_out_preset                             ../apps/bees/src/net.o
newOpType                                         ../apps/bees/src/redraw.o
                                                  ../apps/bees/src/menu.o
                                                  ../apps/bees/src/key_handler.o
numGathered                                       ../apps/bees/src/menu.o
                                                  ../apps/bees/src/key_handler.o
op_add_init                                       ../apps/bees/src/ops/op_add.o
                                                  ../apps/bees/src/op.o
                                                  ../apps/bees/src/net.o
op_enc_init                                       ../apps/bees/src/ops/op_enc.o
                                                  ../apps/bees/src/op.o
                                                  ../apps/bees/src/net.o
op_gate_init                                      ../apps/bees/src/ops/op_gate.o
                                                  ../apps/bees/src/op.o
                                                  ../apps/bees/src/net.o
op_get_in_val                                     ../apps/bees/src/op.o
                                                  ../apps/bees/src/net.o
op_in_name                                        ../apps/bees/src/op.o
                                                  ../apps/bees/src/net.o
op_init                                           ../apps/bees/src/op.o
op_mul_init                                       ../apps/bees/src/ops/op_mul.o
                                                  ../apps/bees/src/op.o
                                                  ../apps/bees/src/net.o
op_out_name                                       ../apps/bees/src/op.o
                                                  ../apps/bees/src/net.o
op_registry                                       ../apps/bees/src/op.o
                                                  ../apps/bees/src/redraw.o
                                                  ../apps/bees/src/net.o
op_set_in_val                                     ../apps/bees/src/op.o
                                                  ../apps/bees/src/net.o
op_sw_init                                        ../apps/bees/src/ops/op_sw.o
                                                  ../apps/bees/src/op.o
                                                  ../apps/bees/src/net.o
otg_dual_disable                                  avr32/drivers/usbb/usbb_host.o
otg_dual_enable                                   avr32/drivers/usbb/usbb_host.o
pageIdx                                           ../apps/bees/src/menu.o
pages                                             ../apps/bees/src/menu.o
                                                  ../apps/bees/src/key_handler.o
pcl_configure_clocks                              avr32/drivers/pm/power_clocks_lib.o
pcl_configure_usb_clock                           avr32/drivers/pm/power_clocks_lib.o
pcl_read_gplp                                     avr32/drivers/pm/power_clocks_lib.o
pcl_switch_to_osc                                 avr32/drivers/pm/power_clocks_lib.o
pcl_write_gplp                                    avr32/drivers/pm/power_clocks_lib.o
pdcaRxBuf                                         ../src/init.o
                                                  ../src/filesystem.o
pdcaRxChan                                        ../src/filesystem.o
pdcaTxBuf                                         ../src/init.o
                                                  ../src/filesystem.o
pdcaTxChan                                        ../src/filesystem.o
pdca_disable                                      avr32/drivers/pdca/pdca.o
                                                  ../src/interrupts.o
pdca_disable_interrupt_reload_counter_zero        avr32/drivers/pdca/pdca.o
pdca_disable_interrupt_transfer_complete          avr32/drivers/pdca/pdca.o
                                                  ../src/interrupts.o
pdca_disable_interrupt_transfer_error             avr32/drivers/pdca/pdca.o
pdca_enable                                       avr32/drivers/pdca/pdca.o
pdca_enable_interrupt_reload_counter_zero         avr32/drivers/pdca/pdca.o
pdca_enable_interrupt_transfer_complete           avr32/drivers/pdca/pdca.o
                                                  ../src/filesystem.o
pdca_enable_interrupt_transfer_error              avr32/drivers/pdca/pdca.o
pdca_get_channel_status                           avr32/drivers/pdca/pdca.o
pdca_get_handler                                  avr32/drivers/pdca/pdca.o
                                                  ../src/filesystem.o
pdca_get_load_size                                avr32/drivers/pdca/pdca.o
pdca_get_reload_size                              avr32/drivers/pdca/pdca.o
pdca_get_transfer_status                          avr32/drivers/pdca/pdca.o
pdca_init_channel                                 avr32/drivers/pdca/pdca.o
                                                  ../src/init.o
pdca_load_channel                                 avr32/drivers/pdca/pdca.o
                                                  ../src/filesystem.o
pdca_reload_channel                               avr32/drivers/pdca/pdca.o
pdca_set_peripheral_select                        avr32/drivers/pdca/pdca.o
pdca_set_transfer_size                            avr32/drivers/pdca/pdca.o
play_get_entry                                    ../apps/bees/src/play.o
                                                  ../apps/bees/src/redraw.o
play_init                                         ../apps/bees/src/play.o
play_param                                        ../apps/bees/src/play.o
                                                  ../apps/bees/src/op.o
pm_bod_clear_irq                                  avr32/drivers/pm/pm.o
pm_bod_disable_irq                                avr32/drivers/pm/pm.o
pm_bod_enable_irq                                 avr32/drivers/pm/pm.o
pm_bod_get_irq_enable_bit                         avr32/drivers/pm/pm.o
pm_bod_get_irq_status                             avr32/drivers/pm/pm.o
pm_bod_get_level                                  avr32/drivers/pm/pm.o
pm_cksel                                          avr32/drivers/pm/pm.o
                                                  avr32/drivers/pm/pm_conf_clocks.o
pm_cksel_get                                      avr32/drivers/pm/pm.o
pm_cksel_set                                      avr32/drivers/pm/pm.o
pm_configure_clocks                               avr32/drivers/pm/pm_conf_clocks.o
                                                  avr32/drivers/pm/power_clocks_lib.o
pm_configure_usb_clock                            avr32/drivers/pm/pm_conf_clocks.o
                                                  avr32/drivers/pm/power_clocks_lib.o
pm_disable_clk0                                   avr32/drivers/pm/pm.o
pm_disable_clk1                                   avr32/drivers/pm/pm.o
pm_disable_clk32                                  avr32/drivers/pm/pm.o
pm_disable_module                                 avr32/drivers/pm/pm.o
pm_enable_clk0                                    avr32/drivers/pm/pm.o
pm_enable_clk0_no_wait                            avr32/drivers/pm/pm.o
pm_enable_clk1                                    avr32/drivers/pm/pm.o
pm_enable_clk1_no_wait                            avr32/drivers/pm/pm.o
pm_enable_clk32                                   avr32/drivers/pm/pm.o
pm_enable_clk32_no_wait                           avr32/drivers/pm/pm.o
pm_enable_module                                  avr32/drivers/pm/pm.o
pm_enable_osc0_crystal                            avr32/drivers/pm/pm.o
pm_enable_osc0_ext_clock                          avr32/drivers/pm/pm.o
pm_enable_osc1_crystal                            avr32/drivers/pm/pm.o
pm_enable_osc1_ext_clock                          avr32/drivers/pm/pm.o
pm_enable_osc32_crystal                           avr32/drivers/pm/pm.o
pm_enable_osc32_ext_clock                         avr32/drivers/pm/pm.o
pm_gc_disable                                     avr32/drivers/pm/pm.o
pm_gc_enable                                      avr32/drivers/pm/pm.o
                                                  avr32/drivers/pm/pm_conf_clocks.o
pm_gc_setup                                       avr32/drivers/pm/pm.o
                                                  avr32/drivers/pm/pm_conf_clocks.o
pm_get_clock                                      avr32/drivers/pm/pm.o
pm_pll_disable                                    avr32/drivers/pm/pm.o
pm_pll_enable                                     avr32/drivers/pm/pm.o
                                                  avr32/drivers/pm/pm_conf_clocks.o
pm_pll_get_option                                 avr32/drivers/pm/pm.o
pm_pll_set_option                                 avr32/drivers/pm/pm.o
                                                  avr32/drivers/pm/pm_conf_clocks.o
pm_pll_setup                                      avr32/drivers/pm/pm.o
                                                  avr32/drivers/pm/pm_conf_clocks.o
pm_read_gplp                                      avr32/drivers/pm/pm.o
                                                  avr32/drivers/pm/power_clocks_lib.o
pm_switch_to_clock                                avr32/drivers/pm/pm.o
                                                  avr32/drivers/pm/pm_conf_clocks.o
pm_switch_to_osc0                                 avr32/drivers/pm/pm.o
                                                  avr32/drivers/pm/power_clocks_lib.o
                                                  avr32/drivers/pm/pm_conf_clocks.o
pm_wait_for_clk0_ready                            avr32/drivers/pm/pm.o
pm_wait_for_clk1_ready                            avr32/drivers/pm/pm.o
pm_wait_for_clk32_ready                           avr32/drivers/pm/pm.o
pm_wait_for_pll0_locked                           avr32/drivers/pm/pm.o
                                                  avr32/drivers/pm/pm_conf_clocks.o
pm_wait_for_pll1_locked                           avr32/drivers/pm/pm.o
                                                  avr32/drivers/pm/pm_conf_clocks.o
pm_write_gplp                                     avr32/drivers/pm/pm.o
                                                  avr32/drivers/pm/power_clocks_lib.o
post_event                                        ../src/events.o
                                                  ../src/switches.o
                                                  ../src/app_timers.o
                                                  ../src/adc.o
preset_deinit                                     ../apps/bees/src/preset.o
preset_init                                       ../apps/bees/src/preset.o
                                                  ../src/main.o
preset_name                                       ../apps/bees/src/preset.o
                                                  ../apps/bees/src/redraw.o
preset_recall                                     ../apps/bees/src/preset.o
                                                  ../apps/bees/src/key_handler.o
preset_store                                      ../apps/bees/src/preset.o
                                                  ../apps/bees/src/key_handler.o
preset_store_in                                   ../apps/bees/src/preset.o
preset_store_out                                  ../apps/bees/src/preset.o
presets                                           ../apps/bees/src/scene.o
                                                  ../apps/bees/src/preset.o
print                                             avr32/utils/debug/print_funcs.o
print_char                                        avr32/utils/debug/print_funcs.o
print_char_hex                                    avr32/utils/debug/print_funcs.o
print_dbg                                         avr32/utils/debug/print_funcs.o
                                                  ../apps/bees/src/scene.o
                                                  ../apps/bees/src/net.o
                                                  ../apps/bees/src/menu.o
                                                  ../apps/bees/src/key_handler.o
                                                  ../src/fat_io_lib/fat_filelib.o
                                                  ../src/usb/gamepad/uhi_hid_gamepad.o
                                                  ../src/usb/mouse/hid_mouse.o
                                                  ../src/main.o
                                                  ../src/switches.o
                                                  ../src/memory.o
                                                  ../src/flash.o
                                                  ../src/filesystem.o
                                                  ../src/files.o
                                                  ../src/events.o
                                                  ../src/bfin.o
                                                  ../src/app_timers.o
                                                  common/services/usb/uhc/uhc.o
print_dbg_char                                    avr32/utils/debug/print_funcs.o
print_dbg_char_hex                                avr32/utils/debug/print_funcs.o
print_dbg_hex                                     avr32/utils/debug/print_funcs.o
                                                  ../apps/bees/src/net.o
                                                  ../apps/bees/src/menu.o
                                                  ../apps/bees/src/key_handler.o
                                                  ../src/fat_io_lib/fat_filelib.o
                                                  ../src/usb/gamepad/uhi_hid_gamepad.o
                                                  ../src/usb/mouse/hid_mouse.o
                                                  ../src/memory.o
                                                  ../src/flash.o
                                                  ../src/filesystem.o
                                                  ../src/files.o
                                                  ../src/bfin.o
                                                  common/services/usb/uhc/uhc.o
print_dbg_short_hex                               avr32/utils/debug/print_funcs.o
print_dbg_ulong                                   avr32/utils/debug/print_funcs.o
                                                  ../src/usb/mouse/hid_mouse.o
                                                  ../src/switches.o
                                                  ../src/filesystem.o
                                                  ../src/bfin.o
                                                  ../src/app_timers.o
print_fix16                                       ../../common/fix.o
                                                  ../apps/bees/src/redraw.o
                                                  ../apps/bees/src/play.o
                                                  ../src/screen.o
print_hex                                         avr32/utils/debug/print_funcs.o
print_short_hex                                   avr32/utils/debug/print_funcs.o
print_ulong                                       avr32/utils/debug/print_funcs.o
process_enc                                       ../src/encoders.o
                                                  ../src/interrupts.o
process_sw                                        ../src/switches.o
                                                  ../src/interrupts.o
process_timers                                    ../src/timers.o
                                                  ../src/interrupts.o
r1                                                avr32/components/memory/sd_mmc/sd_mmc_spi/sd_mmc_spi.o
r2                                                avr32/components/memory/sd_mmc/sd_mmc_spi/sd_mmc_spi.o
ram_2_memory                                      common/services/storage/ctrl_access/ctrl_access.o
redraw_dsp                                        ../apps/bees/src/redraw.o
                                                  ../apps/bees/src/menu.o
redraw_gathered                                   ../apps/bees/src/redraw.o
                                                  ../apps/bees/src/menu.o
redraw_ins                                        ../apps/bees/src/redraw.o
                                                  ../apps/bees/src/menu.o
redraw_ops                                        ../apps/bees/src/redraw.o
                                                  ../apps/bees/src/menu.o
                                                  ../apps/bees/src/key_handler.o
redraw_outs                                       ../apps/bees/src/redraw.o
                                                  ../apps/bees/src/menu.o
redraw_play                                       ../apps/bees/src/redraw.o
                                                  ../apps/bees/src/menu.o
                                                  ../apps/bees/src/key_handler.o
redraw_presets                                    ../apps/bees/src/redraw.o
                                                  ../apps/bees/src/menu.o
redraw_scenes                                     ../apps/bees/src/redraw.o
                                                  ../apps/bees/src/menu.o
refresh                                           ../src/interrupts.o
                                                  ../src/screen.o
                                                  ../src/app_timers.o
register_interrupts                               ../src/interrupts.o
                                                  ../src/main.o
sceneData                                         ../apps/bees/src/scene.o
scene_deinit                                      ../apps/bees/src/scene.o
scene_init                                        ../apps/bees/src/scene.o
                                                  ../src/main.o
scene_read_buf                                    ../apps/bees/src/scene.o
scene_read_default                                ../apps/bees/src/scene.o
                                                  ../src/main.o
scene_write_buf                                   ../apps/bees/src/scene.o
scene_write_default                               ../apps/bees/src/scene.o
                                                  ../apps/bees/src/key_handler.o
screen_blank_line                                 ../src/screen.o
                                                  ../apps/bees/src/redraw.o
                                                  ../src/main.o
screen_char_fixed                                 ../src/screen.o
screen_char_squeeze                               ../src/screen.o
screen_clear                                      ../src/screen.o
                                                  ../src/main.o
screen_fix                                        ../src/screen.o
screen_get_pixel                                  ../src/screen.o
screen_hl_line                                    ../src/screen.o
                                                  ../apps/bees/src/redraw.o
screen_int                                        ../src/screen.o
screen_line                                       ../src/screen.o
                                                  ../apps/bees/src/redraw.o
                                                  ../src/main.o
screen_pixel                                      ../src/screen.o
screen_refresh                                    ../src/screen.o
                                                  ../src/main.o
screen_string                                     ../src/screen.o
                                                  ../apps/bees/src/redraw.o
screen_string_fixed                               ../src/screen.o
screen_string_squeeze                             ../src/screen.o
scroll_page                                       ../apps/bees/src/menu.o
                                                  ../apps/bees/src/key_handler.o
scroll_select                                     ../apps/bees/src/menu.o
                                                  ../apps/bees/src/key_handler.o
scroll_select_clip                                ../apps/bees/src/menu.o
                                                  ../apps/bees/src/key_handler.o
scroll_select_wrap                                ../apps/bees/src/menu.o
sd_mmc_spi_check_hc                               avr32/components/memory/sd_mmc/sd_mmc_spi/sd_mmc_spi.o
sd_mmc_spi_check_presence                         avr32/components/memory/sd_mmc/sd_mmc_spi/sd_mmc_spi.o
                                                  avr32/components/memory/sd_mmc/sd_mmc_spi/sd_mmc_spi_mem.o
sd_mmc_spi_command                                avr32/components/memory/sd_mmc/sd_mmc_spi/sd_mmc_spi.o
sd_mmc_spi_erase_sector_group                     avr32/components/memory/sd_mmc/sd_mmc_spi/sd_mmc_spi.o
sd_mmc_spi_get_capacity                           avr32/components/memory/sd_mmc/sd_mmc_spi/sd_mmc_spi.o
sd_mmc_spi_get_cid                                avr32/components/memory/sd_mmc/sd_mmc_spi/sd_mmc_spi.o
sd_mmc_spi_get_csd                                avr32/components/memory/sd_mmc/sd_mmc_spi/sd_mmc_spi.o
sd_mmc_spi_get_if                                 avr32/components/memory/sd_mmc/sd_mmc_spi/sd_mmc_spi.o
sd_mmc_spi_get_status                             avr32/components/memory/sd_mmc/sd_mmc_spi/sd_mmc_spi.o
sd_mmc_spi_init                                   avr32/components/memory/sd_mmc/sd_mmc_spi/sd_mmc_spi.o
                                                  ../src/init.o
sd_mmc_spi_init_done                              avr32/components/memory/sd_mmc/sd_mmc_spi/sd_mmc_spi.o
                                                  avr32/components/memory/sd_mmc/sd_mmc_spi/sd_mmc_spi_mem.o
sd_mmc_spi_internal_init                          avr32/components/memory/sd_mmc/sd_mmc_spi/sd_mmc_spi.o
                                                  avr32/components/memory/sd_mmc/sd_mmc_spi/sd_mmc_spi_mem.o
sd_mmc_spi_last_block_address                     avr32/components/memory/sd_mmc/sd_mmc_spi/sd_mmc_spi_mem.o
                                                  avr32/components/memory/sd_mmc/sd_mmc_spi/sd_mmc_spi.o
sd_mmc_spi_lock_operation                         avr32/components/memory/sd_mmc/sd_mmc_spi/sd_mmc_spi.o
sd_mmc_spi_mem_2_ram                              avr32/components/memory/sd_mmc/sd_mmc_spi/sd_mmc_spi_mem.o
                                                  common/services/storage/ctrl_access/ctrl_access.o
sd_mmc_spi_mem_check                              avr32/components/memory/sd_mmc/sd_mmc_spi/sd_mmc_spi.o
                                                  ../src/main.o
                                                  avr32/components/memory/sd_mmc/sd_mmc_spi/sd_mmc_spi_mem.o
sd_mmc_spi_mem_init                               avr32/components/memory/sd_mmc/sd_mmc_spi/sd_mmc_spi_mem.o
sd_mmc_spi_presence_status                        avr32/components/memory/sd_mmc/sd_mmc_spi/sd_mmc_spi_mem.o
sd_mmc_spi_ram_2_mem                              avr32/components/memory/sd_mmc/sd_mmc_spi/sd_mmc_spi_mem.o
                                                  common/services/storage/ctrl_access/ctrl_access.o
sd_mmc_spi_read_capacity                          avr32/components/memory/sd_mmc/sd_mmc_spi/sd_mmc_spi_mem.o
                                                  common/services/storage/ctrl_access/ctrl_access.o
sd_mmc_spi_read_close                             avr32/components/memory/sd_mmc/sd_mmc_spi/sd_mmc_spi.o
                                                  avr32/components/memory/sd_mmc/sd_mmc_spi/sd_mmc_spi_mem.o
sd_mmc_spi_read_close_PDCA                        avr32/components/memory/sd_mmc/sd_mmc_spi/sd_mmc_spi.o
                                                  ../src/interrupts.o
sd_mmc_spi_read_multiple_sector                   avr32/components/memory/sd_mmc/sd_mmc_spi/sd_mmc_spi.o
sd_mmc_spi_read_multiple_sector_callback          avr32/components/memory/sd_mmc/sd_mmc_spi/sd_mmc_spi.o
sd_mmc_spi_read_open                              avr32/components/memory/sd_mmc/sd_mmc_spi/sd_mmc_spi.o
                                                  avr32/components/memory/sd_mmc/sd_mmc_spi/sd_mmc_spi_mem.o
sd_mmc_spi_read_open_PDCA                         avr32/components/memory/sd_mmc/sd_mmc_spi/sd_mmc_spi.o
                                                  ../src/filesystem.o
sd_mmc_spi_read_sector_to_ram                     avr32/components/memory/sd_mmc/sd_mmc_spi/sd_mmc_spi.o
                                                  avr32/components/memory/sd_mmc/sd_mmc_spi/sd_mmc_spi_mem.o
sd_mmc_spi_removal                                avr32/components/memory/sd_mmc/sd_mmc_spi/sd_mmc_spi_mem.o
                                                  common/services/storage/ctrl_access/ctrl_access.o
sd_mmc_spi_send_and_read                          avr32/components/memory/sd_mmc/sd_mmc_spi/sd_mmc_spi.o
sd_mmc_spi_send_command                           avr32/components/memory/sd_mmc/sd_mmc_spi/sd_mmc_spi.o
sd_mmc_spi_test_unit_ready                        avr32/components/memory/sd_mmc/sd_mmc_spi/sd_mmc_spi_mem.o
                                                  common/services/storage/ctrl_access/ctrl_access.o
sd_mmc_spi_wait_not_busy                          avr32/components/memory/sd_mmc/sd_mmc_spi/sd_mmc_spi.o
sd_mmc_spi_wr_protect                             avr32/components/memory/sd_mmc/sd_mmc_spi/sd_mmc_spi_mem.o
                                                  common/services/storage/ctrl_access/ctrl_access.o
sd_mmc_spi_write_close                            avr32/components/memory/sd_mmc/sd_mmc_spi/sd_mmc_spi.o
                                                  ../src/filesystem.o
                                                  avr32/components/memory/sd_mmc/sd_mmc_spi/sd_mmc_spi_mem.o
sd_mmc_spi_write_multiple_sector                  avr32/components/memory/sd_mmc/sd_mmc_spi/sd_mmc_spi.o
sd_mmc_spi_write_multiple_sector_callback         avr32/components/memory/sd_mmc/sd_mmc_spi/sd_mmc_spi.o
sd_mmc_spi_write_open                             avr32/components/memory/sd_mmc/sd_mmc_spi/sd_mmc_spi.o
                                                  ../src/filesystem.o
                                                  avr32/components/memory/sd_mmc/sd_mmc_spi/sd_mmc_spi_mem.o
sd_mmc_spi_write_sector_from_ram                  avr32/components/memory/sd_mmc/sd_mmc_spi/sd_mmc_spi.o
                                                  ../src/filesystem.o
                                                  avr32/components/memory/sd_mmc/sd_mmc_spi/sd_mmc_spi_mem.o
set_enc_thresh                                    ../src/encoders.o
                                                  ../apps/bees/src/menu.o
set_page                                          ../apps/bees/src/menu.o
                                                  ../apps/bees/src/key_handler.o
set_param_value                                   ../apps/bees/src/param.o
                                                  ../apps/bees/src/preset.o
                                                  ../apps/bees/src/net.o
set_timer                                         ../src/timers.o
                                                  ../src/app_timers.o
sigfillset                                        /home/emb/avr32-gnu-toolchain/bin/../lib/gcc/avr32/4.4.3/../../../../avr32/lib/ucr2/libc.a(lib_a-syscalls.o)
sigprocmask                                       /home/emb/avr32-gnu-toolchain/bin/../lib/gcc/avr32/4.4.3/../../../../avr32/lib/ucr2/libc.a(lib_a-syscalls.o)
smc_get_cs_size                                   avr32/drivers/ebi/smc/smc.o
                                                  ../src/memory.o
smc_init                                          avr32/drivers/ebi/smc/smc.o
                                                  ../src/main.o
spi_disable                                       avr32/drivers/spi/spi.o
spi_enable                                        avr32/drivers/spi/spi.o
                                                  ../src/init.o
spi_getStatus                                     avr32/drivers/spi/spi.o
spi_initMaster                                    avr32/drivers/spi/spi.o
                                                  ../src/init.o
spi_initSlave                                     avr32/drivers/spi/spi.o
spi_initTest                                      avr32/drivers/spi/spi.o
spi_is_enabled                                    avr32/drivers/spi/spi.o
spi_read                                          avr32/drivers/spi/spi.o
                                                  ../src/bfin.o
                                                  ../src/adc.o
                                                  avr32/components/memory/sd_mmc/sd_mmc_spi/sd_mmc_spi.o
spi_readRegisterFullCheck                         avr32/drivers/spi/spi.o
spi_selectChip                                    avr32/drivers/spi/spi.o
                                                  ../src/screen.o
                                                  ../src/bfin.o
                                                  ../src/adc.o
                                                  avr32/components/memory/sd_mmc/sd_mmc_spi/sd_mmc_spi.o
spi_selectionMode                                 avr32/drivers/spi/spi.o
                                                  ../src/init.o
spi_setupChipReg                                  avr32/drivers/spi/spi.o
                                                  ../src/init.o
                                                  avr32/components/memory/sd_mmc/sd_mmc_spi/sd_mmc_spi.o
spi_unselectChip                                  avr32/drivers/spi/spi.o
                                                  ../src/screen.o
                                                  ../src/bfin.o
                                                  ../src/adc.o
                                                  avr32/components/memory/sd_mmc/sd_mmc_spi/sd_mmc_spi.o
spi_variableSlaveWrite                            avr32/drivers/spi/spi.o
spi_write                                         avr32/drivers/spi/spi.o
                                                  ../src/screen.o
                                                  ../src/filesystem.o
                                                  ../src/bfin.o
                                                  ../src/adc.o
                                                  avr32/components/memory/sd_mmc/sd_mmc_spi/sd_mmc_spi.o
spi_writeEndCheck                                 avr32/drivers/spi/spi.o
spi_writeRegisterEmptyCheck                       avr32/drivers/spi/spi.o
sram_test                                         ../src/memory.o
str_copy                                          ../src/simple_string.o
                                                  ../apps/bees/src/redraw.o
                                                  ../apps/bees/src/preset.o
strcmp                                            /home/emb/avr32-gnu-toolchain/bin/../lib/gcc/avr32/4.4.3/../../../../avr32/lib/ucr2/libc.a(lib_a-strcmp.o)
                                                  ../src/files.o
strcpy                                            /home/emb/avr32-gnu-toolchain/bin/../lib/gcc/avr32/4.4.3/../../../../avr32/lib/ucr2/libc.a(lib_a-strcpy.o)
                                                  ../src/files.o
stream_mem_to_mem                                 common/services/storage/ctrl_access/ctrl_access.o
stream_state                                      common/services/storage/ctrl_access/ctrl_access.o
stream_stop                                       common/services/storage/ctrl_access/ctrl_access.o
strlen                                            /home/emb/avr32-gnu-toolchain/bin/../lib/gcc/avr32/4.4.3/../../../../avr32/lib/ucr2/libc.a(lib_a-strlen.o)
                                                  ../src/fat_io_lib/fat_string.o
                                                  ../src/fat_io_lib/fat_misc.o
                                                  ../src/fat_io_lib/fat_format.o
                                                  ../src/fat_io_lib/fat_filelib.o
strncat                                           /home/emb/avr32-gnu-toolchain/bin/../lib/gcc/avr32/4.4.3/../../../../avr32/lib/ucr2/libc.a(lib_a-strncat.o)
                                                  ../src/files.o
strncmp                                           /home/emb/avr32-gnu-toolchain/bin/../lib/gcc/avr32/4.4.3/../../../../avr32/lib/ucr2/libc.a(lib_a-strncmp.o)
                                                  ../src/fat_io_lib/fat_access.o
strncpy                                           /home/emb/avr32-gnu-toolchain/bin/../lib/gcc/avr32/4.4.3/../../../../avr32/lib/ucr2/libc.a(lib_a-strncpy.o)
                                                  ../src/fat_io_lib/fat_access.o
sysclk_disable_pbb_module                         common/services/clock/uc3a0_a1/sysclk.o
sysclk_disable_usb                                common/services/clock/uc3a0_a1/sysclk.o
                                                  avr32/drivers/usbb/usbb_host.o
sysclk_enable_pbb_module                          common/services/clock/uc3a0_a1/sysclk.o
                                                  ../src/main.o
sysclk_enable_usb                                 common/services/clock/uc3a0_a1/sysclk.o
                                                  avr32/drivers/usbb/usbb_host.o
sysclk_init                                       common/services/clock/uc3a0_a1/sysclk.o
                                                  ../src/main.o
sysclk_priv_disable_module                        common/services/clock/uc3a0_a1/sysclk.o
sysclk_priv_enable_module                         common/services/clock/uc3a0_a1/sysclk.o
tcOverflow                                        ../src/interrupts.o
tcTicks                                           ../src/interrupts.o
tc_configure_interrupts                           avr32/drivers/tc/tc.o
                                                  ../src/init.o
tc_get_interrupt_settings                         avr32/drivers/tc/tc.o
tc_init_capture                                   avr32/drivers/tc/tc.o
tc_init_waveform                                  avr32/drivers/tc/tc.o
                                                  ../src/init.o
tc_read_ra                                        avr32/drivers/tc/tc.o
tc_read_rb                                        avr32/drivers/tc/tc.o
tc_read_rc                                        avr32/drivers/tc/tc.o
tc_read_sr                                        avr32/drivers/tc/tc.o
                                                  ../src/interrupts.o
tc_read_tc                                        avr32/drivers/tc/tc.o
tc_select_external_clock                          avr32/drivers/tc/tc.o
tc_software_trigger                               avr32/drivers/tc/tc.o
tc_start                                          avr32/drivers/tc/tc.o
                                                  ../src/init.o
tc_stop                                           avr32/drivers/tc/tc.o
tc_sync_start                                     avr32/drivers/tc/tc.o
tc_sync_trigger                                   avr32/drivers/tc/tc.o
tc_write_ra                                       avr32/drivers/tc/tc.o
tc_write_rb                                       avr32/drivers/tc/tc.o
tc_write_rc                                       avr32/drivers/tc/tc.o
                                                  ../src/init.o
uhc_dev_get_power                                 common/services/usb/uhc/uhc.o
uhc_dev_get_speed                                 common/services/usb/uhc/uhc.o
uhc_dev_get_string                                common/services/usb/uhc/uhc.o
uhc_dev_get_string_manufacturer                   common/services/usb/uhc/uhc.o
uhc_dev_get_string_product                        common/services/usb/uhc/uhc.o
uhc_dev_get_string_serial                         common/services/usb/uhc/uhc.o
uhc_dev_is_high_speed_support                     common/services/usb/uhc/uhc.o
uhc_get_device_number                             common/services/usb/uhc/uhc.o
uhc_is_suspend                                    common/services/usb/uhc/uhc.o
uhc_notify_connection                             common/services/usb/uhc/uhc.o
                                                  avr32/drivers/usbb/usbb_host.o
uhc_notify_resume                                 common/services/usb/uhc/uhc.o
                                                  avr32/drivers/usbb/usbb_host.o
uhc_notify_sof                                    common/services/usb/uhc/uhc.o
                                                  avr32/drivers/usbb/usbb_host.o
uhc_resume                                        common/services/usb/uhc/uhc.o
uhc_sof_timeout                                   common/services/usb/uhc/uhc.o
uhc_start                                         common/services/usb/uhc/uhc.o
                                                  ../src/init.o
                                                  avr32/drivers/usbb/usbb_host.o
uhc_stop                                          common/services/usb/uhc/uhc.o
                                                  avr32/drivers/usbb/usbb_host.o
uhc_suspend                                       common/services/usb/uhc/uhc.o
uhd_ctrl_nb_trans                                 avr32/drivers/usbb/usbb_host.o
uhd_ctrl_request_first                            avr32/drivers/usbb/usbb_host.o
uhd_ctrl_request_last                             avr32/drivers/usbb/usbb_host.o
uhd_ctrl_request_phase                            avr32/drivers/usbb/usbb_host.o
uhd_ctrl_request_timeout                          avr32/drivers/usbb/usbb_host.o
uhd_disable                                       avr32/drivers/usbb/usbb_host.o
                                                  common/services/usb/uhc/uhc.o
uhd_enable                                        avr32/drivers/usbb/usbb_host.o
                                                  common/services/usb/uhc/uhc.o
uhd_ep0_alloc                                     avr32/drivers/usbb/usbb_host.o
                                                  common/services/usb/uhc/uhc.o
uhd_ep_abort                                      avr32/drivers/usbb/usbb_host.o
uhd_ep_alloc                                      avr32/drivers/usbb/usbb_host.o
                                                  ../src/usb/gamepad/uhi_hid_gamepad.o
                                                  ../src/usb/mouse/uhi_hid_mouse.o
uhd_ep_free                                       avr32/drivers/usbb/usbb_host.o
                                                  common/services/usb/uhc/uhc.o
uhd_ep_run                                        avr32/drivers/usbb/usbb_host.o
                                                  ../src/usb/gamepad/uhi_hid_gamepad.o
                                                  ../src/usb/mouse/uhi_hid_mouse.o
uhd_get_frame_number                              avr32/drivers/usbb/usbb_host.o
uhd_get_microframe_number                         avr32/drivers/usbb/usbb_host.o
uhd_get_speed                                     avr32/drivers/usbb/usbb_host.o
                                                  common/services/usb/uhc/uhc.o
uhd_is_suspend                                    avr32/drivers/usbb/usbb_host.o
                                                  common/services/usb/uhc/uhc.o
uhd_resume                                        avr32/drivers/usbb/usbb_host.o
                                                  common/services/usb/uhc/uhc.o
uhd_send_reset                                    avr32/drivers/usbb/usbb_host.o
                                                  common/services/usb/uhc/uhc.o
uhd_setup_request                                 avr32/drivers/usbb/usbb_host.o
                                                  common/services/usb/uhc/uhc.o
uhd_suspend                                       avr32/drivers/usbb/usbb_host.o
                                                  common/services/usb/uhc/uhc.o
uhi_hid_gamepad_enable                            ../src/usb/gamepad/uhi_hid_gamepad.o
                                                  common/services/usb/uhc/uhc.o
uhi_hid_gamepad_install                           ../src/usb/gamepad/uhi_hid_gamepad.o
                                                  common/services/usb/uhc/uhc.o
uhi_hid_gamepad_uninstall                         ../src/usb/gamepad/uhi_hid_gamepad.o
                                                  common/services/usb/uhc/uhc.o
uhi_hid_mouse_enable                              ../src/usb/mouse/uhi_hid_mouse.o
                                                  common/services/usb/uhc/uhc.o
uhi_hid_mouse_install                             ../src/usb/mouse/uhi_hid_mouse.o
                                                  common/services/usb/uhc/uhc.o
uhi_hid_mouse_uninstall                           ../src/usb/mouse/uhi_hid_mouse.o
                                                  common/services/usb/uhc/uhc.o
usart_get_echo_line                               avr32/drivers/usart/usart.o
usart_getchar                                     avr32/drivers/usart/usart.o
usart_init_IrDA                                   avr32/drivers/usart/usart.o
usart_init_hw_handshaking                         avr32/drivers/usart/usart.o
usart_init_iso7816                                avr32/drivers/usart/usart.o
usart_init_lin_master                             avr32/drivers/usart/usart.o
usart_init_lin_slave                              avr32/drivers/usart/usart.o
usart_init_modem                                  avr32/drivers/usart/usart.o
usart_init_rs232                                  avr32/drivers/usart/usart.o
                                                  ../src/init.o
                                                  avr32/utils/debug/print_funcs.o
usart_init_rs232_tx_only                          avr32/drivers/usart/usart.o
usart_init_rs485                                  avr32/drivers/usart/usart.o
usart_init_spi_master                             avr32/drivers/usart/usart.o
usart_init_spi_slave                              avr32/drivers/usart/usart.o
usart_init_sync_master                            avr32/drivers/usart/usart.o
usart_init_sync_slave                             avr32/drivers/usart/usart.o
usart_putchar                                     avr32/drivers/usart/usart.o
                                                  avr32/utils/debug/print_funcs.o
usart_read_char                                   avr32/drivers/usart/usart.o
usart_reset                                       avr32/drivers/usart/usart.o
usart_send_address                                avr32/drivers/usart/usart.o
usart_spi_selectChip                              avr32/drivers/usart/usart.o
usart_spi_unselectChip                            avr32/drivers/usart/usart.o
usart_write_char                                  avr32/drivers/usart/usart.o
usart_write_line                                  avr32/drivers/usart/usart.o
                                                  avr32/utils/debug/print_funcs.o
usb_connection                                    ../src/usb.o
                                                  common/services/usb/uhc/uhc.o
usb_enum                                          ../src/usb.o
                                                  common/services/usb/uhc/uhc.o
usb_mode_change                                   ../src/usb.o
                                                  avr32/drivers/usbb/usbb_host.o
usb_sof                                           ../src/usb.o
                                                  avr32/drivers/usbb/usbb_host.o
usb_vbus_change                                   ../src/usb.o
                                                  avr32/drivers/usbb/usbb_host.o
usb_vbus_error                                    ../src/usb.o
                                                  avr32/drivers/usbb/usbb_host.o
usb_wakeup                                        ../src/usb.o
                                                  common/services/usb/uhc/uhc.o
userOpTypes                                       ../apps/bees/src/menu.o
                                                  ../apps/bees/src/redraw.o
                                                  ../apps/bees/src/key_handler.o
