Archive member included because of file (symbol)

/home/emb/avr32-gnu-toolchain/bin/../lib/gcc/avr32/4.4.3/ucr2/libgcc.a(_avr32_s32_to_f32.o)
                              ../avr32/apps/bees/src/preset.o (__avr32_s32_to_f32)
/home/emb/avr32-gnu-toolchain/bin/../lib/gcc/avr32/4.4.3/ucr2/libgcc.a(_avr32_f32_to_s32.o)
                              ../avr32/src/bfin.o (__avr32_f32_to_s32)
/home/emb/avr32-gnu-toolchain/bin/../lib/gcc/avr32/4.4.3/ucr2/libgcc.a(_udivdi3.o)
                              ../avr32/src/adc.o (__avr32_udiv64)
/home/emb/avr32-gnu-toolchain/bin/../lib/gcc/avr32/4.4.3/../../../../avr32/lib/ucr2/libc.a(lib_a-malloc.o)
                              avr32/drivers/usbb/usbb_host.o (free)
/home/emb/avr32-gnu-toolchain/bin/../lib/gcc/avr32/4.4.3/../../../../avr32/lib/ucr2/libc.a(lib_a-mallocr.o)
                              /home/emb/avr32-gnu-toolchain/bin/../lib/gcc/avr32/4.4.3/../../../../avr32/lib/ucr2/libc.a(lib_a-malloc.o) (_malloc_r)
/home/emb/avr32-gnu-toolchain/bin/../lib/gcc/avr32/4.4.3/../../../../avr32/lib/ucr2/libc.a(lib_a-memcpy.o)
                              avr32/drivers/usbb/usbb_host.o (memcpy)
/home/emb/avr32-gnu-toolchain/bin/../lib/gcc/avr32/4.4.3/../../../../avr32/lib/ucr2/libc.a(lib_a-memset.o)
                              ../avr32/src/fat_io_lib/fat_filelib.o (memset)
/home/emb/avr32-gnu-toolchain/bin/../lib/gcc/avr32/4.4.3/../../../../avr32/lib/ucr2/libc.a(lib_a-mlock.o)
                              /home/emb/avr32-gnu-toolchain/bin/../lib/gcc/avr32/4.4.3/../../../../avr32/lib/ucr2/libc.a(lib_a-mallocr.o) (__malloc_lock)
/home/emb/avr32-gnu-toolchain/bin/../lib/gcc/avr32/4.4.3/../../../../avr32/lib/ucr2/libc.a(lib_a-sbrkr.o)
                              /home/emb/avr32-gnu-toolchain/bin/../lib/gcc/avr32/4.4.3/../../../../avr32/lib/ucr2/libc.a(lib_a-mallocr.o) (_sbrk_r)
/home/emb/avr32-gnu-toolchain/bin/../lib/gcc/avr32/4.4.3/../../../../avr32/lib/ucr2/libc.a(lib_a-strcmp.o)
                              ../avr32/src/files.o (strcmp)
/home/emb/avr32-gnu-toolchain/bin/../lib/gcc/avr32/4.4.3/../../../../avr32/lib/ucr2/libc.a(lib_a-strcpy.o)
                              ../avr32/src/files.o (strcpy)
/home/emb/avr32-gnu-toolchain/bin/../lib/gcc/avr32/4.4.3/../../../../avr32/lib/ucr2/libc.a(lib_a-strlen.o)
                              ../avr32/src/fat_io_lib/fat_filelib.o (strlen)
/home/emb/avr32-gnu-toolchain/bin/../lib/gcc/avr32/4.4.3/../../../../avr32/lib/ucr2/libc.a(lib_a-strncat.o)
                              ../avr32/src/files.o (strncat)
/home/emb/avr32-gnu-toolchain/bin/../lib/gcc/avr32/4.4.3/../../../../avr32/lib/ucr2/libc.a(lib_a-strncmp.o)
                              ../avr32/src/fat_io_lib/fat_access.o (strncmp)
/home/emb/avr32-gnu-toolchain/bin/../lib/gcc/avr32/4.4.3/../../../../avr32/lib/ucr2/libc.a(lib_a-strncpy.o)
                              ../avr32/src/fat_io_lib/fat_access.o (strncpy)
/home/emb/avr32-gnu-toolchain/bin/../lib/gcc/avr32/4.4.3/../../../../avr32/lib/ucr2/libc.a(lib_a-syscalls.o)
                              /home/emb/avr32-gnu-toolchain/bin/../lib/gcc/avr32/4.4.3/../../../../avr32/lib/ucr2/libc.a(lib_a-sbrkr.o) (_sbrk)
/home/emb/avr32-gnu-toolchain/bin/../lib/gcc/avr32/4.4.3/../../../../avr32/lib/ucr2/libc.a(lib_a-errno.o)
                              /home/emb/avr32-gnu-toolchain/bin/../lib/gcc/avr32/4.4.3/../../../../avr32/lib/ucr2/libc.a(lib_a-syscalls.o) (__errno)
/home/emb/avr32-gnu-toolchain/bin/../lib/gcc/avr32/4.4.3/../../../../avr32/lib/ucr2/libc.a(lib_a-freer.o)
                              /home/emb/avr32-gnu-toolchain/bin/../lib/gcc/avr32/4.4.3/../../../../avr32/lib/ucr2/libc.a(lib_a-malloc.o) (_free_r)
/home/emb/avr32-gnu-toolchain/bin/../lib/gcc/avr32/4.4.3/../../../../avr32/lib/ucr2/libc.a(lib_a-impure.o)
                              /home/emb/avr32-gnu-toolchain/bin/../lib/gcc/avr32/4.4.3/../../../../avr32/lib/ucr2/libc.a(lib_a-malloc.o) (_impure_ptr)
/home/emb/avr32-gnu-toolchain/bin/../lib/gcc/avr32/4.4.3/../../../../avr32/lib/ucr2/libc.a(lib_a-reent.o)
                              /home/emb/avr32-gnu-toolchain/bin/../lib/gcc/avr32/4.4.3/../../../../avr32/lib/ucr2/libc.a(lib_a-sbrkr.o) (errno)
/home/emb/avr32-gnu-toolchain/bin/../lib/gcc/avr32/4.4.3/../../../../avr32/lib/ucr2/libc.a(lib_a-findfp.o)
                              /home/emb/avr32-gnu-toolchain/bin/../lib/gcc/avr32/4.4.3/../../../../avr32/lib/ucr2/libc.a(lib_a-impure.o) (__sf_fake_stdin)
/home/emb/avr32-gnu-toolchain/bin/../lib/gcc/avr32/4.4.3/../../../../avr32/lib/ucr2/libc.a(lib_a-fwalk.o)
                              /home/emb/avr32-gnu-toolchain/bin/../lib/gcc/avr32/4.4.3/../../../../avr32/lib/ucr2/libc.a(lib_a-findfp.o) (_fwalk)
/home/emb/avr32-gnu-toolchain/bin/../lib/gcc/avr32/4.4.3/../../../../avr32/lib/ucr2/libc.a(lib_a-stdio.o)
                              /home/emb/avr32-gnu-toolchain/bin/../lib/gcc/avr32/4.4.3/../../../../avr32/lib/ucr2/libc.a(lib_a-findfp.o) (__sclose)
/home/emb/avr32-gnu-toolchain/bin/../lib/gcc/avr32/4.4.3/../../../../avr32/lib/ucr2/libc.a(lib_a-writer.o)
                              /home/emb/avr32-gnu-toolchain/bin/../lib/gcc/avr32/4.4.3/../../../../avr32/lib/ucr2/libc.a(lib_a-stdio.o) (_write_r)
/home/emb/avr32-gnu-toolchain/bin/../lib/gcc/avr32/4.4.3/../../../../avr32/lib/ucr2/libc.a(lib_a-closer.o)
                              /home/emb/avr32-gnu-toolchain/bin/../lib/gcc/avr32/4.4.3/../../../../avr32/lib/ucr2/libc.a(lib_a-stdio.o) (_close_r)
/home/emb/avr32-gnu-toolchain/bin/../lib/gcc/avr32/4.4.3/../../../../avr32/lib/ucr2/libc.a(lib_a-fclose.o)
                              /home/emb/avr32-gnu-toolchain/bin/../lib/gcc/avr32/4.4.3/../../../../avr32/lib/ucr2/libc.a(lib_a-findfp.o) (fclose)
/home/emb/avr32-gnu-toolchain/bin/../lib/gcc/avr32/4.4.3/../../../../avr32/lib/ucr2/libc.a(lib_a-fflush.o)
                              /home/emb/avr32-gnu-toolchain/bin/../lib/gcc/avr32/4.4.3/../../../../avr32/lib/ucr2/libc.a(lib_a-fclose.o) (_fflush_r)
/home/emb/avr32-gnu-toolchain/bin/../lib/gcc/avr32/4.4.3/../../../../avr32/lib/ucr2/libc.a(lib_a-lseekr.o)
                              /home/emb/avr32-gnu-toolchain/bin/../lib/gcc/avr32/4.4.3/../../../../avr32/lib/ucr2/libc.a(lib_a-stdio.o) (_lseek_r)
/home/emb/avr32-gnu-toolchain/bin/../lib/gcc/avr32/4.4.3/../../../../avr32/lib/ucr2/libc.a(lib_a-readr.o)
                              /home/emb/avr32-gnu-toolchain/bin/../lib/gcc/avr32/4.4.3/../../../../avr32/lib/ucr2/libc.a(lib_a-stdio.o) (_read_r)

Allocating common symbols
Common symbol       size              file

data_mem            0x201             avr32/components/memory/sd_mmc/sd_mmc_spi/sd_mmc_spi.o
sceneData           0x4               ../avr32/apps/bees/src/scene.o
errno               0x4               /home/emb/avr32-gnu-toolchain/bin/../lib/gcc/avr32/4.4.3/../../../../avr32/lib/ucr2/libc.a(lib_a-reent.o)
curPage             0x4               ../avr32/apps/bees/src/menu.o
uhd_ctrl_request_phase
                    0x4               avr32/drivers/usbb/usbb_host.o
uhc_sof_timeout     0x1               common/services/usb/uhc/uhc.o
pdcaRxChan          0x4               ../avr32/src/filesystem.o
net                 0x4               ../avr32/apps/bees/src/net.o
gathered            0x4               ../avr32/apps/bees/src/menu.o
enc                 0x30              ../avr32/src/encoders.o
capacity            0x8               avr32/components/memory/sd_mmc/sd_mmc_spi/sd_mmc_spi.o
bfinLdrData         0x4               ../avr32/src/flash.o
uhd_ctrl_request_first
                    0x4               avr32/drivers/usbb/usbb_host.o
uhd_ctrl_nb_trans   0x2               avr32/drivers/usbb/usbb_host.o
newOpType           0x4               ../avr32/apps/bees/src/menu.o
capacity_mult       0x2               avr32/components/memory/sd_mmc/sd_mmc_spi/sd_mmc_spi.o
numGathered         0x4               ../avr32/apps/bees/src/menu.o
presets             0x4               ../avr32/apps/bees/src/preset.o
uhd_ctrl_request_last
                    0x4               avr32/drivers/usbb/usbb_host.o
fsEndTransfer       0x1               ../avr32/src/filesystem.o
uhd_ctrl_request_timeout
                    0x2               avr32/drivers/usbb/usbb_host.o
erase_group_size    0x2               avr32/components/memory/sd_mmc/sd_mmc_spi/sd_mmc_spi.o
sd_mmc_spi_last_block_address
                    0x4               avr32/components/memory/sd_mmc/sd_mmc_spi/sd_mmc_spi.o
r2                  0x2               avr32/components/memory/sd_mmc/sd_mmc_spi/sd_mmc_spi.o
card_type           0x1               avr32/components/memory/sd_mmc/sd_mmc_spi/sd_mmc_spi.o
pdcaTxChan          0x4               ../avr32/src/filesystem.o
fwBinData           0x4               ../avr32/src/flash.o
pdcaTxBuf           0x200             ../avr32/src/filesystem.o
pdcaRxBuf           0x200             ../avr32/src/filesystem.o
csd                 0x10              avr32/components/memory/sd_mmc/sd_mmc_spi/sd_mmc_spi.o
r1                  0x1               avr32/components/memory/sd_mmc/sd_mmc_spi/sd_mmc_spi.o

Discarded input sections

 .text          0x00000000        0x0 avr32/drivers/ebi/smc/smc.o
 .data          0x00000000        0x0 avr32/drivers/ebi/smc/smc.o
 .bss           0x00000000        0x0 avr32/drivers/ebi/smc/smc.o
 .text          0x00000000        0x0 avr32/drivers/flashc/flashc.o
 .data          0x00000000        0x0 avr32/drivers/flashc/flashc.o
 .bss           0x00000000        0x0 avr32/drivers/flashc/flashc.o
 .text.flashc_get_flash_size
                0x00000000       0x34 avr32/drivers/flashc/flashc.o
 .text.flashc_get_page_count
                0x00000000       0x34 avr32/drivers/flashc/flashc.o
 .text.flashc_get_wait_state
                0x00000000        0xc avr32/drivers/flashc/flashc.o
 .text.flashc_is_ready_int_enabled
                0x00000000        0xc avr32/drivers/flashc/flashc.o
 .text.flashc_enable_ready_int
                0x00000000        0xe avr32/drivers/flashc/flashc.o
 .text.flashc_is_lock_error_int_enabled
                0x00000000        0xc avr32/drivers/flashc/flashc.o
 .text.flashc_enable_lock_error_int
                0x00000000        0xe avr32/drivers/flashc/flashc.o
 .text.flashc_is_prog_error_int_enabled
                0x00000000        0xc avr32/drivers/flashc/flashc.o
 .text.flashc_enable_prog_error_int
                0x00000000        0xe avr32/drivers/flashc/flashc.o
 .text.flashc_is_ready
                0x00000000        0xc avr32/drivers/flashc/flashc.o
 .text.flashc_is_lock_error
                0x00000000       0x10 avr32/drivers/flashc/flashc.o
 .text.flashc_is_programming_error
                0x00000000       0x10 avr32/drivers/flashc/flashc.o
 .text.flashc_get_command
                0x00000000        0xc avr32/drivers/flashc/flashc.o
 .text.flashc_get_page_number
                0x00000000        0xc avr32/drivers/flashc/flashc.o
 .text.flashc_issue_command
                0x00000000       0x48 avr32/drivers/flashc/flashc.o
 .text.flashc_is_security_bit_active
                0x00000000        0xc avr32/drivers/flashc/flashc.o
 .text.flashc_get_bootloader_protected_size
                0x00000000       0x6c avr32/drivers/flashc/flashc.o
 .text.flashc_is_external_privileged_fetch_locked
                0x00000000       0x26 avr32/drivers/flashc/flashc.o
 .text.flashc_is_region_locked
                0x00000000       0x18 avr32/drivers/flashc/flashc.o
 .text.flashc_read_gp_fuse_bit
                0x00000000       0x4c avr32/drivers/flashc/flashc.o
 .text.flashc_read_gp_fuse_bitfield
                0x00000000       0x80 avr32/drivers/flashc/flashc.o
 .text.flashc_read_gp_fuse_byte
                0x00000000       0x4a avr32/drivers/flashc/flashc.o
 .text.flashc_read_all_gp_fuses
                0x00000000       0x26 avr32/drivers/flashc/flashc.o
 .text.flashc_is_page_erased
                0x00000000        0xc avr32/drivers/flashc/flashc.o
 .text.flashc_get_page_count_per_region
                0x00000000       0x34 avr32/drivers/flashc/flashc.o
 .text.flashc_get_region_first_page_number
                0x00000000       0x38 avr32/drivers/flashc/flashc.o
 .text.flashc_get_page_region
                0x00000000       0x4c avr32/drivers/flashc/flashc.o
 .text.flashc_is_page_region_locked
                0x00000000       0x64 avr32/drivers/flashc/flashc.o
 .text.flashc_activate_security_bit
                0x00000000       0x38 avr32/drivers/flashc/flashc.o
 .text.flashc_lock_page_region
                0x00000000       0x50 avr32/drivers/flashc/flashc.o
 .text.flashc_erase_gp_fuse_bit
                0x00000000       0x84 avr32/drivers/flashc/flashc.o
 .text.flashc_erase_all_gp_fuses
                0x00000000       0x58 avr32/drivers/flashc/flashc.o
 .text.flashc_no_operation
                0x00000000       0x38 avr32/drivers/flashc/flashc.o
 .text.flashc_erase_all
                0x00000000       0x38 avr32/drivers/flashc/flashc.o
 .text.flashc_write_gp_fuse_byte
                0x00000000       0x4c avr32/drivers/flashc/flashc.o
 .text.flashc_clear_page_buffer
                0x00000000       0x38 avr32/drivers/flashc/flashc.o
 .text.flashc_quick_page_read
                0x00000000       0x4c avr32/drivers/flashc/flashc.o
 .text.flashc_write_page
                0x00000000       0x48 avr32/drivers/flashc/flashc.o
 .text.flashc_quick_user_page_read
                0x00000000       0x40 avr32/drivers/flashc/flashc.o
 .text.flashc_write_user_page
                0x00000000       0x38 avr32/drivers/flashc/flashc.o
 .text.flashc_erase_page
                0x00000000       0x80 avr32/drivers/flashc/flashc.o
 .text.flashc_erase_gp_fuse_bitfield
                0x00000000      0x124 avr32/drivers/flashc/flashc.o
 .text.flashc_write_gp_fuse_bit
                0x00000000       0x4c avr32/drivers/flashc/flashc.o
 .text.flashc_write_gp_fuse_bitfield
                0x00000000       0x84 avr32/drivers/flashc/flashc.o
 .text.flashc_lock_region
                0x00000000       0x78 avr32/drivers/flashc/flashc.o
 .text.flashc_write_all_gp_fuses
                0x00000000      0x214 avr32/drivers/flashc/flashc.o
 .text.flashc_lock_all_regions
                0x00000000      0xb24 avr32/drivers/flashc/flashc.o
 .text.flashc_erase_gp_fuse_byte
                0x00000000      0x358 avr32/drivers/flashc/flashc.o
 .text.flashc_set_gp_fuse_bit
                0x00000000       0x5c avr32/drivers/flashc/flashc.o
 .text.flashc_erase_user_page
                0x00000000       0x68 avr32/drivers/flashc/flashc.o
 .text.flashc_set_gp_fuse_bitfield
                0x00000000       0x9c avr32/drivers/flashc/flashc.o
 .text.flashc_set_bootloader_protected_size
                0x00000000      0x138 avr32/drivers/flashc/flashc.o
 .text.flashc_erase_all_pages
                0x00000000       0xf8 avr32/drivers/flashc/flashc.o
 .text.flashc_set_all_gp_fuses
                0x00000000      0x3fc avr32/drivers/flashc/flashc.o
 .text.flashc_set_gp_fuse_byte
                0x00000000      0x654 avr32/drivers/flashc/flashc.o
 .text.flashc_memset16
                0x00000000       0x28 avr32/drivers/flashc/flashc.o
 .text.flashc_memset8
                0x00000000       0x2c avr32/drivers/flashc/flashc.o
 .text.flashc_lock_external_privileged_fetch
                0x00000000       0x54 avr32/drivers/flashc/flashc.o
 .text          0x00000000        0x0 avr32/drivers/gpio/gpio.o
 .data          0x00000000        0x0 avr32/drivers/gpio/gpio.o
 .bss           0x00000000        0x0 avr32/drivers/gpio/gpio.o
 .text.gpio_enable_module_pin
                0x00000000       0x50 avr32/drivers/gpio/gpio.o
 .text.gpio_enable_gpio
                0x00000000       0x2a avr32/drivers/gpio/gpio.o
 .text.gpio_enable_gpio_pin
                0x00000000       0x16 avr32/drivers/gpio/gpio.o
 .text.gpio_disable_pin_pull_up
                0x00000000       0x14 avr32/drivers/gpio/gpio.o
 .text.gpio_configure_pin
                0x00000000       0x80 avr32/drivers/gpio/gpio.o
 .text.gpio_configure_group
                0x00000000       0x6e avr32/drivers/gpio/gpio.o
 .text.gpio_get_gpio_pin_output_value
                0x00000000       0x16 avr32/drivers/gpio/gpio.o
 .text.gpio_get_gpio_open_drain_pin_output_value
                0x00000000       0x1a avr32/drivers/gpio/gpio.o
 .text.gpio_set_pin_high
                0x00000000       0x14 avr32/drivers/gpio/gpio.o
 .text.gpio_set_group_high
                0x00000000        0xc avr32/drivers/gpio/gpio.o
 .text.gpio_set_pin_low
                0x00000000       0x14 avr32/drivers/gpio/gpio.o
 .text.gpio_set_group_low
                0x00000000        0xc avr32/drivers/gpio/gpio.o
 .text.gpio_tgl_gpio_pin
                0x00000000       0x1a avr32/drivers/gpio/gpio.o
 .text.gpio_toggle_pin
                0x00000000       0x14 avr32/drivers/gpio/gpio.o
 .text.gpio_toggle_group
                0x00000000        0xc avr32/drivers/gpio/gpio.o
 .text.gpio_set_gpio_open_drain_pin
                0x00000000       0x16 avr32/drivers/gpio/gpio.o
 .text.gpio_clr_gpio_open_drain_pin
                0x00000000       0x1a avr32/drivers/gpio/gpio.o
 .text.gpio_tgl_gpio_open_drain_pin
                0x00000000       0x1a avr32/drivers/gpio/gpio.o
 .text.gpio_disable_pin_glitch_filter
                0x00000000       0x14 avr32/drivers/gpio/gpio.o
 .text.gpio_disable_pin_interrupt
                0x00000000       0x14 avr32/drivers/gpio/gpio.o
 .text          0x00000000        0x0 avr32/drivers/intc/intc.o
 .data          0x00000000        0x0 avr32/drivers/intc/intc.o
 .bss           0x00000000        0x0 avr32/drivers/intc/intc.o
 .text          0x00000000        0x0 avr32/drivers/pdca/pdca.o
 .data          0x00000000        0x0 avr32/drivers/pdca/pdca.o
 .bss           0x00000000        0x0 avr32/drivers/pdca/pdca.o
 .text.pdca_get_channel_status
                0x00000000       0x22 avr32/drivers/pdca/pdca.o
 .text.pdca_enable
                0x00000000       0x1e avr32/drivers/pdca/pdca.o
 .text.pdca_get_load_size
                0x00000000       0x1a avr32/drivers/pdca/pdca.o
 .text.pdca_get_reload_size
                0x00000000       0x1a avr32/drivers/pdca/pdca.o
 .text.pdca_set_peripheral_select
                0x00000000       0x1a avr32/drivers/pdca/pdca.o
 .text.pdca_set_transfer_size
                0x00000000       0x22 avr32/drivers/pdca/pdca.o
 .text.pdca_enable_interrupt_transfer_error
                0x00000000       0x1e avr32/drivers/pdca/pdca.o
 .text.pdca_enable_interrupt_reload_counter_zero
                0x00000000       0x1e avr32/drivers/pdca/pdca.o
 .text.pdca_get_transfer_status
                0x00000000       0x1a avr32/drivers/pdca/pdca.o
 .text.pdca_disable_interrupt_reload_counter_zero
                0x00000000       0x2a avr32/drivers/pdca/pdca.o
 .text.pdca_disable_interrupt_transfer_error
                0x00000000       0x2a avr32/drivers/pdca/pdca.o
 .text.pdca_reload_channel
                0x00000000       0x30 avr32/drivers/pdca/pdca.o
 .text          0x00000000        0x0 avr32/drivers/pm/pm.o
 .data          0x00000000        0x0 avr32/drivers/pm/pm.o
 .bss           0x00000000        0x0 avr32/drivers/pm/pm.o
 .debug_abbrev  0x00000000      0x389 avr32/drivers/pm/pm.o
 .debug_info    0x00000000     0x1d71 avr32/drivers/pm/pm.o
 .debug_line    0x00000000      0xd51 avr32/drivers/pm/pm.o
 .debug_macinfo
                0x00000000    0xe95d4 avr32/drivers/pm/pm.o
 .text.pm_enable_osc0_ext_clock
                0x00000000        0xc avr32/drivers/pm/pm.o
 .text.pm_enable_osc0_crystal
                0x00000000       0x4a avr32/drivers/pm/pm.o
 .text.pm_enable_clk0
                0x00000000       0x18 avr32/drivers/pm/pm.o
 .text.pm_disable_clk0
                0x00000000        0x8 avr32/drivers/pm/pm.o
 .text.pm_enable_clk0_no_wait
                0x00000000       0x10 avr32/drivers/pm/pm.o
 .text.pm_wait_for_clk0_ready
                0x00000000        0xa avr32/drivers/pm/pm.o
 .text.pm_enable_osc1_ext_clock
                0x00000000        0xc avr32/drivers/pm/pm.o
 .text.pm_enable_osc1_crystal
                0x00000000       0x4a avr32/drivers/pm/pm.o
 .text.pm_enable_clk1
                0x00000000       0x18 avr32/drivers/pm/pm.o
 .text.pm_disable_clk1
                0x00000000        0x8 avr32/drivers/pm/pm.o
 .text.pm_enable_clk1_no_wait
                0x00000000       0x10 avr32/drivers/pm/pm.o
 .text.pm_wait_for_clk1_ready
                0x00000000        0xa avr32/drivers/pm/pm.o
 .text.pm_enable_osc32_ext_clock
                0x00000000        0xc avr32/drivers/pm/pm.o
 .text.pm_enable_osc32_crystal
                0x00000000        0xc avr32/drivers/pm/pm.o
 .text.pm_enable_clk32
                0x00000000       0x18 avr32/drivers/pm/pm.o
 .text.pm_disable_clk32
                0x00000000        0x8 avr32/drivers/pm/pm.o
 .text.pm_enable_clk32_no_wait
                0x00000000       0x10 avr32/drivers/pm/pm.o
 .text.pm_wait_for_clk32_ready
                0x00000000        0xa avr32/drivers/pm/pm.o
 .text.pm_cksel_get
                0x00000000        0x6 avr32/drivers/pm/pm.o
 .text.pm_cksel_set
                0x00000000        0xc avr32/drivers/pm/pm.o
 .text.pm_cksel
                0x00000000       0x44 avr32/drivers/pm/pm.o
 .text.pm_gc_setup
                0x00000000       0x22 avr32/drivers/pm/pm.o
 .text.pm_gc_enable
                0x00000000        0xe avr32/drivers/pm/pm.o
 .text.pm_gc_disable
                0x00000000        0xe avr32/drivers/pm/pm.o
 .text.pm_pll_setup
                0x00000000       0x22 avr32/drivers/pm/pm.o
 .text.pm_pll_set_option
                0x00000000       0x18 avr32/drivers/pm/pm.o
 .text.pm_pll_get_option
                0x00000000        0xc avr32/drivers/pm/pm.o
 .text.pm_pll_enable
                0x00000000        0xe avr32/drivers/pm/pm.o
 .text.pm_pll_disable
                0x00000000        0xe avr32/drivers/pm/pm.o
 .text.pm_wait_for_pll0_locked
                0x00000000        0xa avr32/drivers/pm/pm.o
 .text.pm_wait_for_pll1_locked
                0x00000000        0xa avr32/drivers/pm/pm.o
 .text.pm_get_clock
                0x00000000        0x8 avr32/drivers/pm/pm.o
 .text.pm_switch_to_clock
                0x00000000        0xa avr32/drivers/pm/pm.o
 .text.pm_switch_to_osc0
                0x00000000       0x5a avr32/drivers/pm/pm.o
 .text.pm_bod_enable_irq
                0x00000000        0xa avr32/drivers/pm/pm.o
 .text.pm_bod_clear_irq
                0x00000000        0xa avr32/drivers/pm/pm.o
 .text.pm_bod_get_irq_status
                0x00000000        0x8 avr32/drivers/pm/pm.o
 .text.pm_bod_get_irq_enable_bit
                0x00000000        0x8 avr32/drivers/pm/pm.o
 .text.pm_bod_get_level
                0x00000000        0xa avr32/drivers/pm/pm.o
 .text.pm_read_gplp
                0x00000000        0x8 avr32/drivers/pm/pm.o
 .text.pm_write_gplp
                0x00000000        0x8 avr32/drivers/pm/pm.o
 .text.pm_enable_module
                0x00000000       0x1a avr32/drivers/pm/pm.o
 .text.pm_disable_module
                0x00000000       0x1c avr32/drivers/pm/pm.o
 .text.pm_bod_disable_irq
                0x00000000       0x26 avr32/drivers/pm/pm.o
 .debug_frame   0x00000000      0x2f4 avr32/drivers/pm/pm.o
 .debug_loc     0x00000000      0x39d avr32/drivers/pm/pm.o
 .debug_pubnames
                0x00000000      0x3ee avr32/drivers/pm/pm.o
 .debug_aranges
                0x00000000      0x178 avr32/drivers/pm/pm.o
 .debug_ranges  0x00000000      0x248 avr32/drivers/pm/pm.o
 .debug_str     0x00000000      0x982 avr32/drivers/pm/pm.o
 .comment       0x00000000       0x31 avr32/drivers/pm/pm.o
 .text          0x00000000        0x0 avr32/drivers/pm/pm_conf_clocks.o
 .data          0x00000000        0x0 avr32/drivers/pm/pm_conf_clocks.o
 .bss           0x00000000        0x0 avr32/drivers/pm/pm_conf_clocks.o
 .debug_abbrev  0x00000000      0x192 avr32/drivers/pm/pm_conf_clocks.o
 .debug_info    0x00000000      0xf48 avr32/drivers/pm/pm_conf_clocks.o
 .debug_line    0x00000000      0x755 avr32/drivers/pm/pm_conf_clocks.o
 .debug_macinfo
                0x00000000    0xe9626 avr32/drivers/pm/pm_conf_clocks.o
 .text.pm_configure_usb_clock
                0x00000000       0x70 avr32/drivers/pm/pm_conf_clocks.o
 .text.pm_configure_clocks
                0x00000000      0x1a0 avr32/drivers/pm/pm_conf_clocks.o
 .debug_frame   0x00000000       0x7c avr32/drivers/pm/pm_conf_clocks.o
 .debug_loc     0x00000000      0x222 avr32/drivers/pm/pm_conf_clocks.o
 .debug_pubnames
                0x00000000       0x45 avr32/drivers/pm/pm_conf_clocks.o
 .debug_aranges
                0x00000000       0x28 avr32/drivers/pm/pm_conf_clocks.o
 .debug_ranges  0x00000000       0x20 avr32/drivers/pm/pm_conf_clocks.o
 .debug_str     0x00000000      0x511 avr32/drivers/pm/pm_conf_clocks.o
 .comment       0x00000000       0x31 avr32/drivers/pm/pm_conf_clocks.o
 .text          0x00000000        0x0 avr32/drivers/pm/power_clocks_lib.o
 .data          0x00000000        0x0 avr32/drivers/pm/power_clocks_lib.o
 .bss           0x00000000        0x0 avr32/drivers/pm/power_clocks_lib.o
 .debug_abbrev  0x00000000      0x1cd avr32/drivers/pm/power_clocks_lib.o
 .debug_info    0x00000000      0xf89 avr32/drivers/pm/power_clocks_lib.o
 .debug_line    0x00000000      0x672 avr32/drivers/pm/power_clocks_lib.o
 .debug_macinfo
                0x00000000    0xe96b5 avr32/drivers/pm/power_clocks_lib.o
 .text.pcl_read_gplp
                0x00000000       0x14 avr32/drivers/pm/power_clocks_lib.o
 .text.pcl_write_gplp
                0x00000000       0x14 avr32/drivers/pm/power_clocks_lib.o
 .text.pcl_configure_usb_clock
                0x00000000        0xc avr32/drivers/pm/power_clocks_lib.o
 .text.pcl_switch_to_osc
                0x00000000       0x24 avr32/drivers/pm/power_clocks_lib.o
 .text.pcl_configure_clocks
                0x00000000        0xc avr32/drivers/pm/power_clocks_lib.o
 .debug_frame   0x00000000       0x8c avr32/drivers/pm/power_clocks_lib.o
 .debug_loc     0x00000000      0x141 avr32/drivers/pm/power_clocks_lib.o
 .debug_pubnames
                0x00000000       0x82 avr32/drivers/pm/power_clocks_lib.o
 .debug_aranges
                0x00000000       0x40 avr32/drivers/pm/power_clocks_lib.o
 .debug_ranges  0x00000000       0x38 avr32/drivers/pm/power_clocks_lib.o
 .debug_str     0x00000000      0x51e avr32/drivers/pm/power_clocks_lib.o
 .comment       0x00000000       0x31 avr32/drivers/pm/power_clocks_lib.o
 .text          0x00000000        0x0 avr32/drivers/spi/spi.o
 .data          0x00000000        0x0 avr32/drivers/spi/spi.o
 .bss           0x00000000        0x0 avr32/drivers/spi/spi.o
 .text.spi_initSlave
                0x00000000       0x4a avr32/drivers/spi/spi.o
 .text.spi_initTest
                0x00000000       0x14 avr32/drivers/spi/spi.o
 .text.spi_disable
                0x00000000        0x6 avr32/drivers/spi/spi.o
 .text.spi_is_enabled
                0x00000000        0x8 avr32/drivers/spi/spi.o
 .text.spi_writeRegisterEmptyCheck
                0x00000000        0x8 avr32/drivers/spi/spi.o
 .text.spi_variableSlaveWrite
                0x00000000       0x40 avr32/drivers/spi/spi.o
 .text.spi_writeEndCheck
                0x00000000        0x8 avr32/drivers/spi/spi.o
 .text.spi_readRegisterFullCheck
                0x00000000        0x8 avr32/drivers/spi/spi.o
 .text.spi_getStatus
                0x00000000       0x34 avr32/drivers/spi/spi.o
 .text          0x00000000        0x0 avr32/drivers/tc/tc.o
 .data          0x00000000        0x0 avr32/drivers/tc/tc.o
 .bss           0x00000000        0x0 avr32/drivers/tc/tc.o
 .text.tc_get_interrupt_settings
                0x00000000       0x12 avr32/drivers/tc/tc.o
 .text.tc_select_external_clock
                0x00000000       0x2e avr32/drivers/tc/tc.o
 .text.tc_init_capture
                0x00000000       0x1e avr32/drivers/tc/tc.o
 .text.tc_stop  0x00000000       0x12 avr32/drivers/tc/tc.o
 .text.tc_software_trigger
                0x00000000       0x12 avr32/drivers/tc/tc.o
 .text.tc_sync_trigger
                0x00000000        0x8 avr32/drivers/tc/tc.o
 .text.tc_sync_start
                0x00000000       0x12 avr32/drivers/tc/tc.o
 .text.tc_read_tc
                0x00000000       0x16 avr32/drivers/tc/tc.o
 .text.tc_read_ra
                0x00000000       0x16 avr32/drivers/tc/tc.o
 .text.tc_read_rb
                0x00000000       0x16 avr32/drivers/tc/tc.o
 .text.tc_read_rc
                0x00000000       0x16 avr32/drivers/tc/tc.o
 .text.tc_write_ra
                0x00000000       0x38 avr32/drivers/tc/tc.o
 .text.tc_write_rb
                0x00000000       0x38 avr32/drivers/tc/tc.o
 .text          0x00000000        0x0 avr32/drivers/usart/usart.o
 .data          0x00000000        0x0 avr32/drivers/usart/usart.o
 .bss           0x00000000        0x0 avr32/drivers/usart/usart.o
 .text.usart_spi_selectChip
                0x00000000        0x8 avr32/drivers/usart/usart.o
 .text.usart_spi_unselectChip
                0x00000000       0x1e avr32/drivers/usart/usart.o
 .text.usart_send_address
                0x00000000       0x26 avr32/drivers/usart/usart.o
 .text.usart_write_char
                0x00000000       0x14 avr32/drivers/usart/usart.o
 .text.usart_putchar
                0x00000000       0x1c avr32/drivers/usart/usart.o
 .text.usart_read_char
                0x00000000       0x24 avr32/drivers/usart/usart.o
 .text.usart_getchar
                0x00000000       0x1a avr32/drivers/usart/usart.o
 .text.usart_get_echo_line
                0x00000000       0x80 avr32/drivers/usart/usart.o
 .text.usart_reset
                0x00000000       0x2c avr32/drivers/usart/usart.o
 .text.usart_init_spi_slave
                0x00000000       0xae avr32/drivers/usart/usart.o
 .text.usart_init_spi_master
                0x00000000       0xd4 avr32/drivers/usart/usart.o
 .text.usart_init_lin_slave
                0x00000000       0x92 avr32/drivers/usart/usart.o
 .text.usart_init_lin_master
                0x00000000       0x92 avr32/drivers/usart/usart.o
 .text.usart_init_iso7816
                0x00000000       0xba avr32/drivers/usart/usart.o
 .text.usart_init_sync_slave
                0x00000000       0xdc avr32/drivers/usart/usart.o
 .text.usart_init_sync_master
                0x00000000      0x108 avr32/drivers/usart/usart.o
 .text.usart_init_rs232_tx_only
                0x00000000      0x102 avr32/drivers/usart/usart.o
 .text.usart_init_IrDA
                0x00000000      0x10c avr32/drivers/usart/usart.o
 .text.usart_init_hw_handshaking
                0x00000000       0xf4 avr32/drivers/usart/usart.o
 .text.usart_init_rs485
                0x00000000       0xf4 avr32/drivers/usart/usart.o
 .text.usart_init_modem
                0x00000000       0xf8 avr32/drivers/usart/usart.o
 .rodata.str1.4
                0x00000000        0xc avr32/drivers/usart/usart.o
 .text          0x00000000        0x0 avr32/utils/debug/print_funcs.o
 .data          0x00000000        0x0 avr32/utils/debug/print_funcs.o
 .bss           0x00000000        0x0 avr32/utils/debug/print_funcs.o
 .text.print_char
                0x00000000        0xc avr32/utils/debug/print_funcs.o
 .text.print    0x00000000        0xc avr32/utils/debug/print_funcs.o
 .text.init_dbg_rs232_ex
                0x00000000       0x40 avr32/utils/debug/print_funcs.o
 .text.print_dbg_char
                0x00000000       0x14 avr32/utils/debug/print_funcs.o
 .text.init_dbg_rs232
                0x00000000       0x44 avr32/utils/debug/print_funcs.o
 .text.print_dbg_char_hex
                0x00000000       0x34 avr32/utils/debug/print_funcs.o
 .text.print_dbg_short_hex
                0x00000000       0x54 avr32/utils/debug/print_funcs.o
 .text.print_hex
                0x00000000       0x70 avr32/utils/debug/print_funcs.o
 .text.print_short_hex
                0x00000000       0x50 avr32/utils/debug/print_funcs.o
 .text.print_char_hex
                0x00000000       0x30 avr32/utils/debug/print_funcs.o
 .text.print_ulong
                0x00000000       0x48 avr32/utils/debug/print_funcs.o
 .rodata.DBG_USART_GPIO_MAP.10837
                0x00000000       0x10 avr32/utils/debug/print_funcs.o
 .text          0x00000000        0x0 avr32/components/memory/sd_mmc/sd_mmc_spi/sd_mmc_spi.o
 .data          0x00000000        0x0 avr32/components/memory/sd_mmc/sd_mmc_spi/sd_mmc_spi.o
 .bss           0x00000000        0x0 avr32/components/memory/sd_mmc/sd_mmc_spi/sd_mmc_spi.o
 .text.sd_mmc_spi_send_and_read
                0x00000000       0x34 avr32/components/memory/sd_mmc/sd_mmc_spi/sd_mmc_spi.o
 .text.T.145    0x00000000       0x38 avr32/components/memory/sd_mmc/sd_mmc_spi/sd_mmc_spi.o
 .text.sd_mmc_spi_read_close
                0x00000000        0xc avr32/components/memory/sd_mmc/sd_mmc_spi/sd_mmc_spi.o
 .text.sd_mmc_spi_read_open
                0x00000000       0x18 avr32/components/memory/sd_mmc/sd_mmc_spi/sd_mmc_spi.o
 .text.sd_mmc_spi_read_sector_to_ram
                0x00000000      0x13c avr32/components/memory/sd_mmc/sd_mmc_spi/sd_mmc_spi.o
 .text.sd_mmc_spi_erase_sector_group
                0x00000000       0xf8 avr32/components/memory/sd_mmc/sd_mmc_spi/sd_mmc_spi.o
 .text.sd_mmc_spi_send_command
                0x00000000       0x40 avr32/components/memory/sd_mmc/sd_mmc_spi/sd_mmc_spi.o
 .text.sd_mmc_spi_read_multiple_sector
                0x00000000      0x170 avr32/components/memory/sd_mmc/sd_mmc_spi/sd_mmc_spi.o
 .text.sd_mmc_spi_write_multiple_sector
                0x00000000      0x170 avr32/components/memory/sd_mmc/sd_mmc_spi/sd_mmc_spi.o
 .text.sd_mmc_spi_get_csd
                0x00000000      0x444 avr32/components/memory/sd_mmc/sd_mmc_spi/sd_mmc_spi.o
 .text.sd_mmc_spi_get_cid
                0x00000000      0x478 avr32/components/memory/sd_mmc/sd_mmc_spi/sd_mmc_spi.o
 .text.sd_mmc_spi_check_presence
                0x00000000      0x2b4 avr32/components/memory/sd_mmc/sd_mmc_spi/sd_mmc_spi.o
 .text.sd_mmc_spi_get_status
                0x00000000      0x268 avr32/components/memory/sd_mmc/sd_mmc_spi/sd_mmc_spi.o
 .text.is_sd_mmc_spi_write_pwd_locked
                0x00000000       0x40 avr32/components/memory/sd_mmc/sd_mmc_spi/sd_mmc_spi.o
 .text.sd_mmc_spi_lock_operation
                0x00000000      0x1a8 avr32/components/memory/sd_mmc/sd_mmc_spi/sd_mmc_spi.o
 .bss.sector_buf
                0x00000000      0x200 avr32/components/memory/sd_mmc/sd_mmc_spi/sd_mmc_spi.o
 .text          0x00000000        0x0 avr32/components/memory/sd_mmc/sd_mmc_spi/sd_mmc_spi_mem.o
 .data          0x00000000        0x0 avr32/components/memory/sd_mmc/sd_mmc_spi/sd_mmc_spi_mem.o
 .bss           0x00000000        0x0 avr32/components/memory/sd_mmc/sd_mmc_spi/sd_mmc_spi_mem.o
 .debug_abbrev  0x00000000      0x16c avr32/components/memory/sd_mmc/sd_mmc_spi/sd_mmc_spi_mem.o
 .debug_info    0x00000000      0x259 avr32/components/memory/sd_mmc/sd_mmc_spi/sd_mmc_spi_mem.o
 .debug_line    0x00000000      0x87e avr32/components/memory/sd_mmc/sd_mmc_spi/sd_mmc_spi_mem.o
 .debug_macinfo
                0x00000000    0xebadd avr32/components/memory/sd_mmc/sd_mmc_spi/sd_mmc_spi_mem.o
 .text.sd_mmc_spi_wr_protect
                0x00000000        0x2 avr32/components/memory/sd_mmc/sd_mmc_spi/sd_mmc_spi_mem.o
 .text.sd_mmc_spi_removal
                0x00000000        0x2 avr32/components/memory/sd_mmc/sd_mmc_spi/sd_mmc_spi_mem.o
 .text.sd_mmc_spi_test_unit_ready
                0x00000000       0x68 avr32/components/memory/sd_mmc/sd_mmc_spi/sd_mmc_spi_mem.o
 .text.sd_mmc_spi_mem_init
                0x00000000        0xc avr32/components/memory/sd_mmc/sd_mmc_spi/sd_mmc_spi_mem.o
 .text.sd_mmc_spi_read_capacity
                0x00000000       0x40 avr32/components/memory/sd_mmc/sd_mmc_spi/sd_mmc_spi_mem.o
 .text.sd_mmc_spi_ram_2_mem
                0x00000000       0x5c avr32/components/memory/sd_mmc/sd_mmc_spi/sd_mmc_spi_mem.o
 .text.sd_mmc_spi_mem_2_ram
                0x00000000       0x5c avr32/components/memory/sd_mmc/sd_mmc_spi/sd_mmc_spi_mem.o
 .data.sd_mmc_spi_presence_status
                0x00000000        0x1 avr32/components/memory/sd_mmc/sd_mmc_spi/sd_mmc_spi_mem.o
 .debug_frame   0x00000000       0xcc avr32/components/memory/sd_mmc/sd_mmc_spi/sd_mmc_spi_mem.o
 .debug_loc     0x00000000      0x131 avr32/components/memory/sd_mmc/sd_mmc_spi/sd_mmc_spi_mem.o
 .debug_pubnames
                0x00000000       0xe8 avr32/components/memory/sd_mmc/sd_mmc_spi/sd_mmc_spi_mem.o
 .debug_aranges
                0x00000000       0x50 avr32/components/memory/sd_mmc/sd_mmc_spi/sd_mmc_spi_mem.o
 .debug_ranges  0x00000000       0x48 avr32/components/memory/sd_mmc/sd_mmc_spi/sd_mmc_spi_mem.o
 .debug_str     0x00000000      0x273 avr32/components/memory/sd_mmc/sd_mmc_spi/sd_mmc_spi_mem.o
 .comment       0x00000000       0x31 avr32/components/memory/sd_mmc/sd_mmc_spi/sd_mmc_spi_mem.o
 .text          0x00000000        0x0 avr32/drivers/usbb/usbb_host.o
 .data          0x00000000        0x0 avr32/drivers/usbb/usbb_host.o
 .bss           0x00000000        0x0 avr32/drivers/usbb/usbb_host.o
 .text.uhd_get_frame_number
                0x00000000        0xc avr32/drivers/usbb/usbb_host.o
 .text.uhd_get_microframe_number
                0x00000000        0xe avr32/drivers/usbb/usbb_host.o
 .text.uhd_is_suspend
                0x00000000       0x10 avr32/drivers/usbb/usbb_host.o
 .text.uhd_resume
                0x00000000       0x54 avr32/drivers/usbb/usbb_host.o
 .text.otg_dual_disable
                0x00000000       0x4c avr32/drivers/usbb/usbb_host.o
 .text.uhd_ep_abort
                0x00000000      0x29c avr32/drivers/usbb/usbb_host.o
 .text          0x00000000        0x0 common/services/clock/uc3a0_a1/sysclk.o
 .data          0x00000000        0x0 common/services/clock/uc3a0_a1/sysclk.o
 .bss           0x00000000        0x0 common/services/clock/uc3a0_a1/sysclk.o
 .text.sysclk_disable_pbb_module
                0x00000000       0x74 common/services/clock/uc3a0_a1/sysclk.o
 .text          0x00000000        0x0 common/services/storage/ctrl_access/ctrl_access.o
 .data          0x00000000        0x0 common/services/storage/ctrl_access/ctrl_access.o
 .bss           0x00000000        0x0 common/services/storage/ctrl_access/ctrl_access.o
 .debug_abbrev  0x00000000      0x1fb common/services/storage/ctrl_access/ctrl_access.o
 .debug_info    0x00000000      0x672 common/services/storage/ctrl_access/ctrl_access.o
 .debug_line    0x00000000      0x90c common/services/storage/ctrl_access/ctrl_access.o
 .debug_macinfo
                0x00000000    0xece1c common/services/storage/ctrl_access/ctrl_access.o
 .text.get_nb_lun
                0x00000000        0x2 common/services/storage/ctrl_access/ctrl_access.o
 .text.get_cur_lun
                0x00000000        0x2 common/services/storage/ctrl_access/ctrl_access.o
 .text.mem_test_unit_ready
                0x00000000       0x14 common/services/storage/ctrl_access/ctrl_access.o
 .text.mem_read_capacity
                0x00000000       0x14 common/services/storage/ctrl_access/ctrl_access.o
 .text.mem_sector_size
                0x00000000        0x6 common/services/storage/ctrl_access/ctrl_access.o
 .text.mem_unload
                0x00000000       0x10 common/services/storage/ctrl_access/ctrl_access.o
 .text.mem_wr_protect
                0x00000000       0x14 common/services/storage/ctrl_access/ctrl_access.o
 .text.mem_removal
                0x00000000       0x14 common/services/storage/ctrl_access/ctrl_access.o
 .text.mem_name
                0x00000000       0x10 common/services/storage/ctrl_access/ctrl_access.o
 .text.memory_2_ram
                0x00000000       0x18 common/services/storage/ctrl_access/ctrl_access.o
 .text.ram_2_memory
                0x00000000       0x18 common/services/storage/ctrl_access/ctrl_access.o
 .text.stream_state
                0x00000000        0x2 common/services/storage/ctrl_access/ctrl_access.o
 .text.stream_stop
                0x00000000        0x2 common/services/storage/ctrl_access/ctrl_access.o
 .text.stream_mem_to_mem
                0x00000000       0x84 common/services/storage/ctrl_access/ctrl_access.o
 .bss.sector_buf.10770
                0x00000000      0x200 common/services/storage/ctrl_access/ctrl_access.o
 .rodata.lun_desc
                0x00000000       0x20 common/services/storage/ctrl_access/ctrl_access.o
 .rodata.str1.4
                0x00000000       0x18 common/services/storage/ctrl_access/ctrl_access.o
 .debug_frame   0x00000000      0x130 common/services/storage/ctrl_access/ctrl_access.o
 .debug_loc     0x00000000      0x474 common/services/storage/ctrl_access/ctrl_access.o
 .debug_pubnames
                0x00000000      0x10b common/services/storage/ctrl_access/ctrl_access.o
 .debug_aranges
                0x00000000       0x88 common/services/storage/ctrl_access/ctrl_access.o
 .debug_ranges  0x00000000      0x100 common/services/storage/ctrl_access/ctrl_access.o
 .debug_str     0x00000000      0x2e4 common/services/storage/ctrl_access/ctrl_access.o
 .comment       0x00000000       0x31 common/services/storage/ctrl_access/ctrl_access.o
 .text          0x00000000        0x0 common/services/usb/uhc/uhc.o
 .data          0x00000000        0x0 common/services/usb/uhc/uhc.o
 .bss           0x00000000        0x0 common/services/usb/uhc/uhc.o
 .text.uhc_setup_request_callback
                0x00000000       0x18 common/services/usb/uhc/uhc.o
 .text.uhc_get_device_number
                0x00000000       0x14 common/services/usb/uhc/uhc.o
 .text.uhc_dev_get_power
                0x00000000        0xa common/services/usb/uhc/uhc.o
 .text.uhc_dev_get_speed
                0x00000000        0x4 common/services/usb/uhc/uhc.o
 .text.uhc_dev_is_high_speed_support
                0x00000000       0x78 common/services/usb/uhc/uhc.o
 .text.uhc_dev_get_string
                0x00000000      0x10c common/services/usb/uhc/uhc.o
 .text.uhc_dev_get_string_serial
                0x00000000       0x18 common/services/usb/uhc/uhc.o
 .text.uhc_dev_get_string_product
                0x00000000       0x18 common/services/usb/uhc/uhc.o
 .text.uhc_dev_get_string_manufacturer
                0x00000000       0x18 common/services/usb/uhc/uhc.o
 .text.uhc_is_suspend
                0x00000000       0x20 common/services/usb/uhc/uhc.o
 .text.uhc_suspend
                0x00000000       0x5c common/services/usb/uhc/uhc.o
 .text.uhc_resume
                0x00000000       0x2c common/services/usb/uhc/uhc.o
 .bss.uhc_setup_request_finish_status
                0x00000000        0x1 common/services/usb/uhc/uhc.o
 .bss.uhc_setup_request_finish
                0x00000000        0x1 common/services/usb/uhc/uhc.o
 .text          0x00000000        0x0 ../avr32/src/adc.o
 .data          0x00000000        0x0 ../avr32/src/adc.o
 .bss           0x00000000        0x0 ../avr32/src/adc.o
 .text          0x00000000        0x0 ../avr32/src/app.o
 .data          0x00000000        0x0 ../avr32/src/app.o
 .bss           0x00000000        0x0 ../avr32/src/app.o
 .debug_abbrev  0x00000000       0xd8 ../avr32/src/app.o
 .debug_info    0x00000000      0x1ea ../avr32/src/app.o
 .debug_line    0x00000000      0x6d2 ../avr32/src/app.o
 .debug_macinfo
                0x00000000    0xea7d1 ../avr32/src/app.o
 .text.app_notify
                0x00000000        0x2 ../avr32/src/app.o
 .text.app_resume
                0x00000000       0x20 ../avr32/src/app.o
 .text.app_pause
                0x00000000       0x18 ../avr32/src/app.o
 .bss.notifyMsg
                0x00000000        0x1 ../avr32/src/app.o
 .bss.inNotify  0x00000000        0x1 ../avr32/src/app.o
 .debug_frame   0x00000000       0x40 ../avr32/src/app.o
 .debug_pubnames
                0x00000000       0x3e ../avr32/src/app.o
 .debug_aranges
                0x00000000       0x30 ../avr32/src/app.o
 .debug_ranges  0x00000000       0x28 ../avr32/src/app.o
 .debug_str     0x00000000      0x1d2 ../avr32/src/app.o
 .comment       0x00000000       0x31 ../avr32/src/app.o
 .text          0x00000000        0x0 ../avr32/src/app_timers.o
 .data          0x00000000        0x0 ../avr32/src/app_timers.o
 .bss           0x00000000        0x0 ../avr32/src/app_timers.o
 .text          0x00000000        0x0 ../avr32/src/bfin.o
 .data          0x00000000        0x0 ../avr32/src/bfin.o
 .bss           0x00000000        0x0 ../avr32/src/bfin.o
 .text.bfin_get_module_version
                0x00000000        0x2 ../avr32/src/bfin.o
 .text.bfin_get_module_name
                0x00000000       0x70 ../avr32/src/bfin.o
 .text          0x00000000        0x0 ../avr32/src/events.o
 .data          0x00000000        0x0 ../avr32/src/events.o
 .bss           0x00000000        0x0 ../avr32/src/events.o
 .text          0x00000000        0x0 ../avr32/src/encoders.o
 .data          0x00000000        0x0 ../avr32/src/encoders.o
 .bss           0x00000000        0x0 ../avr32/src/encoders.o
 .text          0x00000000        0x0 ../avr32/src/files.o
 .data          0x00000000        0x0 ../avr32/src/files.o
 .bss           0x00000000        0x0 ../avr32/src/files.o
 .text.files_get_scene_name
                0x00000000       0x10 ../avr32/src/files.o
 .text.files_store_scene_name
                0x00000000        0x2 ../avr32/src/files.o
 .text.list_get_name
                0x00000000        0x8 ../avr32/src/files.o
 .text.files_store_default_dsp
                0x00000000       0x90 ../avr32/src/files.o
 .text.files_load_scene_name
                0x00000000       0x3c ../avr32/src/files.o
 .text.files_store_default_scene
                0x00000000       0x68 ../avr32/src/files.o
 .text          0x00000000        0x0 ../avr32/src/filesystem.o
 .data          0x00000000        0x0 ../avr32/src/filesystem.o
 .bss           0x00000000        0x0 ../avr32/src/filesystem.o
 .text          0x00000000        0x0 ../avr32/src/flash.o
 .data          0x00000000        0x0 ../avr32/src/flash.o
 .bss           0x00000000        0x0 ../avr32/src/flash.o
 .text.flash_write_ldr
                0x00000000       0x40 ../avr32/src/flash.o
 .text.flash_read_ldr
                0x00000000       0x2c ../avr32/src/flash.o
 .bss.fwBinSize
                0x00000000        0x4 ../avr32/src/flash.o
 .text          0x00000000        0x0 ../avr32/src/font.o
 .data          0x00000000        0x0 ../avr32/src/font.o
 .bss           0x00000000        0x0 ../avr32/src/font.o
 .rodata.font_nglyphs
                0x00000000        0x4 ../avr32/src/font.o
 .text          0x00000000        0x0 ../avr32/src/init.o
 .data          0x00000000        0x0 ../avr32/src/init.o
 .bss           0x00000000        0x0 ../avr32/src/init.o
 .text.init_twi
                0x00000000       0x14 ../avr32/src/init.o
 .rodata.TWI_GPIO_MAP.13505
                0x00000000       0x10 ../avr32/src/init.o
 .text          0x00000000        0x0 ../avr32/src/interrupts.o
 .data          0x00000000        0x0 ../avr32/src/interrupts.o
 .bss           0x00000000        0x0 ../avr32/src/interrupts.o
 .text          0x00000000        0x0 ../avr32/src/memory.o
 .data          0x00000000        0x0 ../avr32/src/memory.o
 .bss           0x00000000        0x0 ../avr32/src/memory.o
 .text.sram_test
                0x00000000        0x2 ../avr32/src/memory.o
 .text          0x00000000        0x0 ../avr32/src/screen.o
 .data          0x00000000        0x0 ../avr32/src/screen.o
 .bss           0x00000000        0x0 ../avr32/src/screen.o
 .text.screen_pixel
                0x00000000       0x4c ../avr32/src/screen.o
 .text.screen_get_pixel
                0x00000000       0x30 ../avr32/src/screen.o
 .text.screen_clear
                0x00000000       0x18 ../avr32/src/screen.o
 .text.screen_char_fixed
                0x00000000      0x358 ../avr32/src/screen.o
 .text.screen_char_squeeze
                0x00000000      0x108 ../avr32/src/screen.o
 .text.screen_string_fixed
                0x00000000      0x3a8 ../avr32/src/screen.o
 .text.screen_fix
                0x00000000       0x38 ../avr32/src/screen.o
 .text.screen_int
                0x00000000       0x3c ../avr32/src/screen.o
 .bss.buf.12359
                0x00000000        0xc ../avr32/src/screen.o
 .bss.buf       0x00000000        0xc ../avr32/src/screen.o
 .text          0x00000000        0x0 ../avr32/src/simple_string.o
 .data          0x00000000        0x0 ../avr32/src/simple_string.o
 .bss           0x00000000        0x0 ../avr32/src/simple_string.o
 .text          0x00000000        0x0 ../avr32/src/switches.o
 .data          0x00000000        0x0 ../avr32/src/switches.o
 .bss           0x00000000        0x0 ../avr32/src/switches.o
 .text          0x00000000        0x0 ../avr32/src/timers.o
 .data          0x00000000        0x0 ../avr32/src/timers.o
 .bss           0x00000000        0x0 ../avr32/src/timers.o
 .text.init_timers
                0x00000000       0x1c ../avr32/src/timers.o
 .text.kill_timer
                0x00000000       0x74 ../avr32/src/timers.o
 .text          0x00000000        0x0 ../avr32/src/main.o
 .data          0x00000000        0x0 ../avr32/src/main.o
 .bss           0x00000000        0x0 ../avr32/src/main.o
 .text          0x00000000        0x0 ../avr32/src/usb.o
 .data          0x00000000        0x0 ../avr32/src/usb.o
 .bss           0x00000000        0x0 ../avr32/src/usb.o
 .text          0x00000000        0x0 ../avr32/src/usb/mouse/hid_mouse.o
 .data          0x00000000        0x0 ../avr32/src/usb/mouse/hid_mouse.o
 .bss           0x00000000        0x0 ../avr32/src/usb/mouse/hid_mouse.o
 .text          0x00000000        0x0 ../avr32/src/usb/mouse/uhi_hid_mouse.o
 .data          0x00000000        0x0 ../avr32/src/usb/mouse/uhi_hid_mouse.o
 .bss           0x00000000        0x0 ../avr32/src/usb/mouse/uhi_hid_mouse.o
 .text          0x00000000        0x0 ../avr32/src/usb/gamepad/hid_gamepad.o
 .data          0x00000000        0x0 ../avr32/src/usb/gamepad/hid_gamepad.o
 .bss           0x00000000        0x0 ../avr32/src/usb/gamepad/hid_gamepad.o
 .debug_abbrev  0x00000000       0x35 ../avr32/src/usb/gamepad/hid_gamepad.o
 .debug_info    0x00000000       0x8f ../avr32/src/usb/gamepad/hid_gamepad.o
 .debug_line    0x00000000      0x73f ../avr32/src/usb/gamepad/hid_gamepad.o
 .debug_macinfo
                0x00000000    0xeb7f0 ../avr32/src/usb/gamepad/hid_gamepad.o
 .debug_str     0x00000000      0x102 ../avr32/src/usb/gamepad/hid_gamepad.o
 .comment       0x00000000       0x31 ../avr32/src/usb/gamepad/hid_gamepad.o
 .text          0x00000000        0x0 ../avr32/src/usb/gamepad/uhi_hid_gamepad.o
 .data          0x00000000        0x0 ../avr32/src/usb/gamepad/uhi_hid_gamepad.o
 .bss           0x00000000        0x0 ../avr32/src/usb/gamepad/uhi_hid_gamepad.o
 .text          0x00000000        0x0 ../avr32/src/fat_io_lib/fat_access.o
 .data          0x00000000        0x0 ../avr32/src/fat_io_lib/fat_access.o
 .bss           0x00000000        0x0 ../avr32/src/fat_io_lib/fat_access.o
 .text.fatfs_show_details
                0x00000000        0x2 ../avr32/src/fat_io_lib/fat_access.o
 .text.fatfs_mark_file_deleted
                0x00000000      0x3d0 ../avr32/src/fat_io_lib/fat_access.o
 .text.fatfs_read_sector
                0x00000000       0xb0 ../avr32/src/fat_io_lib/fat_access.o
 .text          0x00000000        0x0 ../avr32/src/fat_io_lib/fat_cache.o
 .data          0x00000000        0x0 ../avr32/src/fat_io_lib/fat_cache.o
 .bss           0x00000000        0x0 ../avr32/src/fat_io_lib/fat_cache.o
 .text          0x00000000        0x0 ../avr32/src/fat_io_lib/fat_filelib.o
 .data          0x00000000        0x0 ../avr32/src/fat_io_lib/fat_filelib.o
 .bss           0x00000000        0x0 ../avr32/src/fat_io_lib/fat_filelib.o
 .text.fl_attach_locks
                0x00000000        0x8 ../avr32/src/fat_io_lib/fat_filelib.o
 .text.fl_fgetpos
                0x00000000       0x3c ../avr32/src/fat_io_lib/fat_filelib.o
 .text.fl_feof  0x00000000       0x44 ../avr32/src/fat_io_lib/fat_filelib.o
 .text.fl_closedir
                0x00000000        0x2 ../avr32/src/fat_io_lib/fat_filelib.o
 .text.fl_ftell
                0x00000000       0x30 ../avr32/src/fat_io_lib/fat_filelib.o
 .text.fl_fseek
                0x00000000       0xf4 ../avr32/src/fat_io_lib/fat_filelib.o
 .text.fl_is_dir
                0x00000000       0x14 ../avr32/src/fat_io_lib/fat_filelib.o
 .text.fl_listdirectory
                0x00000000       0xdc ../avr32/src/fat_io_lib/fat_filelib.o
 .text.fl_shutdown
                0x00000000       0x6c ../avr32/src/fat_io_lib/fat_filelib.o
 .text.T.95     0x00000000      0x188 ../avr32/src/fat_io_lib/fat_filelib.o
 .text.fl_fputc
                0x00000000       0x28 ../avr32/src/fat_io_lib/fat_filelib.o
 .text.fl_fputs
                0x00000000       0x24 ../avr32/src/fat_io_lib/fat_filelib.o
 .text.fl_fgets
                0x00000000       0x6c ../avr32/src/fat_io_lib/fat_filelib.o
 .text.fl_fread
                0x00000000      0x134 ../avr32/src/fat_io_lib/fat_filelib.o
 .text.fl_fwrite
                0x00000000      0x1c4 ../avr32/src/fat_io_lib/fat_filelib.o
 .text.fl_remove
                0x00000000       0xa8 ../avr32/src/fat_io_lib/fat_filelib.o
 .text.fl_createdirectory
                0x00000000      0x358 ../avr32/src/fat_io_lib/fat_filelib.o
 .text          0x00000000        0x0 ../avr32/src/fat_io_lib/fat_format.o
 .data          0x00000000        0x0 ../avr32/src/fat_io_lib/fat_format.o
 .bss           0x00000000        0x0 ../avr32/src/fat_io_lib/fat_format.o
 .debug_abbrev  0x00000000      0x1b6 ../avr32/src/fat_io_lib/fat_format.o
 .debug_info    0x00000000      0x4d3 ../avr32/src/fat_io_lib/fat_format.o
 .debug_line    0x00000000      0x725 ../avr32/src/fat_io_lib/fat_format.o
 .debug_macinfo
                0x00000000     0x42c0 ../avr32/src/fat_io_lib/fat_format.o
 .text.fatfs_erase_fat
                0x00000000       0x74 ../avr32/src/fat_io_lib/fat_format.o
 .text.fatfs_create_boot_sector
                0x00000000      0x2a8 ../avr32/src/fat_io_lib/fat_format.o
 .text.fatfs_format_fat16
                0x00000000       0xc4 ../avr32/src/fat_io_lib/fat_format.o
 .data._cluster_size_table
                0x00000000       0x40 ../avr32/src/fat_io_lib/fat_format.o
 .debug_frame   0x00000000       0x80 ../avr32/src/fat_io_lib/fat_format.o
 .debug_loc     0x00000000      0x189 ../avr32/src/fat_io_lib/fat_format.o
 .debug_pubnames
                0x00000000       0x72 ../avr32/src/fat_io_lib/fat_format.o
 .debug_aranges
                0x00000000       0x30 ../avr32/src/fat_io_lib/fat_format.o
 .debug_ranges  0x00000000       0xa8 ../avr32/src/fat_io_lib/fat_format.o
 .debug_str     0x00000000      0x391 ../avr32/src/fat_io_lib/fat_format.o
 .comment       0x00000000       0x31 ../avr32/src/fat_io_lib/fat_format.o
 .text          0x00000000        0x0 ../avr32/src/fat_io_lib/fat_misc.o
 .data          0x00000000        0x0 ../avr32/src/fat_io_lib/fat_misc.o
 .bss           0x00000000        0x0 ../avr32/src/fat_io_lib/fat_misc.o
 .text          0x00000000        0x0 ../avr32/src/fat_io_lib/fat_string.o
 .data          0x00000000        0x0 ../avr32/src/fat_io_lib/fat_string.o
 .bss           0x00000000        0x0 ../avr32/src/fat_io_lib/fat_string.o
 .text.fatfs_string_ends_with_slash
                0x00000000       0x38 ../avr32/src/fat_io_lib/fat_string.o
 .text.fatfs_get_extension
                0x00000000       0x80 ../avr32/src/fat_io_lib/fat_string.o
 .text.fatfs_create_path_string
                0x00000000       0x9e ../avr32/src/fat_io_lib/fat_string.o
 .text          0x00000000        0x0 ../avr32/src/fat_io_lib/fat_table.o
 .data          0x00000000        0x0 ../avr32/src/fat_io_lib/fat_table.o
 .bss           0x00000000        0x0 ../avr32/src/fat_io_lib/fat_table.o
 .text.fatfs_count_free_clusters
                0x00000000      0x14e ../avr32/src/fat_io_lib/fat_table.o
 .text          0x00000000        0x0 ../avr32/src/fat_io_lib/fat_write.o
 .data          0x00000000        0x0 ../avr32/src/fat_io_lib/fat_write.o
 .bss           0x00000000        0x0 ../avr32/src/fat_io_lib/fat_write.o
 .text          0x00000000        0x0 ../common/fix.o
 .data          0x00000000        0x0 ../common/fix.o
 .bss           0x00000000        0x0 ../common/fix.o
 .text.itoa_fract
                0x00000000       0xb4 ../common/fix.o
 .text          0x00000000        0x0 ../common/libfixmath/fix16.o
 .data          0x00000000        0x0 ../common/libfixmath/fix16.o
 .bss           0x00000000        0x0 ../common/libfixmath/fix16.o
 .text.fix16_sadd
                0x00000000       0x30 ../common/libfixmath/fix16.o
 .text.fix16_ssub
                0x00000000       0x38 ../common/libfixmath/fix16.o
 .text.fix16_smul
                0x00000000       0x78 ../common/libfixmath/fix16.o
 .text.fix16_lerp8
                0x00000000       0x34 ../common/libfixmath/fix16.o
 .text.fix16_lerp16
                0x00000000       0x36 ../common/libfixmath/fix16.o
 .text.fix16_lerp32
                0x00000000       0x2e ../common/libfixmath/fix16.o
 .text.fix16_div
                0x00000000       0xc8 ../common/libfixmath/fix16.o
 .text.fix16_sdiv
                0x00000000       0x30 ../common/libfixmath/fix16.o
 .text          0x00000000        0x0 ../avr32/apps/bees/src/app.o
 .data          0x00000000        0x0 ../avr32/apps/bees/src/app.o
 .bss           0x00000000        0x0 ../avr32/apps/bees/src/app.o
 .text          0x00000000        0x0 ../avr32/apps/bees/src/key_handler.o
 .data          0x00000000        0x0 ../avr32/apps/bees/src/key_handler.o
 .bss           0x00000000        0x0 ../avr32/apps/bees/src/key_handler.o
 .text          0x00000000        0x0 ../avr32/apps/bees/src/menu.o
 .data          0x00000000        0x0 ../avr32/apps/bees/src/menu.o
 .bss           0x00000000        0x0 ../avr32/apps/bees/src/menu.o
 .text.menu_deinit
                0x00000000        0x2 ../avr32/apps/bees/src/menu.o
 .text.menu_refresh
                0x00000000       0x10 ../avr32/apps/bees/src/menu.o
 .text.scroll_select_wrap
                0x00000000       0x4c ../avr32/apps/bees/src/menu.o
 .text          0x00000000        0x0 ../avr32/apps/bees/src/net.o
 .data          0x00000000        0x0 ../avr32/apps/bees/src/net.o
 .bss           0x00000000        0x0 ../avr32/apps/bees/src/net.o
 .text.net_deinit
                0x00000000        0x2 ../avr32/apps/bees/src/net.o
 .text.net_init_inode
                0x00000000       0x24 ../avr32/apps/bees/src/net.o
 .text.net_init_onode
                0x00000000       0x38 ../avr32/apps/bees/src/net.o
 .text.net_remove_op
                0x00000000      0x27c ../avr32/apps/bees/src/net.o
 .text.net_num_params
                0x00000000       0x14 ../avr32/apps/bees/src/net.o
 .text.net_in_connected
                0x00000000       0x40 ../avr32/apps/bees/src/net.o
 .text.net_toggle_out_preset
                0x00000000       0x2c ../avr32/apps/bees/src/net.o
 .text.net_set_in_preset
                0x00000000       0x14 ../avr32/apps/bees/src/net.o
 .text.net_set_out_preset
                0x00000000       0x18 ../avr32/apps/bees/src/net.o
 .text          0x00000000        0x0 ../avr32/apps/bees/src/op.o
 .data          0x00000000        0x0 ../avr32/apps/bees/src/op.o
 .bss           0x00000000        0x0 ../avr32/apps/bees/src/op.o
 .text.op_init  0x00000000       0x80 ../avr32/apps/bees/src/op.o
 .text          0x00000000        0x0 ../avr32/apps/bees/src/param.o
 .data          0x00000000        0x0 ../avr32/apps/bees/src/param.o
 .bss           0x00000000        0x0 ../avr32/apps/bees/src/param.o
 .text.get_param_name
                0x00000000       0x18 ../avr32/apps/bees/src/param.o
 .text          0x00000000        0x0 ../avr32/apps/bees/src/play.o
 .data          0x00000000        0x0 ../avr32/apps/bees/src/play.o
 .bss           0x00000000        0x0 ../avr32/apps/bees/src/play.o
 .text.play_param
                0x00000000        0x2 ../avr32/apps/bees/src/play.o
 .text          0x00000000        0x0 ../avr32/apps/bees/src/preset.o
 .data          0x00000000        0x0 ../avr32/apps/bees/src/preset.o
 .bss           0x00000000        0x0 ../avr32/apps/bees/src/preset.o
 .text.preset_deinit
                0x00000000        0x2 ../avr32/apps/bees/src/preset.o
 .text.preset_store_in
                0x00000000       0x44 ../avr32/apps/bees/src/preset.o
 .text.preset_store_out
                0x00000000       0x4c ../avr32/apps/bees/src/preset.o
 .text          0x00000000        0x0 ../avr32/apps/bees/src/redraw.o
 .data          0x00000000        0x0 ../avr32/apps/bees/src/redraw.o
 .bss           0x00000000        0x0 ../avr32/apps/bees/src/redraw.o
 .text          0x00000000        0x0 ../avr32/apps/bees/src/scene.o
 .data          0x00000000        0x0 ../avr32/apps/bees/src/scene.o
 .bss           0x00000000        0x0 ../avr32/apps/bees/src/scene.o
 .text.scene_deinit
                0x00000000        0x2 ../avr32/apps/bees/src/scene.o
 .text.scene_write_buf
                0x00000000       0x3c ../avr32/apps/bees/src/scene.o
 .text          0x00000000        0x0 ../avr32/apps/bees/src/ops/op_add.o
 .data          0x00000000        0x0 ../avr32/apps/bees/src/ops/op_add.o
 .bss           0x00000000        0x0 ../avr32/apps/bees/src/ops/op_add.o
 .text          0x00000000        0x0 ../avr32/apps/bees/src/ops/op_enc.o
 .data          0x00000000        0x0 ../avr32/apps/bees/src/ops/op_enc.o
 .bss           0x00000000        0x0 ../avr32/apps/bees/src/ops/op_enc.o
 .text          0x00000000        0x0 ../avr32/apps/bees/src/ops/op_gate.o
 .data          0x00000000        0x0 ../avr32/apps/bees/src/ops/op_gate.o
 .bss           0x00000000        0x0 ../avr32/apps/bees/src/ops/op_gate.o
 .text          0x00000000        0x0 ../avr32/apps/bees/src/ops/op_mul.o
 .data          0x00000000        0x0 ../avr32/apps/bees/src/ops/op_mul.o
 .bss           0x00000000        0x0 ../avr32/apps/bees/src/ops/op_mul.o
 .text          0x00000000        0x0 ../avr32/apps/bees/src/ops/op_sw.o
 .data          0x00000000        0x0 ../avr32/apps/bees/src/ops/op_sw.o
 .bss           0x00000000        0x0 ../avr32/apps/bees/src/ops/op_sw.o
 .text          0x00000000        0x0 avr32/drivers/intc/exception.o
 .data          0x00000000        0x0 avr32/drivers/intc/exception.o
 .bss           0x00000000        0x0 avr32/drivers/intc/exception.o
 .text          0x00000000        0x0 avr32/utils/startup/startup_uc3.o
 .data          0x00000000        0x0 avr32/utils/startup/startup_uc3.o
 .bss           0x00000000        0x0 avr32/utils/startup/startup_uc3.o
 .reset         0x00000000        0x8 avr32/utils/startup/startup_uc3.o
 .text          0x00000000        0x0 avr32/utils/startup/trampoline_uc3.o
 .data          0x00000000        0x0 avr32/utils/startup/trampoline_uc3.o
 .bss           0x00000000        0x0 avr32/utils/startup/trampoline_uc3.o
 .data          0x00000000        0x0 /home/emb/avr32-gnu-toolchain/bin/../lib/gcc/avr32/4.4.3/ucr2/libgcc.a(_avr32_s32_to_f32.o)
 .bss           0x00000000        0x0 /home/emb/avr32-gnu-toolchain/bin/../lib/gcc/avr32/4.4.3/ucr2/libgcc.a(_avr32_s32_to_f32.o)
 .data          0x00000000        0x0 /home/emb/avr32-gnu-toolchain/bin/../lib/gcc/avr32/4.4.3/ucr2/libgcc.a(_avr32_f32_to_s32.o)
 .bss           0x00000000        0x0 /home/emb/avr32-gnu-toolchain/bin/../lib/gcc/avr32/4.4.3/ucr2/libgcc.a(_avr32_f32_to_s32.o)
 .data          0x00000000        0x0 /home/emb/avr32-gnu-toolchain/bin/../lib/gcc/avr32/4.4.3/ucr2/libgcc.a(_udivdi3.o)
 .bss           0x00000000        0x0 /home/emb/avr32-gnu-toolchain/bin/../lib/gcc/avr32/4.4.3/ucr2/libgcc.a(_udivdi3.o)
 .text          0x00000000        0x0 /home/emb/avr32-gnu-toolchain/bin/../lib/gcc/avr32/4.4.3/../../../../avr32/lib/ucr2/libc.a(lib_a-malloc.o)
 .data          0x00000000        0x0 /home/emb/avr32-gnu-toolchain/bin/../lib/gcc/avr32/4.4.3/../../../../avr32/lib/ucr2/libc.a(lib_a-malloc.o)
 .bss           0x00000000        0x0 /home/emb/avr32-gnu-toolchain/bin/../lib/gcc/avr32/4.4.3/../../../../avr32/lib/ucr2/libc.a(lib_a-malloc.o)
 .text          0x00000000        0x0 /home/emb/avr32-gnu-toolchain/bin/../lib/gcc/avr32/4.4.3/../../../../avr32/lib/ucr2/libc.a(lib_a-mallocr.o)
 .data          0x00000000        0x0 /home/emb/avr32-gnu-toolchain/bin/../lib/gcc/avr32/4.4.3/../../../../avr32/lib/ucr2/libc.a(lib_a-mallocr.o)
 .bss           0x00000000        0x0 /home/emb/avr32-gnu-toolchain/bin/../lib/gcc/avr32/4.4.3/../../../../avr32/lib/ucr2/libc.a(lib_a-mallocr.o)
 .data          0x00000000        0x0 /home/emb/avr32-gnu-toolchain/bin/../lib/gcc/avr32/4.4.3/../../../../avr32/lib/ucr2/libc.a(lib_a-memcpy.o)
 .bss           0x00000000        0x0 /home/emb/avr32-gnu-toolchain/bin/../lib/gcc/avr32/4.4.3/../../../../avr32/lib/ucr2/libc.a(lib_a-memcpy.o)
 .text          0x00000000        0x0 /home/emb/avr32-gnu-toolchain/bin/../lib/gcc/avr32/4.4.3/../../../../avr32/lib/ucr2/libc.a(lib_a-memset.o)
 .data          0x00000000        0x0 /home/emb/avr32-gnu-toolchain/bin/../lib/gcc/avr32/4.4.3/../../../../avr32/lib/ucr2/libc.a(lib_a-memset.o)
 .bss           0x00000000        0x0 /home/emb/avr32-gnu-toolchain/bin/../lib/gcc/avr32/4.4.3/../../../../avr32/lib/ucr2/libc.a(lib_a-memset.o)
 .text          0x00000000        0x0 /home/emb/avr32-gnu-toolchain/bin/../lib/gcc/avr32/4.4.3/../../../../avr32/lib/ucr2/libc.a(lib_a-mlock.o)
 .data          0x00000000        0x0 /home/emb/avr32-gnu-toolchain/bin/../lib/gcc/avr32/4.4.3/../../../../avr32/lib/ucr2/libc.a(lib_a-mlock.o)
 .bss           0x00000000        0x0 /home/emb/avr32-gnu-toolchain/bin/../lib/gcc/avr32/4.4.3/../../../../avr32/lib/ucr2/libc.a(lib_a-mlock.o)
 .text          0x00000000        0x0 /home/emb/avr32-gnu-toolchain/bin/../lib/gcc/avr32/4.4.3/../../../../avr32/lib/ucr2/libc.a(lib_a-sbrkr.o)
 .data          0x00000000        0x0 /home/emb/avr32-gnu-toolchain/bin/../lib/gcc/avr32/4.4.3/../../../../avr32/lib/ucr2/libc.a(lib_a-sbrkr.o)
 .bss           0x00000000        0x0 /home/emb/avr32-gnu-toolchain/bin/../lib/gcc/avr32/4.4.3/../../../../avr32/lib/ucr2/libc.a(lib_a-sbrkr.o)
 .data          0x00000000        0x0 /home/emb/avr32-gnu-toolchain/bin/../lib/gcc/avr32/4.4.3/../../../../avr32/lib/ucr2/libc.a(lib_a-strcmp.o)
 .bss           0x00000000        0x0 /home/emb/avr32-gnu-toolchain/bin/../lib/gcc/avr32/4.4.3/../../../../avr32/lib/ucr2/libc.a(lib_a-strcmp.o)
 .text          0x00000000        0x0 /home/emb/avr32-gnu-toolchain/bin/../lib/gcc/avr32/4.4.3/../../../../avr32/lib/ucr2/libc.a(lib_a-strcpy.o)
 .data          0x00000000        0x0 /home/emb/avr32-gnu-toolchain/bin/../lib/gcc/avr32/4.4.3/../../../../avr32/lib/ucr2/libc.a(lib_a-strcpy.o)
 .bss           0x00000000        0x0 /home/emb/avr32-gnu-toolchain/bin/../lib/gcc/avr32/4.4.3/../../../../avr32/lib/ucr2/libc.a(lib_a-strcpy.o)
 .text          0x00000000        0x0 /home/emb/avr32-gnu-toolchain/bin/../lib/gcc/avr32/4.4.3/../../../../avr32/lib/ucr2/libc.a(lib_a-strlen.o)
 .data          0x00000000        0x0 /home/emb/avr32-gnu-toolchain/bin/../lib/gcc/avr32/4.4.3/../../../../avr32/lib/ucr2/libc.a(lib_a-strlen.o)
 .bss           0x00000000        0x0 /home/emb/avr32-gnu-toolchain/bin/../lib/gcc/avr32/4.4.3/../../../../avr32/lib/ucr2/libc.a(lib_a-strlen.o)
 .text          0x00000000        0x0 /home/emb/avr32-gnu-toolchain/bin/../lib/gcc/avr32/4.4.3/../../../../avr32/lib/ucr2/libc.a(lib_a-strncat.o)
 .data          0x00000000        0x0 /home/emb/avr32-gnu-toolchain/bin/../lib/gcc/avr32/4.4.3/../../../../avr32/lib/ucr2/libc.a(lib_a-strncat.o)
 .bss           0x00000000        0x0 /home/emb/avr32-gnu-toolchain/bin/../lib/gcc/avr32/4.4.3/../../../../avr32/lib/ucr2/libc.a(lib_a-strncat.o)
 .text          0x00000000        0x0 /home/emb/avr32-gnu-toolchain/bin/../lib/gcc/avr32/4.4.3/../../../../avr32/lib/ucr2/libc.a(lib_a-strncmp.o)
 .data          0x00000000        0x0 /home/emb/avr32-gnu-toolchain/bin/../lib/gcc/avr32/4.4.3/../../../../avr32/lib/ucr2/libc.a(lib_a-strncmp.o)
 .bss           0x00000000        0x0 /home/emb/avr32-gnu-toolchain/bin/../lib/gcc/avr32/4.4.3/../../../../avr32/lib/ucr2/libc.a(lib_a-strncmp.o)
 .data          0x00000000        0x0 /home/emb/avr32-gnu-toolchain/bin/../lib/gcc/avr32/4.4.3/../../../../avr32/lib/ucr2/libc.a(lib_a-strncpy.o)
 .bss           0x00000000        0x0 /home/emb/avr32-gnu-toolchain/bin/../lib/gcc/avr32/4.4.3/../../../../avr32/lib/ucr2/libc.a(lib_a-strncpy.o)
 .text          0x00000000        0x0 /home/emb/avr32-gnu-toolchain/bin/../lib/gcc/avr32/4.4.3/../../../../avr32/lib/ucr2/libc.a(lib_a-syscalls.o)
 .data          0x00000000        0x0 /home/emb/avr32-gnu-toolchain/bin/../lib/gcc/avr32/4.4.3/../../../../avr32/lib/ucr2/libc.a(lib_a-syscalls.o)
 .bss           0x00000000        0x0 /home/emb/avr32-gnu-toolchain/bin/../lib/gcc/avr32/4.4.3/../../../../avr32/lib/ucr2/libc.a(lib_a-syscalls.o)
 .text._init_startup
                0x00000000        0x2 /home/emb/avr32-gnu-toolchain/bin/../lib/gcc/avr32/4.4.3/../../../../avr32/lib/ucr2/libc.a(lib_a-syscalls.o)
 .text._init_argv
                0x00000000        0xa /home/emb/avr32-gnu-toolchain/bin/../lib/gcc/avr32/4.4.3/../../../../avr32/lib/ucr2/libc.a(lib_a-syscalls.o)
 .text._exit    0x00000000        0xa /home/emb/avr32-gnu-toolchain/bin/../lib/gcc/avr32/4.4.3/../../../../avr32/lib/ucr2/libc.a(lib_a-syscalls.o)
 .text._open    0x00000000       0x18 /home/emb/avr32-gnu-toolchain/bin/../lib/gcc/avr32/4.4.3/../../../../avr32/lib/ucr2/libc.a(lib_a-syscalls.o)
 .text._close   0x00000000       0x18 /home/emb/avr32-gnu-toolchain/bin/../lib/gcc/avr32/4.4.3/../../../../avr32/lib/ucr2/libc.a(lib_a-syscalls.o)
 .text._lseek   0x00000000       0x18 /home/emb/avr32-gnu-toolchain/bin/../lib/gcc/avr32/4.4.3/../../../../avr32/lib/ucr2/libc.a(lib_a-syscalls.o)
 .text._read    0x00000000       0x18 /home/emb/avr32-gnu-toolchain/bin/../lib/gcc/avr32/4.4.3/../../../../avr32/lib/ucr2/libc.a(lib_a-syscalls.o)
 .text._write   0x00000000       0x18 /home/emb/avr32-gnu-toolchain/bin/../lib/gcc/avr32/4.4.3/../../../../avr32/lib/ucr2/libc.a(lib_a-syscalls.o)
 .text.isatty   0x00000000       0x18 /home/emb/avr32-gnu-toolchain/bin/../lib/gcc/avr32/4.4.3/../../../../avr32/lib/ucr2/libc.a(lib_a-syscalls.o)
 .text._fstat_host
                0x00000000       0x18 /home/emb/avr32-gnu-toolchain/bin/../lib/gcc/avr32/4.4.3/../../../../avr32/lib/ucr2/libc.a(lib_a-syscalls.o)
 .text._stat_host
                0x00000000       0x18 /home/emb/avr32-gnu-toolchain/bin/../lib/gcc/avr32/4.4.3/../../../../avr32/lib/ucr2/libc.a(lib_a-syscalls.o)
 .text._fstat   0x00000000       0x50 /home/emb/avr32-gnu-toolchain/bin/../lib/gcc/avr32/4.4.3/../../../../avr32/lib/ucr2/libc.a(lib_a-syscalls.o)
 .text._stat    0x00000000       0x50 /home/emb/avr32-gnu-toolchain/bin/../lib/gcc/avr32/4.4.3/../../../../avr32/lib/ucr2/libc.a(lib_a-syscalls.o)
 .text._gettimeofday_host
                0x00000000       0x18 /home/emb/avr32-gnu-toolchain/bin/../lib/gcc/avr32/4.4.3/../../../../avr32/lib/ucr2/libc.a(lib_a-syscalls.o)
 .text._gettimeofday
                0x00000000       0x24 /home/emb/avr32-gnu-toolchain/bin/../lib/gcc/avr32/4.4.3/../../../../avr32/lib/ucr2/libc.a(lib_a-syscalls.o)
 .text._unlink  0x00000000       0x18 /home/emb/avr32-gnu-toolchain/bin/../lib/gcc/avr32/4.4.3/../../../../avr32/lib/ucr2/libc.a(lib_a-syscalls.o)
 .text._system  0x00000000       0x18 /home/emb/avr32-gnu-toolchain/bin/../lib/gcc/avr32/4.4.3/../../../../avr32/lib/ucr2/libc.a(lib_a-syscalls.o)
 .text._execve  0x00000000        0x2 /home/emb/avr32-gnu-toolchain/bin/../lib/gcc/avr32/4.4.3/../../../../avr32/lib/ucr2/libc.a(lib_a-syscalls.o)
 .text._fork    0x00000000        0x2 /home/emb/avr32-gnu-toolchain/bin/../lib/gcc/avr32/4.4.3/../../../../avr32/lib/ucr2/libc.a(lib_a-syscalls.o)
 .text._wait    0x00000000        0x2 /home/emb/avr32-gnu-toolchain/bin/../lib/gcc/avr32/4.4.3/../../../../avr32/lib/ucr2/libc.a(lib_a-syscalls.o)
 .text.sigfillset
                0x00000000        0x2 /home/emb/avr32-gnu-toolchain/bin/../lib/gcc/avr32/4.4.3/../../../../avr32/lib/ucr2/libc.a(lib_a-syscalls.o)
 .text.sigprocmask
                0x00000000        0x2 /home/emb/avr32-gnu-toolchain/bin/../lib/gcc/avr32/4.4.3/../../../../avr32/lib/ucr2/libc.a(lib_a-syscalls.o)
 .text._fcntl   0x00000000        0x2 /home/emb/avr32-gnu-toolchain/bin/../lib/gcc/avr32/4.4.3/../../../../avr32/lib/ucr2/libc.a(lib_a-syscalls.o)
 .text._link    0x00000000        0x2 /home/emb/avr32-gnu-toolchain/bin/../lib/gcc/avr32/4.4.3/../../../../avr32/lib/ucr2/libc.a(lib_a-syscalls.o)
 .text._kill    0x00000000        0x2 /home/emb/avr32-gnu-toolchain/bin/../lib/gcc/avr32/4.4.3/../../../../avr32/lib/ucr2/libc.a(lib_a-syscalls.o)
 .text._getpid  0x00000000        0x2 /home/emb/avr32-gnu-toolchain/bin/../lib/gcc/avr32/4.4.3/../../../../avr32/lib/ucr2/libc.a(lib_a-syscalls.o)
 .text._times   0x00000000       0x12 /home/emb/avr32-gnu-toolchain/bin/../lib/gcc/avr32/4.4.3/../../../../avr32/lib/ucr2/libc.a(lib_a-syscalls.o)
 .text          0x00000000        0x0 /home/emb/avr32-gnu-toolchain/bin/../lib/gcc/avr32/4.4.3/../../../../avr32/lib/ucr2/libc.a(lib_a-errno.o)
 .data          0x00000000        0x0 /home/emb/avr32-gnu-toolchain/bin/../lib/gcc/avr32/4.4.3/../../../../avr32/lib/ucr2/libc.a(lib_a-errno.o)
 .bss           0x00000000        0x0 /home/emb/avr32-gnu-toolchain/bin/../lib/gcc/avr32/4.4.3/../../../../avr32/lib/ucr2/libc.a(lib_a-errno.o)
 .text          0x00000000        0x0 /home/emb/avr32-gnu-toolchain/bin/../lib/gcc/avr32/4.4.3/../../../../avr32/lib/ucr2/libc.a(lib_a-freer.o)
 .data          0x00000000        0x0 /home/emb/avr32-gnu-toolchain/bin/../lib/gcc/avr32/4.4.3/../../../../avr32/lib/ucr2/libc.a(lib_a-freer.o)
 .bss           0x00000000        0x0 /home/emb/avr32-gnu-toolchain/bin/../lib/gcc/avr32/4.4.3/../../../../avr32/lib/ucr2/libc.a(lib_a-freer.o)
 .text          0x00000000        0x0 /home/emb/avr32-gnu-toolchain/bin/../lib/gcc/avr32/4.4.3/../../../../avr32/lib/ucr2/libc.a(lib_a-impure.o)
 .data          0x00000000        0x0 /home/emb/avr32-gnu-toolchain/bin/../lib/gcc/avr32/4.4.3/../../../../avr32/lib/ucr2/libc.a(lib_a-impure.o)
 .bss           0x00000000        0x0 /home/emb/avr32-gnu-toolchain/bin/../lib/gcc/avr32/4.4.3/../../../../avr32/lib/ucr2/libc.a(lib_a-impure.o)
 .rodata._global_impure_ptr
                0x00000000        0x4 /home/emb/avr32-gnu-toolchain/bin/../lib/gcc/avr32/4.4.3/../../../../avr32/lib/ucr2/libc.a(lib_a-impure.o)
 .text          0x00000000        0x0 /home/emb/avr32-gnu-toolchain/bin/../lib/gcc/avr32/4.4.3/../../../../avr32/lib/ucr2/libc.a(lib_a-reent.o)
 .data          0x00000000        0x0 /home/emb/avr32-gnu-toolchain/bin/../lib/gcc/avr32/4.4.3/../../../../avr32/lib/ucr2/libc.a(lib_a-reent.o)
 .bss           0x00000000        0x0 /home/emb/avr32-gnu-toolchain/bin/../lib/gcc/avr32/4.4.3/../../../../avr32/lib/ucr2/libc.a(lib_a-reent.o)
 .text._wrapup_reent
                0x00000000       0x3c /home/emb/avr32-gnu-toolchain/bin/../lib/gcc/avr32/4.4.3/../../../../avr32/lib/ucr2/libc.a(lib_a-reent.o)
 .text.cleanup_glue
                0x00000000       0x24 /home/emb/avr32-gnu-toolchain/bin/../lib/gcc/avr32/4.4.3/../../../../avr32/lib/ucr2/libc.a(lib_a-reent.o)
 .text._reclaim_reent
                0x00000000       0xd4 /home/emb/avr32-gnu-toolchain/bin/../lib/gcc/avr32/4.4.3/../../../../avr32/lib/ucr2/libc.a(lib_a-reent.o)
 .text          0x00000000        0x0 /home/emb/avr32-gnu-toolchain/bin/../lib/gcc/avr32/4.4.3/../../../../avr32/lib/ucr2/libc.a(lib_a-findfp.o)
 .data          0x00000000        0x0 /home/emb/avr32-gnu-toolchain/bin/../lib/gcc/avr32/4.4.3/../../../../avr32/lib/ucr2/libc.a(lib_a-findfp.o)
 .bss           0x00000000        0x0 /home/emb/avr32-gnu-toolchain/bin/../lib/gcc/avr32/4.4.3/../../../../avr32/lib/ucr2/libc.a(lib_a-findfp.o)
 .text.__sfp_lock_acquire
                0x00000000        0x2 /home/emb/avr32-gnu-toolchain/bin/../lib/gcc/avr32/4.4.3/../../../../avr32/lib/ucr2/libc.a(lib_a-findfp.o)
 .text.__sfp_lock_release
                0x00000000        0x2 /home/emb/avr32-gnu-toolchain/bin/../lib/gcc/avr32/4.4.3/../../../../avr32/lib/ucr2/libc.a(lib_a-findfp.o)
 .text.__sinit_lock_acquire
                0x00000000        0x2 /home/emb/avr32-gnu-toolchain/bin/../lib/gcc/avr32/4.4.3/../../../../avr32/lib/ucr2/libc.a(lib_a-findfp.o)
 .text.__sinit_lock_release
                0x00000000        0x2 /home/emb/avr32-gnu-toolchain/bin/../lib/gcc/avr32/4.4.3/../../../../avr32/lib/ucr2/libc.a(lib_a-findfp.o)
 .text.__fp_lock
                0x00000000        0x2 /home/emb/avr32-gnu-toolchain/bin/../lib/gcc/avr32/4.4.3/../../../../avr32/lib/ucr2/libc.a(lib_a-findfp.o)
 .text.__fp_unlock
                0x00000000        0x2 /home/emb/avr32-gnu-toolchain/bin/../lib/gcc/avr32/4.4.3/../../../../avr32/lib/ucr2/libc.a(lib_a-findfp.o)
 .text.__fp_unlock_all
                0x00000000       0x1c /home/emb/avr32-gnu-toolchain/bin/../lib/gcc/avr32/4.4.3/../../../../avr32/lib/ucr2/libc.a(lib_a-findfp.o)
 .text.__fp_lock_all
                0x00000000       0x1c /home/emb/avr32-gnu-toolchain/bin/../lib/gcc/avr32/4.4.3/../../../../avr32/lib/ucr2/libc.a(lib_a-findfp.o)
 .text._cleanup_r
                0x00000000       0x14 /home/emb/avr32-gnu-toolchain/bin/../lib/gcc/avr32/4.4.3/../../../../avr32/lib/ucr2/libc.a(lib_a-findfp.o)
 .text._cleanup
                0x00000000       0x14 /home/emb/avr32-gnu-toolchain/bin/../lib/gcc/avr32/4.4.3/../../../../avr32/lib/ucr2/libc.a(lib_a-findfp.o)
 .text.__sfmoreglue
                0x00000000       0x30 /home/emb/avr32-gnu-toolchain/bin/../lib/gcc/avr32/4.4.3/../../../../avr32/lib/ucr2/libc.a(lib_a-findfp.o)
 .text.__sfp    0x00000000       0x7c /home/emb/avr32-gnu-toolchain/bin/../lib/gcc/avr32/4.4.3/../../../../avr32/lib/ucr2/libc.a(lib_a-findfp.o)
 .text.__sinit  0x00000000       0xb0 /home/emb/avr32-gnu-toolchain/bin/../lib/gcc/avr32/4.4.3/../../../../avr32/lib/ucr2/libc.a(lib_a-findfp.o)
 .text          0x00000000        0x0 /home/emb/avr32-gnu-toolchain/bin/../lib/gcc/avr32/4.4.3/../../../../avr32/lib/ucr2/libc.a(lib_a-fwalk.o)
 .data          0x00000000        0x0 /home/emb/avr32-gnu-toolchain/bin/../lib/gcc/avr32/4.4.3/../../../../avr32/lib/ucr2/libc.a(lib_a-fwalk.o)
 .bss           0x00000000        0x0 /home/emb/avr32-gnu-toolchain/bin/../lib/gcc/avr32/4.4.3/../../../../avr32/lib/ucr2/libc.a(lib_a-fwalk.o)
 .text._fwalk_reent
                0x00000000       0x58 /home/emb/avr32-gnu-toolchain/bin/../lib/gcc/avr32/4.4.3/../../../../avr32/lib/ucr2/libc.a(lib_a-fwalk.o)
 .text._fwalk   0x00000000       0x54 /home/emb/avr32-gnu-toolchain/bin/../lib/gcc/avr32/4.4.3/../../../../avr32/lib/ucr2/libc.a(lib_a-fwalk.o)
 .comment       0x00000000       0x31 /home/emb/avr32-gnu-toolchain/bin/../lib/gcc/avr32/4.4.3/../../../../avr32/lib/ucr2/libc.a(lib_a-fwalk.o)
 .text          0x00000000        0x0 /home/emb/avr32-gnu-toolchain/bin/../lib/gcc/avr32/4.4.3/../../../../avr32/lib/ucr2/libc.a(lib_a-stdio.o)
 .data          0x00000000        0x0 /home/emb/avr32-gnu-toolchain/bin/../lib/gcc/avr32/4.4.3/../../../../avr32/lib/ucr2/libc.a(lib_a-stdio.o)
 .bss           0x00000000        0x0 /home/emb/avr32-gnu-toolchain/bin/../lib/gcc/avr32/4.4.3/../../../../avr32/lib/ucr2/libc.a(lib_a-stdio.o)
 .text.__sclose
                0x00000000       0x10 /home/emb/avr32-gnu-toolchain/bin/../lib/gcc/avr32/4.4.3/../../../../avr32/lib/ucr2/libc.a(lib_a-stdio.o)
 .text.__sseek  0x00000000       0x2c /home/emb/avr32-gnu-toolchain/bin/../lib/gcc/avr32/4.4.3/../../../../avr32/lib/ucr2/libc.a(lib_a-stdio.o)
 .text.__swrite
                0x00000000       0x38 /home/emb/avr32-gnu-toolchain/bin/../lib/gcc/avr32/4.4.3/../../../../avr32/lib/ucr2/libc.a(lib_a-stdio.o)
 .text.__sread  0x00000000       0x24 /home/emb/avr32-gnu-toolchain/bin/../lib/gcc/avr32/4.4.3/../../../../avr32/lib/ucr2/libc.a(lib_a-stdio.o)
 .comment       0x00000000       0x31 /home/emb/avr32-gnu-toolchain/bin/../lib/gcc/avr32/4.4.3/../../../../avr32/lib/ucr2/libc.a(lib_a-stdio.o)
 .text          0x00000000        0x0 /home/emb/avr32-gnu-toolchain/bin/../lib/gcc/avr32/4.4.3/../../../../avr32/lib/ucr2/libc.a(lib_a-writer.o)
 .data          0x00000000        0x0 /home/emb/avr32-gnu-toolchain/bin/../lib/gcc/avr32/4.4.3/../../../../avr32/lib/ucr2/libc.a(lib_a-writer.o)
 .bss           0x00000000        0x0 /home/emb/avr32-gnu-toolchain/bin/../lib/gcc/avr32/4.4.3/../../../../avr32/lib/ucr2/libc.a(lib_a-writer.o)
 .text._write_r
                0x00000000       0x2c /home/emb/avr32-gnu-toolchain/bin/../lib/gcc/avr32/4.4.3/../../../../avr32/lib/ucr2/libc.a(lib_a-writer.o)
 .comment       0x00000000       0x31 /home/emb/avr32-gnu-toolchain/bin/../lib/gcc/avr32/4.4.3/../../../../avr32/lib/ucr2/libc.a(lib_a-writer.o)
 .text          0x00000000        0x0 /home/emb/avr32-gnu-toolchain/bin/../lib/gcc/avr32/4.4.3/../../../../avr32/lib/ucr2/libc.a(lib_a-closer.o)
 .data          0x00000000        0x0 /home/emb/avr32-gnu-toolchain/bin/../lib/gcc/avr32/4.4.3/../../../../avr32/lib/ucr2/libc.a(lib_a-closer.o)
 .bss           0x00000000        0x0 /home/emb/avr32-gnu-toolchain/bin/../lib/gcc/avr32/4.4.3/../../../../avr32/lib/ucr2/libc.a(lib_a-closer.o)
 .text._close_r
                0x00000000       0x28 /home/emb/avr32-gnu-toolchain/bin/../lib/gcc/avr32/4.4.3/../../../../avr32/lib/ucr2/libc.a(lib_a-closer.o)
 .comment       0x00000000       0x31 /home/emb/avr32-gnu-toolchain/bin/../lib/gcc/avr32/4.4.3/../../../../avr32/lib/ucr2/libc.a(lib_a-closer.o)
 .text          0x00000000        0x0 /home/emb/avr32-gnu-toolchain/bin/../lib/gcc/avr32/4.4.3/../../../../avr32/lib/ucr2/libc.a(lib_a-fclose.o)
 .data          0x00000000        0x0 /home/emb/avr32-gnu-toolchain/bin/../lib/gcc/avr32/4.4.3/../../../../avr32/lib/ucr2/libc.a(lib_a-fclose.o)
 .bss           0x00000000        0x0 /home/emb/avr32-gnu-toolchain/bin/../lib/gcc/avr32/4.4.3/../../../../avr32/lib/ucr2/libc.a(lib_a-fclose.o)
 .text._fclose_r
                0x00000000       0xd0 /home/emb/avr32-gnu-toolchain/bin/../lib/gcc/avr32/4.4.3/../../../../avr32/lib/ucr2/libc.a(lib_a-fclose.o)
 .text.fclose   0x00000000       0x18 /home/emb/avr32-gnu-toolchain/bin/../lib/gcc/avr32/4.4.3/../../../../avr32/lib/ucr2/libc.a(lib_a-fclose.o)
 .comment       0x00000000       0x31 /home/emb/avr32-gnu-toolchain/bin/../lib/gcc/avr32/4.4.3/../../../../avr32/lib/ucr2/libc.a(lib_a-fclose.o)
 .text          0x00000000        0x0 /home/emb/avr32-gnu-toolchain/bin/../lib/gcc/avr32/4.4.3/../../../../avr32/lib/ucr2/libc.a(lib_a-fflush.o)
 .data          0x00000000        0x0 /home/emb/avr32-gnu-toolchain/bin/../lib/gcc/avr32/4.4.3/../../../../avr32/lib/ucr2/libc.a(lib_a-fflush.o)
 .bss           0x00000000        0x0 /home/emb/avr32-gnu-toolchain/bin/../lib/gcc/avr32/4.4.3/../../../../avr32/lib/ucr2/libc.a(lib_a-fflush.o)
 .text._fflush_r
                0x00000000      0x118 /home/emb/avr32-gnu-toolchain/bin/../lib/gcc/avr32/4.4.3/../../../../avr32/lib/ucr2/libc.a(lib_a-fflush.o)
 .text.fflush   0x00000000       0x30 /home/emb/avr32-gnu-toolchain/bin/../lib/gcc/avr32/4.4.3/../../../../avr32/lib/ucr2/libc.a(lib_a-fflush.o)
 .comment       0x00000000       0x31 /home/emb/avr32-gnu-toolchain/bin/../lib/gcc/avr32/4.4.3/../../../../avr32/lib/ucr2/libc.a(lib_a-fflush.o)
 .text          0x00000000        0x0 /home/emb/avr32-gnu-toolchain/bin/../lib/gcc/avr32/4.4.3/../../../../avr32/lib/ucr2/libc.a(lib_a-lseekr.o)
 .data          0x00000000        0x0 /home/emb/avr32-gnu-toolchain/bin/../lib/gcc/avr32/4.4.3/../../../../avr32/lib/ucr2/libc.a(lib_a-lseekr.o)
 .bss           0x00000000        0x0 /home/emb/avr32-gnu-toolchain/bin/../lib/gcc/avr32/4.4.3/../../../../avr32/lib/ucr2/libc.a(lib_a-lseekr.o)
 .text._lseek_r
                0x00000000       0x2c /home/emb/avr32-gnu-toolchain/bin/../lib/gcc/avr32/4.4.3/../../../../avr32/lib/ucr2/libc.a(lib_a-lseekr.o)
 .comment       0x00000000       0x31 /home/emb/avr32-gnu-toolchain/bin/../lib/gcc/avr32/4.4.3/../../../../avr32/lib/ucr2/libc.a(lib_a-lseekr.o)
 .text          0x00000000        0x0 /home/emb/avr32-gnu-toolchain/bin/../lib/gcc/avr32/4.4.3/../../../../avr32/lib/ucr2/libc.a(lib_a-readr.o)
 .data          0x00000000        0x0 /home/emb/avr32-gnu-toolchain/bin/../lib/gcc/avr32/4.4.3/../../../../avr32/lib/ucr2/libc.a(lib_a-readr.o)
 .bss           0x00000000        0x0 /home/emb/avr32-gnu-toolchain/bin/../lib/gcc/avr32/4.4.3/../../../../avr32/lib/ucr2/libc.a(lib_a-readr.o)
 .text._read_r  0x00000000       0x2c /home/emb/avr32-gnu-toolchain/bin/../lib/gcc/avr32/4.4.3/../../../../avr32/lib/ucr2/libc.a(lib_a-readr.o)
 .comment       0x00000000       0x31 /home/emb/avr32-gnu-toolchain/bin/../lib/gcc/avr32/4.4.3/../../../../avr32/lib/ucr2/libc.a(lib_a-readr.o)

Memory Configuration

Name             Origin             Length             Attributes
FLASH            0x80010000         0x00070000         axrl !w
INTRAM           0x00000004         0x0000fffc         axw !rl
USERPAGE         0x80800000         0x00000200
*default*        0x00000000         0xffffffff

Linker script and memory map

                0x00001000                _stack_size = 0x1000
                0xffffffff                __max_heap_size__ = 0xffffffff
                [0xffffffff]                __heap_size__ = DEFINED (__heap_size__)?__heap_size__:__max_heap_size__
                [0x00001000]                __stack_size__ = DEFINED (__stack_size__)?__stack_size__:0x1000
                [0x00040000]                __flash_nvram_size__ = DEFINED (__flash_nvram_size__)?__flash_nvram_size__:0x40000
                0x80000000                PROVIDE (__executable_start, 0x80000000)
                0x80000000                . = 0x80000000

.interp
 *(.interp)

.reset          0x80010000     0x2008
 *(.reset)
 .reset         0x80010000     0x2008 avr32/utils/startup/trampoline_uc3.o
                0x80010000                _trampoline

.hash
 *(.hash)

.dynsym
 *(.dynsym)

.dynstr
 *(.dynstr)

.gnu.version
 *(.gnu.version)

.gnu.version_d
 *(.gnu.version_d)

.gnu.version_r
 *(.gnu.version_r)

.rel.init
 *(.rel.init)

.rela.init
 *(.rela.init)

.rel.text
 *(.rel.text .rel.text.* .rel.gnu.linkonce.t.*)

.rela.text
 *(.rela.text .rela.text.* .rela.gnu.linkonce.t.*)

.rel.fini
 *(.rel.fini)

.rela.fini
 *(.rela.fini)

.rel.rodata
 *(.rel.rodata .rel.rodata.* .rel.gnu.linkonce.r.*)

.rela.rodata
 *(.rela.rodata .rela.rodata.* .rela.gnu.linkonce.r.*)

.rel.data.rel.ro
 *(.rel.data.rel.ro*)

.rela.data.rel.ro
 *(.rel.data.rel.ro*)

.rel.data
 *(.rel.data .rel.data.* .rel.gnu.linkonce.d.*)

.rela.data
 *(.rela.data .rela.data.* .rela.gnu.linkonce.d.*)

.rel.tdata
 *(.rel.tdata .rel.tdata.* .rel.gnu.linkonce.td.*)

.rela.tdata
 *(.rela.tdata .rela.tdata.* .rela.gnu.linkonce.td.*)

.rel.tbss
 *(.rel.tbss .rel.tbss.* .rel.gnu.linkonce.tb.*)

.rela.tbss
 *(.rela.tbss .rela.tbss.* .rela.gnu.linkonce.tb.*)

.rel.ctors
 *(.rel.ctors)

.rela.ctors
 *(.rela.ctors)

.rel.dtors
 *(.rel.dtors)

.rela.dtors
 *(.rela.dtors)

.rel.got
 *(.rel.got)

.rela.got       0x80012008        0x0
 *(.rela.got)
 .rela.got      0x80012008        0x0 avr32/drivers/flashc/flashc.o

.rel.bss
 *(.rel.bss .rel.bss.* .rel.gnu.linkonce.b.*)

.rela.bss
 *(.rela.bss .rela.bss.* .rela.gnu.linkonce.b.*)

.rel.plt
 *(.rel.plt)

.rela.plt
 *(.rela.plt)

.init
 *(.init)

.plt
 *(.plt)

.text           0x80012008     0xf218
 *(.text .stub .text.* .gnu.linkonce.t.*)
 .text.smc_get_cs_size
                0x80012008        0xc avr32/drivers/ebi/smc/smc.o
                0x80012008                smc_get_cs_size
 .text.smc_init
                0x80012014       0x98 avr32/drivers/ebi/smc/smc.o
                                 0xa0 (size before relaxing)
                0x80012014                smc_init
 .text.flashc_set_wait_state
                0x800120ac        0xe avr32/drivers/flashc/flashc.o
                0x800120ac                flashc_set_wait_state
 .text.flashc_set_bus_freq
                0x800120ba       0x2e avr32/drivers/flashc/flashc.o
                0x800120ba                flashc_set_bus_freq
 .text.flashc_default_wait_until_ready
                0x800120e8       0x14 avr32/drivers/flashc/flashc.o
                0x800120e8                flashc_default_wait_until_ready
 .text.flashc_memcpy
                0x800120fc      0x28c avr32/drivers/flashc/flashc.o
                                0x294 (size before relaxing)
                0x800120fc                flashc_memcpy
 .text.flashc_memset64
                0x80012388      0x330 avr32/drivers/flashc/flashc.o
                                0x338 (size before relaxing)
                0x80012388                flashc_memset64
 .text.flashc_memset32
                0x800126b8       0x1c avr32/drivers/flashc/flashc.o
                                 0x24 (size before relaxing)
                0x800126b8                flashc_memset32
 .text.gpio_enable_pin_pull_up
                0x800126d4       0x14 avr32/drivers/gpio/gpio.o
                0x800126d4                gpio_enable_pin_pull_up
 .text.gpio_get_pin_value
                0x800126e8       0x16 avr32/drivers/gpio/gpio.o
                0x800126e8                gpio_get_pin_value
 .text.gpio_set_gpio_pin
                0x800126fe       0x1a avr32/drivers/gpio/gpio.o
                0x800126fe                gpio_set_gpio_pin
 .text.gpio_clr_gpio_pin
                0x80012718       0x1a avr32/drivers/gpio/gpio.o
                0x80012718                gpio_clr_gpio_pin
 .text.gpio_enable_pin_glitch_filter
                0x80012732       0x14 avr32/drivers/gpio/gpio.o
                0x80012732                gpio_enable_pin_glitch_filter
 .text.gpio_enable_pin_interrupt
                0x80012746       0x4a avr32/drivers/gpio/gpio.o
                0x80012746                gpio_enable_pin_interrupt
 .text.gpio_get_pin_interrupt_flag
                0x80012790       0x18 avr32/drivers/gpio/gpio.o
                0x80012790                gpio_get_pin_interrupt_flag
 .text.gpio_clear_pin_interrupt_flag
                0x800127a8       0x14 avr32/drivers/gpio/gpio.o
                0x800127a8                gpio_clear_pin_interrupt_flag
 .text.gpio_enable_module
                0x800127bc       0x78 avr32/drivers/gpio/gpio.o
                0x800127bc                gpio_enable_module
 .text._unhandled_interrupt
                0x80012834        0x2 avr32/drivers/intc/intc.o
 *fill*         0x80012836        0x2 d703d703
 .text.INTC_register_interrupt
                0x80012838       0x88 avr32/drivers/intc/intc.o
                0x80012838                INTC_register_interrupt
 .text.INTC_init_interrupts
                0x800128c0       0x4c avr32/drivers/intc/intc.o
                                 0x50 (size before relaxing)
                0x800128c0                INTC_init_interrupts
 .text._get_interrupt_handler
                0x8001290c       0x38 avr32/drivers/intc/intc.o
                0x8001290c                _get_interrupt_handler
 .text.pdca_get_handler
                0x80012944       0x14 avr32/drivers/pdca/pdca.o
                0x80012944                pdca_get_handler
 .text.pdca_disable
                0x80012958       0x1e avr32/drivers/pdca/pdca.o
                0x80012958                pdca_disable
 .text.pdca_enable_interrupt_transfer_complete
                0x80012976       0x1e avr32/drivers/pdca/pdca.o
                0x80012976                pdca_enable_interrupt_transfer_complete
 .text.pdca_disable_interrupt_transfer_complete
                0x80012994       0x2a avr32/drivers/pdca/pdca.o
                0x80012994                pdca_disable_interrupt_transfer_complete
 .text.pdca_load_channel
                0x800129be       0x30 avr32/drivers/pdca/pdca.o
                0x800129be                pdca_load_channel
 .text.pdca_init_channel
                0x800129ee       0x86 avr32/drivers/pdca/pdca.o
                0x800129ee                pdca_init_channel
 .text.getBaudDiv
                0x80012a74       0x20 avr32/drivers/spi/spi.o
                0x80012a74                getBaudDiv
 .text.spi_initMaster
                0x80012a94       0x3e avr32/drivers/spi/spi.o
                0x80012a94                spi_initMaster
 .text.spi_selectionMode
                0x80012ad2       0x2a avr32/drivers/spi/spi.o
                0x80012ad2                spi_selectionMode
 .text.spi_selectChip
                0x80012afc       0x50 avr32/drivers/spi/spi.o
                0x80012afc                spi_selectChip
 .text.spi_unselectChip
                0x80012b4c       0x26 avr32/drivers/spi/spi.o
                0x80012b4c                spi_unselectChip
 *fill*         0x80012b72        0x2 d703d703
 .text.spi_setupChipReg
                0x80012b74       0xac avr32/drivers/spi/spi.o
                                 0xb0 (size before relaxing)
                0x80012b74                spi_setupChipReg
 .text.spi_enable
                0x80012c20        0x6 avr32/drivers/spi/spi.o
                0x80012c20                spi_enable
 .text.spi_write
                0x80012c26       0x1c avr32/drivers/spi/spi.o
                0x80012c26                spi_write
 .text.spi_read
                0x80012c42       0x22 avr32/drivers/spi/spi.o
                0x80012c42                spi_read
 .text.tc_init_waveform
                0x80012c64       0x9e avr32/drivers/tc/tc.o
                0x80012c64                tc_init_waveform
 .text.tc_start
                0x80012d02       0x12 avr32/drivers/tc/tc.o
                0x80012d02                tc_start
 .text.tc_read_sr
                0x80012d14       0x12 avr32/drivers/tc/tc.o
                0x80012d14                tc_read_sr
 .text.tc_write_rc
                0x80012d26       0x38 avr32/drivers/tc/tc.o
                0x80012d26                tc_write_rc
 .text.tc_configure_interrupts
                0x80012d5e       0xd0 avr32/drivers/tc/tc.o
                0x80012d5e                tc_configure_interrupts
 .text.usart_set_async_baudrate
                0x80012e2e       0x5e avr32/drivers/usart/usart.o
 .text.usart_write_line
                0x80012e8c       0x2c avr32/drivers/usart/usart.o
                0x80012e8c                usart_write_line
 .text.usart_init_rs232
                0x80012eb8       0xe4 avr32/drivers/usart/usart.o
                                 0xec (size before relaxing)
                0x80012eb8                usart_init_rs232
 .text.print_dbg_hex
                0x80012f9c       0x6c avr32/utils/debug/print_funcs.o
                                 0x74 (size before relaxing)
                0x80012f9c                print_dbg_hex
 .text.print_dbg_ulong
                0x80013008       0x44 avr32/utils/debug/print_funcs.o
                                 0x4c (size before relaxing)
                0x80013008                print_dbg_ulong
 .text.print_dbg
                0x8001304c        0xc avr32/utils/debug/print_funcs.o
                                 0x14 (size before relaxing)
                0x8001304c                print_dbg
 .text.sd_mmc_spi_get_capacity
                0x80013058      0x114 avr32/components/memory/sd_mmc/sd_mmc_spi/sd_mmc_spi.o
                                0x118 (size before relaxing)
                0x80013058                sd_mmc_spi_get_capacity
 .text.sd_mmc_spi_write_close
                0x8001316c        0x2 avr32/components/memory/sd_mmc/sd_mmc_spi/sd_mmc_spi.o
                0x8001316c                sd_mmc_spi_write_close
 *fill*         0x8001316e        0x2 d703d703
 .text.sd_mmc_spi_read_close_PDCA
                0x80013170       0x40 avr32/components/memory/sd_mmc/sd_mmc_spi/sd_mmc_spi.o
                                 0x48 (size before relaxing)
                0x80013170                sd_mmc_spi_read_close_PDCA
 .text.sd_mmc_spi_wait_not_busy
                0x800131b0       0x68 avr32/components/memory/sd_mmc/sd_mmc_spi/sd_mmc_spi.o
                                 0x7c (size before relaxing)
                0x800131b0                sd_mmc_spi_wait_not_busy
 .text.sd_mmc_spi_write_open
                0x80013218       0x10 avr32/components/memory/sd_mmc/sd_mmc_spi/sd_mmc_spi.o
                                 0x18 (size before relaxing)
                0x80013218                sd_mmc_spi_write_open
 .text.sd_mmc_spi_command
                0x80013228      0x298 avr32/components/memory/sd_mmc/sd_mmc_spi/sd_mmc_spi.o
                                0x2a4 (size before relaxing)
                0x80013228                sd_mmc_spi_command
 .text.sd_mmc_spi_read_open_PDCA
                0x800134c0       0xac avr32/components/memory/sd_mmc/sd_mmc_spi/sd_mmc_spi.o
                                 0xd0 (size before relaxing)
                0x800134c0                sd_mmc_spi_read_open_PDCA
 .text.sd_mmc_spi_check_hc
                0x8001356c       0xe0 avr32/components/memory/sd_mmc/sd_mmc_spi/sd_mmc_spi.o
                                 0xfc (size before relaxing)
                0x8001356c                sd_mmc_spi_check_hc
 .text.sd_mmc_spi_write_sector_from_ram
                0x8001364c      0x154 avr32/components/memory/sd_mmc/sd_mmc_spi/sd_mmc_spi.o
                                0x170 (size before relaxing)
                0x8001364c                sd_mmc_spi_write_sector_from_ram
 .text.sd_mmc_spi_get_if
                0x800137a0      0x114 avr32/components/memory/sd_mmc/sd_mmc_spi/sd_mmc_spi.o
                                0x12c (size before relaxing)
                0x800137a0                sd_mmc_spi_get_if
 .text.sd_mmc_spi_internal_init
                0x800138b4      0x794 avr32/components/memory/sd_mmc/sd_mmc_spi/sd_mmc_spi.o
                                0x7d0 (size before relaxing)
                0x800138b4                sd_mmc_spi_internal_init
 .text.sd_mmc_spi_init
                0x80014048       0x2c avr32/components/memory/sd_mmc/sd_mmc_spi/sd_mmc_spi.o
                                 0x34 (size before relaxing)
                0x80014048                sd_mmc_spi_init
 .text.sd_mmc_spi_mem_check
                0x80014074      0x2b0 avr32/components/memory/sd_mmc/sd_mmc_spi/sd_mmc_spi.o
                                0x2c8 (size before relaxing)
                0x80014074                sd_mmc_spi_mem_check
 .text.uhd_get_speed
                0x80014324       0x1c avr32/drivers/usbb/usbb_host.o
                0x80014324                uhd_get_speed
 .text.uhd_send_reset
                0x80014340       0x14 avr32/drivers/usbb/usbb_host.o
                0x80014340                uhd_send_reset
 .text.uhd_suspend
                0x80014354       0xb4 avr32/drivers/usbb/usbb_host.o
                                 0xbc (size before relaxing)
                0x80014354                uhd_suspend
 .text.uhd_ep_alloc
                0x80014408      0x1a6 avr32/drivers/usbb/usbb_host.o
                0x80014408                uhd_ep_alloc
 .text.uhd_ep0_alloc
                0x800145ae       0x88 avr32/drivers/usbb/usbb_host.o
                0x800145ae                uhd_ep0_alloc
 *fill*         0x80014636        0x2 d703d703
 .text.otg_dual_enable
                0x80014638       0x8c avr32/drivers/usbb/usbb_host.o
                                 0xa0 (size before relaxing)
                0x80014638                otg_dual_enable
 .text.uhd_enable
                0x800146c4       0xc8 avr32/drivers/usbb/usbb_host.o
                                 0xd8 (size before relaxing)
                0x800146c4                uhd_enable
 .text.uhd_disable
                0x8001478c       0xac avr32/drivers/usbb/usbb_host.o
                                 0xb8 (size before relaxing)
                0x8001478c                uhd_disable
 .text.uhd_ctrl_request_end
                0x80014838      0x1bc avr32/drivers/usbb/usbb_host.o
                                0x1cc (size before relaxing)
 .text.uhd_setup_request
                0x800149f4      0x12c avr32/drivers/usbb/usbb_host.o
                                0x140 (size before relaxing)
                0x800149f4                uhd_setup_request
 .text.uhd_ep_abort_pipe
                0x80014b20       0xcc avr32/drivers/usbb/usbb_host.o
                                 0xd0 (size before relaxing)
 .text.uhd_ep_free
                0x80014bec       0xd8 avr32/drivers/usbb/usbb_host.o
                                 0xe4 (size before relaxing)
                0x80014bec                uhd_ep_free
 .text.uhd_pipe_trans_complet
                0x80014cc4      0x220 avr32/drivers/usbb/usbb_host.o
                                0x224 (size before relaxing)
 .text.uhd_ep_run
                0x80014ee4      0x230 avr32/drivers/usbb/usbb_host.o
                                0x238 (size before relaxing)
                0x80014ee4                uhd_ep_run
 .text.otg_interrupt
                0x80015114      0xafc avr32/drivers/usbb/usbb_host.o
                                0xb48 (size before relaxing)
 .text.osc_enable
                0x80015c10       0x38 common/services/clock/uc3a0_a1/sysclk.o
 .text.sysclk_priv_disable_module
                0x80015c48       0x30 common/services/clock/uc3a0_a1/sysclk.o
                0x80015c48                sysclk_priv_disable_module
 .text.sysclk_priv_enable_module
                0x80015c78       0x2e common/services/clock/uc3a0_a1/sysclk.o
                0x80015c78                sysclk_priv_enable_module
 *fill*         0x80015ca6        0x2 d703d703
 .text.sysclk_disable_usb
                0x80015ca8       0x7c common/services/clock/uc3a0_a1/sysclk.o
                                 0x84 (size before relaxing)
                0x80015ca8                sysclk_disable_usb
 .text.sysclk_enable_pbb_module
                0x80015d24       0x78 common/services/clock/uc3a0_a1/sysclk.o
                0x80015d24                sysclk_enable_pbb_module
 .text.sysclk_enable_usb
                0x80015d9c       0xb8 common/services/clock/uc3a0_a1/sysclk.o
                                 0xc8 (size before relaxing)
                0x80015d9c                sysclk_enable_usb
 .text.sysclk_init
                0x80015e54       0x7c common/services/clock/uc3a0_a1/sysclk.o
                                 0x84 (size before relaxing)
                0x80015e54                sysclk_init
 .text.uhc_enumeration_step2
                0x80015ed0       0x14 common/services/usb/uhc/uhc.o
                                 0x1c (size before relaxing)
 .text.uhc_enumeration_step8
                0x80015ee4       0x14 common/services/usb/uhc/uhc.o
                                 0x1c (size before relaxing)
 .text.uhc_notify_sof
                0x80015ef8       0x44 common/services/usb/uhc/uhc.o
                                 0x48 (size before relaxing)
                0x80015ef8                uhc_notify_sof
 .text.uhc_stop
                0x80015f3c        0x8 common/services/usb/uhc/uhc.o
                                  0xc (size before relaxing)
                0x80015f3c                uhc_stop
 .text.uhc_start
                0x80015f44       0x1c common/services/usb/uhc/uhc.o
                                 0x24 (size before relaxing)
                0x80015f44                uhc_start
 .text.uhc_enumeration_step3
                0x80015f60        0xc common/services/usb/uhc/uhc.o
                                 0x14 (size before relaxing)
 .text.uhc_enumeration_step7
                0x80015f6c        0xc common/services/usb/uhc/uhc.o
                                 0x14 (size before relaxing)
 .text.uhc_enumeration_step4
                0x80015f78       0x20 common/services/usb/uhc/uhc.o
                                 0x2c (size before relaxing)
 .text.uhc_enumeration_error
                0x80015f98       0x68 common/services/usb/uhc/uhc.o
                                 0x80 (size before relaxing)
 .text.uhc_enumeration_step5
                0x80016000       0x58 common/services/usb/uhc/uhc.o
                                 0x6c (size before relaxing)
 .text.uhc_enumeration_step6
                0x80016058       0x48 common/services/usb/uhc/uhc.o
                                 0x58 (size before relaxing)
 .text.uhc_enumeration_step9
                0x800160a0       0x68 common/services/usb/uhc/uhc.o
                                 0x80 (size before relaxing)
 .text.uhc_enumeration_step10
                0x80016108       0x28 common/services/usb/uhc/uhc.o
                                 0x34 (size before relaxing)
 .text.uhc_enumeration_step11
                0x80016130       0x68 common/services/usb/uhc/uhc.o
                                 0x80 (size before relaxing)
 .text.uhc_enumeration_step12
                0x80016198       0x80 common/services/usb/uhc/uhc.o
                                 0x94 (size before relaxing)
 .text.uhc_enumeration_step13
                0x80016218       0xb4 common/services/usb/uhc/uhc.o
                                 0xd4 (size before relaxing)
 .text.uhc_enumeration_step15
                0x800162cc       0x70 common/services/usb/uhc/uhc.o
                                 0x74 (size before relaxing)
 .text.uhc_enumeration_step14
                0x8001633c      0x2a0 common/services/usb/uhc/uhc.o
                                0x2bc (size before relaxing)
 .text.uhc_notify_connection
                0x800165dc       0x78 common/services/usb/uhc/uhc.o
                                 0x90 (size before relaxing)
                0x800165dc                uhc_notify_connection
 .text.uhc_notify_resume
                0x80016654       0x44 common/services/usb/uhc/uhc.o
                                 0x50 (size before relaxing)
                0x80016654                uhc_notify_resume
 .text.init_adc
                0x80016698       0x90 ../avr32/src/adc.o
                                 0xa0 (size before relaxing)
                0x80016698                init_adc
 .text.adc_poll
                0x80016728      0x198 ../avr32/src/adc.o
                                0x1a8 (size before relaxing)
                0x80016728                adc_poll
 .text.init_app_timers
                0x800168c0       0x3c ../avr32/src/app_timers.o
                                 0x4c (size before relaxing)
                0x800168c0                init_app_timers
 .text.adc_timer_callback
                0x800168fc        0x8 ../avr32/src/app_timers.o
                                  0xc (size before relaxing)
 .text.screen_timer_callback
                0x80016904       0x24 ../avr32/src/app_timers.o
                                 0x2c (size before relaxing)
 .text.enc_timer_callback
                0x80016928       0x94 ../avr32/src/app_timers.o
                                 0xa4 (size before relaxing)
 .text.bfin_set_param
                0x800169bc       0xd8 ../avr32/src/bfin.o
                                 0xe8 (size before relaxing)
                0x800169bc                bfin_set_param
 .text.bfin_get_param_desc
                0x80016a94      0x69c ../avr32/src/bfin.o
                                0x6b0 (size before relaxing)
                0x80016a94                bfin_get_param_desc
 .text.bfin_get_num_params
                0x80017130       0x5c ../avr32/src/bfin.o
                                 0x6c (size before relaxing)
                0x80017130                bfin_get_num_params
 .text.bfin_report_params
                0x8001718c       0x6c ../avr32/src/bfin.o
                                 0x88 (size before relaxing)
                0x8001718c                bfin_report_params
 .text.bfin_load_buf
                0x800171f8      0x154 ../avr32/src/bfin.o
                                0x184 (size before relaxing)
                0x800171f8                bfin_load_buf
 .text.init_events
                0x8001734c       0x24 ../avr32/src/events.o
                                 0x2c (size before relaxing)
                0x8001734c                init_events
 .text.post_event
                0x80017370       0x50 ../avr32/src/events.o
                                 0x5c (size before relaxing)
                0x80017370                post_event
 .text.get_next_event
                0x800173c0       0x4c ../avr32/src/events.o
                                 0x50 (size before relaxing)
                0x800173c0                get_next_event
 .text.set_enc_thresh
                0x8001740c       0x10 ../avr32/src/encoders.o
                                 0x14 (size before relaxing)
                0x8001740c                set_enc_thresh
 .text.process_enc
                0x8001741c       0x50 ../avr32/src/encoders.o
                                 0x54 (size before relaxing)
                0x8001741c                process_enc
 .text.init_encoders
                0x8001746c       0xbc ../avr32/src/encoders.o
                                 0xc0 (size before relaxing)
                0x8001746c                init_encoders
 .text.files_get_dsp_name
                0x80017528       0x10 ../avr32/src/files.o
                0x80017528                files_get_dsp_name
 .text.files_get_dsp_count
                0x80017538        0xc ../avr32/src/files.o
                0x80017538                files_get_dsp_count
 .text.files_store_scene
                0x80017544        0x2 ../avr32/src/files.o
                0x80017544                files_store_scene
 *fill*         0x80017546        0x2 d703d703
 .text.files_get_scene_count
                0x80017548        0xc ../avr32/src/files.o
                0x80017548                files_get_scene_count
 .text.list_scan
                0x80017554       0x5c ../avr32/src/files.o
                                 0x68 (size before relaxing)
 .text.init_files
                0x800175b0       0x20 ../avr32/src/files.o
                                 0x30 (size before relaxing)
                0x800175b0                init_files
 .text.T.49     0x800175d0       0xa0 ../avr32/src/files.o
                                 0xbc (size before relaxing)
 .text.files_load_dsp_name
                0x80017670       0xa0 ../avr32/src/files.o
                                 0xc0 (size before relaxing)
                0x80017670                files_load_dsp_name
 .text.files_load_dsp
                0x80017710       0x14 ../avr32/src/files.o
                                 0x1c (size before relaxing)
                0x80017710                files_load_dsp
 .text.files_load_scene
                0x80017724       0x3c ../avr32/src/files.o
                                 0x48 (size before relaxing)
                0x80017724                files_load_scene
 .text.fat_init
                0x80017760       0x4c ../avr32/src/filesystem.o
                                 0x5c (size before relaxing)
                0x80017760                fat_init
 .text.media_write
                0x800177ac       0x68 ../avr32/src/filesystem.o
                                 0x7c (size before relaxing)
                0x800177ac                media_write
 .text.media_read
                0x80017814       0xb8 ../avr32/src/filesystem.o
                                 0xdc (size before relaxing)
                0x80017814                media_read
 .text.flash_read_scene
                0x800178cc       0x18 ../avr32/src/flash.o
                                 0x1c (size before relaxing)
                0x800178cc                flash_read_scene
 .text.flash_write_scene
                0x800178e4       0x1c ../avr32/src/flash.o
                                 0x20 (size before relaxing)
                0x800178e4                flash_write_scene
 .text.init_flash
                0x80017900       0x80 ../avr32/src/flash.o
                                 0x94 (size before relaxing)
                0x80017900                init_flash
 .text.init_usb_host
                0x80017980        0x8 ../avr32/src/init.o
                                  0xc (size before relaxing)
                0x80017980                init_usb_host
 .text.init_bfin_resources
                0x80017988       0x68 ../avr32/src/init.o
                                 0x80 (size before relaxing)
                0x80017988                init_bfin_resources
 .text.init_local_pdca
                0x800179f0       0x5c ../avr32/src/init.o
                                 0x60 (size before relaxing)
                0x800179f0                init_local_pdca
 .text.init_spi1
                0x80017a4c       0xe4 ../avr32/src/init.o
                                 0xfc (size before relaxing)
                0x80017a4c                init_spi1
 .text.init_ftdi_usart
                0x80017b30       0x28 ../avr32/src/init.o
                                 0x30 (size before relaxing)
                0x80017b30                init_ftdi_usart
 .text.init_tc  0x80017b58       0x38 ../avr32/src/init.o
                                 0x48 (size before relaxing)
                0x80017b58                init_tc
 .text.init_gpio
                0x80017b90       0x40 ../avr32/src/init.o
                                 0x48 (size before relaxing)
                0x80017b90                init_gpio
 .text.register_interrupts
                0x80017bd0       0xd0 ../avr32/src/interrupts.o
                                 0xe4 (size before relaxing)
                0x80017bd0                register_interrupts
 .text.irq_tc   0x80017ca0       0x64 ../avr32/src/interrupts.o
                                 0x6c (size before relaxing)
 .text.irq_pdca
                0x80017d04       0x28 ../avr32/src/interrupts.o
                                 0x38 (size before relaxing)
 .text.irq_port1_line3
                0x80017d2c       0x30 ../avr32/src/interrupts.o
                                 0x3c (size before relaxing)
 .text.irq_port0_line3
                0x80017d5c       0x74 ../avr32/src/interrupts.o
                                 0x80 (size before relaxing)
 .text.irq_port1_line1
                0x80017dd0       0x30 ../avr32/src/interrupts.o
                                 0x3c (size before relaxing)
 .text.irq_port1_line0
                0x80017e00       0x88 ../avr32/src/interrupts.o
                                 0x94 (size before relaxing)
 .text.alloc_mem
                0x80017e88       0x58 ../avr32/src/memory.o
                                 0x64 (size before relaxing)
                0x80017e88                alloc_mem
 .text.init_mem
                0x80017ee0       0x34 ../avr32/src/memory.o
                                 0x40 (size before relaxing)
                0x80017ee0                init_mem
 .text.write_command
                0x80017f14       0x30 ../avr32/src/screen.o
                                 0x40 (size before relaxing)
 .text.screen_hl_line
                0x80017f44      0x158 ../avr32/src/screen.o
                                0x15c (size before relaxing)
                0x80017f44                screen_hl_line
 .text.screen_blank_line
                0x8001809c       0xa0 ../avr32/src/screen.o
                                 0xa4 (size before relaxing)
                0x8001809c                screen_blank_line
 .text.screen_string_squeeze
                0x8001813c      0x2d0 ../avr32/src/screen.o
                                0x2e4 (size before relaxing)
                0x8001813c                screen_string_squeeze
 .text.screen_string
                0x8001840c        0xc ../avr32/src/screen.o
                                 0x10 (size before relaxing)
                0x8001840c                screen_string
 .text.screen_line
                0x80018418       0xa4 ../avr32/src/screen.o
                                 0xb0 (size before relaxing)
                0x80018418                screen_line
 .text.screen_refresh
                0x800184bc      0x118 ../avr32/src/screen.o
                                0x130 (size before relaxing)
                0x800184bc                screen_refresh
 .text.init_oled
                0x800185d4      0x658 ../avr32/src/screen.o
                                0x670 (size before relaxing)
                0x800185d4                init_oled
 .text.str_copy
                0x80018c2c       0x3e ../avr32/src/simple_string.o
                0x80018c2c                str_copy
 *fill*         0x80018c6a        0x2 d703d703
 .text.process_sw
                0x80018c6c       0x44 ../avr32/src/switches.o
                                 0x54 (size before relaxing)
                0x80018c6c                process_sw
 .text.process_timers
                0x80018cb0      0x18c ../avr32/src/timers.o
                                0x190 (size before relaxing)
                0x80018cb0                process_timers
 .text.set_timer
                0x80018e3c      0x124 ../avr32/src/timers.o
                0x80018e3c                set_timer
 .text.main     0x80018f60      0x1b8 ../avr32/src/main.o
                                0x23c (size before relaxing)
                0x80018f60                main
 .text.usb_mode_change
                0x80019118        0x2 ../avr32/src/usb.o
                0x80019118                usb_mode_change
 .text.usb_vbus_change
                0x8001911a        0x2 ../avr32/src/usb.o
                0x8001911a                usb_vbus_change
 .text.usb_vbus_error
                0x8001911c        0x2 ../avr32/src/usb.o
                0x8001911c                usb_vbus_error
 .text.usb_connection
                0x8001911e        0x2 ../avr32/src/usb.o
                0x8001911e                usb_connection
 .text.usb_wakeup
                0x80019120        0x2 ../avr32/src/usb.o
                0x80019120                usb_wakeup
 .text.usb_sof  0x80019122        0x2 ../avr32/src/usb.o
                0x80019122                usb_sof
 .text.usb_enum
                0x80019124        0x2 ../avr32/src/usb.o
                0x80019124                usb_enum
 *fill*         0x80019126        0x2 d703d703
 .text.hid_mouse_move
                0x80019128       0x44 ../avr32/src/usb/mouse/hid_mouse.o
                                 0x4c (size before relaxing)
                0x80019128                hid_mouse_move
 .text.hid_mouse_btn_middle
                0x8001916c       0x1c ../avr32/src/usb/mouse/hid_mouse.o
                                 0x24 (size before relaxing)
                0x8001916c                hid_mouse_btn_middle
 .text.hid_mouse_btn_right
                0x80019188       0x1c ../avr32/src/usb/mouse/hid_mouse.o
                                 0x24 (size before relaxing)
                0x80019188                hid_mouse_btn_right
 .text.hid_mouse_btn_left
                0x800191a4       0x1c ../avr32/src/usb/mouse/hid_mouse.o
                                 0x24 (size before relaxing)
                0x800191a4                hid_mouse_btn_left
 .text.uhi_hid_mouse_uninstall
                0x800191c0       0x1c ../avr32/src/usb/mouse/uhi_hid_mouse.o
                                 0x20 (size before relaxing)
                0x800191c0                uhi_hid_mouse_uninstall
 .text.uhi_hid_mouse_enable
                0x800191dc       0x34 ../avr32/src/usb/mouse/uhi_hid_mouse.o
                                 0x3c (size before relaxing)
                0x800191dc                uhi_hid_mouse_enable
 .text.uhi_hid_mouse_report_reception
                0x80019210       0xac ../avr32/src/usb/mouse/uhi_hid_mouse.o
                                 0xcc (size before relaxing)
 .text.uhi_hid_mouse_install
                0x800192bc       0x90 ../avr32/src/usb/mouse/uhi_hid_mouse.o
                                 0x98 (size before relaxing)
                0x800192bc                uhi_hid_mouse_install
 .text.uhi_hid_gamepad_uninstall
                0x8001934c       0x1c ../avr32/src/usb/gamepad/uhi_hid_gamepad.o
                                 0x20 (size before relaxing)
                0x8001934c                uhi_hid_gamepad_uninstall
 .text.uhi_hid_gamepad_enable
                0x80019368       0x2c ../avr32/src/usb/gamepad/uhi_hid_gamepad.o
                                 0x34 (size before relaxing)
                0x80019368                uhi_hid_gamepad_enable
 .text.uhi_hid_gamepad_report_reception
                0x80019394       0x68 ../avr32/src/usb/gamepad/uhi_hid_gamepad.o
                                 0x78 (size before relaxing)
 .text.uhi_hid_gamepad_install
                0x800193fc      0x134 ../avr32/src/usb/gamepad/uhi_hid_gamepad.o
                                0x144 (size before relaxing)
                0x800193fc                uhi_hid_gamepad_install
 .text.fatfs_lba_of_cluster
                0x80019530       0x2a ../avr32/src/fat_io_lib/fat_access.o
                0x80019530                fatfs_lba_of_cluster
 .text.fatfs_sector_read
                0x8001955a       0x10 ../avr32/src/fat_io_lib/fat_access.o
                0x8001955a                fatfs_sector_read
 .text.fatfs_sector_write
                0x8001956a       0x10 ../avr32/src/fat_io_lib/fat_access.o
                0x8001956a                fatfs_sector_write
 .text.fatfs_get_root_cluster
                0x8001957a        0x4 ../avr32/src/fat_io_lib/fat_access.o
                0x8001957a                fatfs_get_root_cluster
 .text.fatfs_list_directory_start
                0x8001957e        0xc ../avr32/src/fat_io_lib/fat_access.o
                0x8001957e                fatfs_list_directory_start
 *fill*         0x8001958a        0x2 d703d703
 .text.fatfs_init
                0x8001958c      0x258 ../avr32/src/fat_io_lib/fat_access.o
                                0x25c (size before relaxing)
                0x8001958c                fatfs_init
 .text.T.41     0x800197e4       0x80 ../avr32/src/fat_io_lib/fat_access.o
                                 0x8c (size before relaxing)
 .text.fatfs_get_file_entry
                0x80019864      0x150 ../avr32/src/fat_io_lib/fat_access.o
                                0x17c (size before relaxing)
                0x80019864                fatfs_get_file_entry
 .text.fatfs_sfn_exists
                0x800199b4      0x34c ../avr32/src/fat_io_lib/fat_access.o
                                0x360 (size before relaxing)
                0x800199b4                fatfs_sfn_exists
 .text.fatfs_update_file_length
                0x80019d00      0x3fc ../avr32/src/fat_io_lib/fat_access.o
                                0x414 (size before relaxing)
                0x80019d00                fatfs_update_file_length
 .text.fatfs_list_directory_next
                0x8001a0fc      0x20c ../avr32/src/fat_io_lib/fat_access.o
                                0x238 (size before relaxing)
                0x8001a0fc                fatfs_list_directory_next
 .text.fatfs_write_sector
                0x8001a308       0x9c ../avr32/src/fat_io_lib/fat_access.o
                                 0xa0 (size before relaxing)
                0x8001a308                fatfs_write_sector
 .text.fatfs_sector_reader
                0x8001a3a4       0xb0 ../avr32/src/fat_io_lib/fat_access.o
                                 0xb4 (size before relaxing)
                0x8001a3a4                fatfs_sector_reader
 .text.fatfs_cache_init
                0x8001a454        0x2 ../avr32/src/fat_io_lib/fat_cache.o
                0x8001a454                fatfs_cache_init
 .text.fatfs_cache_get_next_cluster
                0x8001a456        0x2 ../avr32/src/fat_io_lib/fat_cache.o
                0x8001a456                fatfs_cache_get_next_cluster
 .text.fatfs_cache_set_next_cluster
                0x8001a458        0x2 ../avr32/src/fat_io_lib/fat_cache.o
                0x8001a458                fatfs_cache_set_next_cluster
 *fill*         0x8001a45a        0x2 d703d703
 .text._free_file
                0x8001a45c       0x8c ../avr32/src/fat_io_lib/fat_filelib.o
 .text.fl_init  0x8001a4e8       0x38 ../avr32/src/fat_io_lib/fat_filelib.o
                                 0x40 (size before relaxing)
                0x8001a4e8                fl_init
 .text._open_directory
                0x8001a520       0x8c ../avr32/src/fat_io_lib/fat_filelib.o
                                 0xa0 (size before relaxing)
 .text._write_sectors
                0x8001a5ac       0xf8 ../avr32/src/fat_io_lib/fat_filelib.o
                                0x108 (size before relaxing)
 .text._read_sectors
                0x8001a6a4       0xc8 ../avr32/src/fat_io_lib/fat_filelib.o
                                 0xd8 (size before relaxing)
 .text._create_file
                0x8001a76c      0x218 ../avr32/src/fat_io_lib/fat_filelib.o
                                0x250 (size before relaxing)
 .text.fl_readdir
                0x8001a984       0x7c ../avr32/src/fat_io_lib/fat_filelib.o
                                 0x88 (size before relaxing)
                0x8001a984                fl_readdir
 .text.fl_opendir
                0x8001aa00       0xa0 ../avr32/src/fat_io_lib/fat_filelib.o
                                 0xb8 (size before relaxing)
                0x8001aa00                fl_opendir
 .text.fl_fflush
                0x8001aaa0       0x80 ../avr32/src/fat_io_lib/fat_filelib.o
                                 0x90 (size before relaxing)
                0x8001aaa0                fl_fflush
 .text.T.96     0x8001ab20       0xf0 ../avr32/src/fat_io_lib/fat_filelib.o
                                0x104 (size before relaxing)
 .text.fl_fgetc
                0x8001ac10       0x1c ../avr32/src/fat_io_lib/fat_filelib.o
                                 0x20 (size before relaxing)
                0x8001ac10                fl_fgetc
 .text.fl_fclose
                0x8001ac2c      0x120 ../avr32/src/fat_io_lib/fat_filelib.o
                                0x130 (size before relaxing)
                0x8001ac2c                fl_fclose
 .text.fl_attach_media
                0x8001ad4c       0x84 ../avr32/src/fat_io_lib/fat_filelib.o
                                 0xa4 (size before relaxing)
                0x8001ad4c                fl_attach_media
 .text._open_file
                0x8001add0      0x258 ../avr32/src/fat_io_lib/fat_filelib.o
                                0x288 (size before relaxing)
 .text.fl_fopen
                0x8001b028      0x150 ../avr32/src/fat_io_lib/fat_filelib.o
                                0x16c (size before relaxing)
                0x8001b028                fl_fopen
 .text.fatfs_lfn_cache_entry
                0x8001b178      0x1a0 ../avr32/src/fat_io_lib/fat_misc.o
                0x8001b178                fatfs_lfn_cache_entry
 .text.fatfs_lfn_cache_get
                0x8001b318       0x2e ../avr32/src/fat_io_lib/fat_misc.o
                0x8001b318                fatfs_lfn_cache_get
 .text.fatfs_entry_lfn_text
                0x8001b346        0xe ../avr32/src/fat_io_lib/fat_misc.o
                0x8001b346                fatfs_entry_lfn_text
 .text.fatfs_entry_lfn_invalid
                0x8001b354       0x32 ../avr32/src/fat_io_lib/fat_misc.o
                0x8001b354                fatfs_entry_lfn_invalid
 .text.fatfs_entry_lfn_exists
                0x8001b386       0x36 ../avr32/src/fat_io_lib/fat_misc.o
                0x8001b386                fatfs_entry_lfn_exists
 .text.fatfs_entry_sfn_only
                0x8001b3bc       0x2c ../avr32/src/fat_io_lib/fat_misc.o
                0x8001b3bc                fatfs_entry_sfn_only
 .text.fatfs_entry_is_dir
                0x8001b3e8        0xa ../avr32/src/fat_io_lib/fat_misc.o
                0x8001b3e8                fatfs_entry_is_dir
 .text.fatfs_entry_is_file
                0x8001b3f2        0xa ../avr32/src/fat_io_lib/fat_misc.o
                0x8001b3f2                fatfs_entry_is_file
 .text.fatfs_sfn_create_entry
                0x8001b3fc      0x116 ../avr32/src/fat_io_lib/fat_misc.o
                0x8001b3fc                fatfs_sfn_create_entry
 .text.fatfs_lfn_cache_init
                0x8001b512       0x36 ../avr32/src/fat_io_lib/fat_misc.o
                0x8001b512                fatfs_lfn_cache_init
 .text.fatfs_lfn_generate_tail
                0x8001b548       0xc4 ../avr32/src/fat_io_lib/fat_misc.o
                                 0xcc (size before relaxing)
                0x8001b548                fatfs_lfn_generate_tail
 .text.fatfs_lfn_create_sfn
                0x8001b60c      0x150 ../avr32/src/fat_io_lib/fat_misc.o
                                0x158 (size before relaxing)
                0x8001b60c                fatfs_lfn_create_sfn
 .text.fatfs_lfn_entries_required
                0x8001b75c       0x24 ../avr32/src/fat_io_lib/fat_misc.o
                                 0x28 (size before relaxing)
                0x8001b75c                fatfs_lfn_entries_required
 .text.fatfs_filename_to_lfn
                0x8001b780      0x3a0 ../avr32/src/fat_io_lib/fat_misc.o
                                0x3ac (size before relaxing)
                0x8001b780                fatfs_filename_to_lfn
 .text.fatfs_total_path_levels
                0x8001bb20       0x5c ../avr32/src/fat_io_lib/fat_string.o
                0x8001bb20                fatfs_total_path_levels
 .text.fatfs_get_sfn_display_name
                0x8001bb7c       0x4c ../avr32/src/fat_io_lib/fat_string.o
                0x8001bb7c                fatfs_get_sfn_display_name
 .text.fatfs_compare_names
                0x8001bbc8      0x1f0 ../avr32/src/fat_io_lib/fat_string.o
                                0x1f4 (size before relaxing)
                0x8001bbc8                fatfs_compare_names
 .text.fatfs_get_substring
                0x8001bdb8       0xb0 ../avr32/src/fat_io_lib/fat_string.o
                                 0xb4 (size before relaxing)
                0x8001bdb8                fatfs_get_substring
 .text.fatfs_split_path
                0x8001be68       0xb0 ../avr32/src/fat_io_lib/fat_string.o
                                 0xbc (size before relaxing)
                0x8001be68                fatfs_split_path
 .text.fatfs_fat_writeback
                0x8001bf18       0x48 ../avr32/src/fat_io_lib/fat_table.o
 .text.fatfs_set_fs_info_next_free_cluster
                0x8001bf60       0xec ../avr32/src/fat_io_lib/fat_table.o
                                 0xf0 (size before relaxing)
                0x8001bf60                fatfs_set_fs_info_next_free_cluster
 .text.fatfs_fat_init
                0x8001c04c       0x3c ../avr32/src/fat_io_lib/fat_table.o
                                 0x40 (size before relaxing)
                0x8001c04c                fatfs_fat_init
 .text.fatfs_fat_purge
                0x8001c088       0x58 ../avr32/src/fat_io_lib/fat_table.o
                0x8001c088                fatfs_fat_purge
 .text.fatfs_find_next_cluster
                0x8001c0e0      0x128 ../avr32/src/fat_io_lib/fat_table.o
                                0x12c (size before relaxing)
                0x8001c0e0                fatfs_find_next_cluster
 .text.fatfs_fat_set_cluster
                0x8001c208      0x120 ../avr32/src/fat_io_lib/fat_table.o
                                0x124 (size before relaxing)
                0x8001c208                fatfs_fat_set_cluster
 .text.fatfs_fat_add_cluster_to_chain
                0x8001c328      0x16c ../avr32/src/fat_io_lib/fat_table.o
                                0x178 (size before relaxing)
                0x8001c328                fatfs_fat_add_cluster_to_chain
 .text.fatfs_free_cluster_chain
                0x8001c494      0x2ca ../avr32/src/fat_io_lib/fat_table.o
                0x8001c494                fatfs_free_cluster_chain
 .text.fatfs_find_blank_cluster
                0x8001c75e      0x14e ../avr32/src/fat_io_lib/fat_table.o
                0x8001c75e                fatfs_find_blank_cluster
 .text.fatfs_add_file_entry
                0x8001c8ac      0x970 ../avr32/src/fat_io_lib/fat_write.o
                                0x998 (size before relaxing)
                0x8001c8ac                fatfs_add_file_entry
 .text.fatfs_add_free_space
                0x8001d21c       0x68 ../avr32/src/fat_io_lib/fat_write.o
                                 0x74 (size before relaxing)
                0x8001d21c                fatfs_add_free_space
 .text.fatfs_allocate_free_space
                0x8001d284       0xbc ../avr32/src/fat_io_lib/fat_write.o
                                 0xc8 (size before relaxing)
                0x8001d284                fatfs_allocate_free_space
 .text.itoa_whole
                0x8001d340       0xb0 ../common/fix.o
                                 0xb8 (size before relaxing)
                0x8001d340                itoa_whole
 .text.itoa_whole_lj
                0x8001d3f0       0xd4 ../common/fix.o
                                 0xd8 (size before relaxing)
                0x8001d3f0                itoa_whole_lj
 .text.print_fix16
                0x8001d4c4      0x3e8 ../common/fix.o
                                0x404 (size before relaxing)
                0x8001d4c4                print_fix16
 .text.fix16_add
                0x8001d8ac       0x1a ../common/libfixmath/fix16.o
                0x8001d8ac                fix16_add
 .text.fix16_sub
                0x8001d8c6       0x1c ../common/libfixmath/fix16.o
                0x8001d8c6                fix16_sub
 .text.fix16_mul
                0x8001d8e2       0x56 ../common/libfixmath/fix16.o
                0x8001d8e2                fix16_mul
 .text.app_launch
                0x8001d938       0x14 ../avr32/apps/bees/src/app.o
                                 0x1c (size before relaxing)
                0x8001d938                app_launch
 .text.app_init
                0x8001d94c       0x40 ../avr32/apps/bees/src/app.o
                                 0x64 (size before relaxing)
                0x8001d94c                app_init
 .text.app_handle_event
                0x8001d98c      0x158 ../avr32/apps/bees/src/app.o
                                0x178 (size before relaxing)
                0x8001d98c                app_handle_event
 .text.key_handler_dsp
                0x8001dae4       0x9c ../avr32/apps/bees/src/key_handler.o
                                 0xac (size before relaxing)
                0x8001dae4                key_handler_dsp
 .text.key_handler_scenes
                0x8001db80      0x16c ../avr32/apps/bees/src/key_handler.o
                                0x174 (size before relaxing)
                0x8001db80                key_handler_scenes
 .text.key_handler_presets
                0x8001dcec       0xe4 ../avr32/apps/bees/src/key_handler.o
                                 0xe8 (size before relaxing)
                0x8001dcec                key_handler_presets
 .text.key_handler_play
                0x8001ddd0      0x104 ../avr32/apps/bees/src/key_handler.o
                                0x110 (size before relaxing)
                0x8001ddd0                key_handler_play
 .text.key_handler_outs
                0x8001ded4       0xd4 ../avr32/apps/bees/src/key_handler.o
                                 0xf8 (size before relaxing)
                0x8001ded4                key_handler_outs
 .text.key_handler_gathered
                0x8001dfa8        0x8 ../avr32/apps/bees/src/key_handler.o
                                  0xc (size before relaxing)
                0x8001dfa8                key_handler_gathered
 .text.scale_knob_value
                0x8001dfb0       0x8c ../avr32/apps/bees/src/key_handler.o
                                 0xa0 (size before relaxing)
 .text.key_handler_ins
                0x8001e03c       0xf0 ../avr32/apps/bees/src/key_handler.o
                                0x110 (size before relaxing)
                0x8001e03c                key_handler_ins
 .text.key_handler_ops
                0x8001e12c       0xe4 ../avr32/apps/bees/src/key_handler.o
                                0x124 (size before relaxing)
                0x8001e12c                key_handler_ops
 .text.scroll_select_clip
                0x8001e210       0x3c ../avr32/apps/bees/src/menu.o
                                 0x40 (size before relaxing)
                0x8001e210                scroll_select_clip
 .text.set_page
                0x8001e24c       0x5c ../avr32/apps/bees/src/menu.o
                                 0x68 (size before relaxing)
                0x8001e24c                set_page
 .text.scroll_select
                0x8001e2a8       0x4c ../avr32/apps/bees/src/menu.o
                0x8001e2a8                scroll_select
 .text.scroll_page
                0x8001e2f4      0x114 ../avr32/apps/bees/src/menu.o
                                0x124 (size before relaxing)
                0x8001e2f4                scroll_page
 .text.menu_init
                0x8001e408       0x5c ../avr32/apps/bees/src/menu.o
                                 0x68 (size before relaxing)
                0x8001e408                menu_init
 .text.menu_handleKey
                0x8001e464       0x98 ../avr32/apps/bees/src/menu.o
                                 0xa0 (size before relaxing)
                0x8001e464                menu_handleKey
 .text.net_pop_op
                0x8001e4fc       0x6c ../avr32/apps/bees/src/net.o
                                 0x70 (size before relaxing)
                0x8001e4fc                net_pop_op
 .text.net_connect
                0x8001e568       0x3c ../avr32/apps/bees/src/net.o
                                 0x40 (size before relaxing)
                0x8001e568                net_connect
 .text.net_disconnect
                0x8001e5a4       0x40 ../avr32/apps/bees/src/net.o
                0x8001e5a4                net_disconnect
 .text.net_num_ops
                0x8001e5e4       0x10 ../avr32/apps/bees/src/net.o
                                 0x14 (size before relaxing)
                0x8001e5e4                net_num_ops
 .text.net_num_ins
                0x8001e5f4       0x1c ../avr32/apps/bees/src/net.o
                                 0x20 (size before relaxing)
                0x8001e5f4                net_num_ins
 .text.net_num_outs
                0x8001e610       0x10 ../avr32/apps/bees/src/net.o
                                 0x14 (size before relaxing)
                0x8001e610                net_num_outs
 .text.net_param_idx
                0x8001e620       0x14 ../avr32/apps/bees/src/net.o
                                 0x18 (size before relaxing)
                0x8001e620                net_param_idx
 .text.net_op_name
                0x8001e634       0x1c ../avr32/apps/bees/src/net.o
                                 0x20 (size before relaxing)
                0x8001e634                net_op_name
 .text.net_in_op_idx
                0x8001e650       0x28 ../avr32/apps/bees/src/net.o
                0x8001e650                net_in_op_idx
 .text.net_out_op_idx
                0x8001e678       0x28 ../avr32/apps/bees/src/net.o
                                 0x2c (size before relaxing)
                0x8001e678                net_out_op_idx
 .text.net_op_in_idx
                0x8001e6a0       0x48 ../avr32/apps/bees/src/net.o
                                 0x4c (size before relaxing)
                0x8001e6a0                net_op_in_idx
 .text.net_op_out_idx
                0x8001e6e8       0x48 ../avr32/apps/bees/src/net.o
                                 0x4c (size before relaxing)
                0x8001e6e8                net_op_out_idx
 .text.net_get_target
                0x8001e730       0x18 ../avr32/apps/bees/src/net.o
                                 0x1c (size before relaxing)
                0x8001e730                net_get_target
 .text.net_op_status
                0x8001e748       0x10 ../avr32/apps/bees/src/net.o
                                 0x14 (size before relaxing)
                0x8001e748                net_op_status
 .text.net_gather
                0x8001e758       0x40 ../avr32/apps/bees/src/net.o
                0x8001e758                net_gather
 .text.net_toggle_in_preset
                0x8001e798       0x24 ../avr32/apps/bees/src/net.o
                                 0x28 (size before relaxing)
                0x8001e798                net_toggle_in_preset
 .text.net_get_in_preset
                0x8001e7bc       0x14 ../avr32/apps/bees/src/net.o
                0x8001e7bc                net_get_in_preset
 .text.net_get_out_preset
                0x8001e7d0       0x18 ../avr32/apps/bees/src/net.o
                0x8001e7d0                net_get_out_preset
 .text.net_clear_params
                0x8001e7e8       0x14 ../avr32/apps/bees/src/net.o
                0x8001e7e8                net_clear_params
 .text.net_send_params
                0x8001e7fc       0x4c ../avr32/apps/bees/src/net.o
                                 0x50 (size before relaxing)
                0x8001e7fc                net_send_params
 .text.net_add_param
                0x8001e848       0xa8 ../avr32/apps/bees/src/net.o
                                 0xac (size before relaxing)
                0x8001e848                net_add_param
 .text.net_set_in_value
                0x8001e8f0       0x44 ../avr32/apps/bees/src/net.o
                                 0x4c (size before relaxing)
                0x8001e8f0                net_set_in_value
 .text.net_get_in_value
                0x8001e934       0x44 ../avr32/apps/bees/src/net.o
                                 0x4c (size before relaxing)
                0x8001e934                net_get_in_value
 .text.net_out_name
                0x8001e978       0x2c ../avr32/apps/bees/src/net.o
                                 0x34 (size before relaxing)
                0x8001e978                net_out_name
 .text.net_in_name
                0x8001e9a4       0x68 ../avr32/apps/bees/src/net.o
                                 0x70 (size before relaxing)
                0x8001e9a4                net_in_name
 .text.net_add_op
                0x8001ea0c      0x1b8 ../avr32/apps/bees/src/net.o
                                0x1d0 (size before relaxing)
                0x8001ea0c                net_add_op
 .text.net_activate
                0x8001ebc4       0x70 ../avr32/apps/bees/src/net.o
                                 0x84 (size before relaxing)
                0x8001ebc4                net_activate
 .text.net_init
                0x8001ec34      0x104 ../avr32/apps/bees/src/net.o
                                0x128 (size before relaxing)
                0x8001ec34                net_init
 .text.net_inc_in_value
                0x8001ed38       0x98 ../avr32/apps/bees/src/net.o
                                 0xb4 (size before relaxing)
                0x8001ed38                net_inc_in_value
 .text.op_in_name
                0x8001edd0       0x54 ../avr32/apps/bees/src/op.o
                                 0x58 (size before relaxing)
                0x8001edd0                op_in_name
 .text.op_out_name
                0x8001ee24       0x54 ../avr32/apps/bees/src/op.o
                                 0x58 (size before relaxing)
                0x8001ee24                op_out_name
 .text.op_get_in_val
                0x8001ee78        0xa ../avr32/apps/bees/src/op.o
                0x8001ee78                op_get_in_val
 .text.op_set_in_val
                0x8001ee82       0x18 ../avr32/apps/bees/src/op.o
                0x8001ee82                op_set_in_val
 *fill*         0x8001ee9a        0x2 d703d703
 .text.get_param_value
                0x8001ee9c       0x20 ../avr32/apps/bees/src/param.o
                0x8001ee9c                get_param_value
 .text.get_param_preset
                0x8001eebc       0x18 ../avr32/apps/bees/src/param.o
                0x8001eebc                get_param_preset
 .text.set_param_value
                0x8001eed4       0x48 ../avr32/apps/bees/src/param.o
                                 0x4c (size before relaxing)
                0x8001eed4                set_param_value
 .text.play_init
                0x8001ef1c       0x38 ../avr32/apps/bees/src/play.o
                0x8001ef1c                play_init
 .text.play_get_entry
                0x8001ef54       0x38 ../avr32/apps/bees/src/play.o
                                 0x3c (size before relaxing)
                0x8001ef54                play_get_entry
 .text.play_input
                0x8001ef8c       0x74 ../avr32/apps/bees/src/play.o
                                 0x94 (size before relaxing)
                0x8001ef8c                play_input
 .text.preset_name
                0x8001f000       0x14 ../avr32/apps/bees/src/preset.o
                                 0x18 (size before relaxing)
                0x8001f000                preset_name
 .text.preset_recall
                0x8001f014       0xc4 ../avr32/apps/bees/src/preset.o
                                 0xd8 (size before relaxing)
                0x8001f014                preset_recall
 .text.preset_store
                0x8001f0d8       0xd8 ../avr32/apps/bees/src/preset.o
                                 0xf8 (size before relaxing)
                0x8001f0d8                preset_store
 .text.preset_init
                0x8001f1b0       0xb8 ../avr32/apps/bees/src/preset.o
                                 0xc4 (size before relaxing)
                0x8001f1b0                preset_init
 .text.redraw_gathered
                0x8001f268        0x2 ../avr32/apps/bees/src/redraw.o
                0x8001f268                redraw_gathered
 *fill*         0x8001f26a        0x2 d703d703
 .text.redraw_play
                0x8001f26c       0x6c ../avr32/apps/bees/src/redraw.o
                                 0x80 (size before relaxing)
                0x8001f26c                redraw_play
 .text.redraw_scenes
                0x8001f2d8       0xb8 ../avr32/apps/bees/src/redraw.o
                                 0xd8 (size before relaxing)
                0x8001f2d8                redraw_scenes
 .text.T.66     0x8001f390       0x84 ../avr32/apps/bees/src/redraw.o
                                 0x98 (size before relaxing)
 .text.redraw_presets
                0x8001f414       0xdc ../avr32/apps/bees/src/redraw.o
                                0x104 (size before relaxing)
                0x8001f414                redraw_presets
 .text.draw_line_ops
                0x8001f4f0       0x88 ../avr32/apps/bees/src/redraw.o
                                 0xa0 (size before relaxing)
 .text.redraw_ops
                0x8001f578      0x124 ../avr32/apps/bees/src/redraw.o
                                0x15c (size before relaxing)
                0x8001f578                redraw_ops
 .text.draw_line_outs
                0x8001f69c      0x264 ../avr32/apps/bees/src/redraw.o
                                0x280 (size before relaxing)
 .text.redraw_outs
                0x8001f900       0x8c ../avr32/apps/bees/src/redraw.o
                                 0xac (size before relaxing)
                0x8001f900                redraw_outs
 .text.draw_line_ins
                0x8001f98c      0x17c ../avr32/apps/bees/src/redraw.o
                                0x19c (size before relaxing)
 .text.redraw_ins
                0x8001fb08       0x8c ../avr32/apps/bees/src/redraw.o
                                 0xac (size before relaxing)
                0x8001fb08                redraw_ins
 .text.redraw_dsp
                0x8001fb94      0x1a0 ../avr32/apps/bees/src/redraw.o
                                0x1b4 (size before relaxing)
                0x8001fb94                redraw_dsp
 .text.scene_read_buf
                0x8001fd34       0x7c ../avr32/apps/bees/src/scene.o
                                 0x9c (size before relaxing)
                0x8001fd34                scene_read_buf
 .text.scene_read_default
                0x8001fdb0       0x20 ../avr32/apps/bees/src/scene.o
                                 0x34 (size before relaxing)
                0x8001fdb0                scene_read_default
 .text.scene_init
                0x8001fdd0       0x14 ../avr32/apps/bees/src/scene.o
                                 0x18 (size before relaxing)
                0x8001fdd0                scene_init
 .text.scene_write_default
                0x8001fde4       0x48 ../avr32/apps/bees/src/scene.o
                                 0x5c (size before relaxing)
                0x8001fde4                scene_write_default
 .text.op_add_init
                0x8001fe2c       0x58 ../avr32/apps/bees/src/ops/op_add.o
                                 0x64 (size before relaxing)
                0x8001fe2c                op_add_init
 .text.op_add_in_btrig
                0x8001fe84        0x8 ../avr32/apps/bees/src/ops/op_add.o
 .text.op_add_in_b
                0x8001fe8c       0x28 ../avr32/apps/bees/src/ops/op_add.o
                                 0x30 (size before relaxing)
 .text.op_add_in_a
                0x8001feb4       0x20 ../avr32/apps/bees/src/ops/op_add.o
                                 0x28 (size before relaxing)
 .text.op_add_inc_input
                0x8001fed4       0x7c ../avr32/apps/bees/src/ops/op_add.o
                                 0x84 (size before relaxing)
 .text.op_enc_init
                0x8001ff50       0x84 ../avr32/apps/bees/src/ops/op_enc.o
                                 0x90 (size before relaxing)
                0x8001ff50                op_enc_init
 .text.op_enc_in_step
                0x8001ffd4        0x6 ../avr32/apps/bees/src/ops/op_enc.o
 .text.op_enc_in_wrap
                0x8001ffda       0x16 ../avr32/apps/bees/src/ops/op_enc.o
 .text.op_enc_perform
                0x8001fff0       0xbc ../avr32/apps/bees/src/ops/op_enc.o
                                 0xc8 (size before relaxing)
 .text.op_enc_in_max
                0x800200ac        0xc ../avr32/apps/bees/src/ops/op_enc.o
                                 0x10 (size before relaxing)
 .text.op_enc_in_min
                0x800200b8        0xc ../avr32/apps/bees/src/ops/op_enc.o
                                 0x10 (size before relaxing)
 .text.op_enc_in_move
                0x800200c4       0x20 ../avr32/apps/bees/src/ops/op_enc.o
                                 0x30 (size before relaxing)
 .text.op_enc_inc_input
                0x800200e4       0x98 ../avr32/apps/bees/src/ops/op_enc.o
                                 0xac (size before relaxing)
 .text.op_gate_init
                0x8002017c       0x5c ../avr32/apps/bees/src/ops/op_gate.o
                                 0x68 (size before relaxing)
                0x8002017c                op_gate_init
 .text.op_gate_in_store
                0x800201d8       0x14 ../avr32/apps/bees/src/ops/op_gate.o
 .text.op_gate_in_gate
                0x800201ec       0x28 ../avr32/apps/bees/src/ops/op_gate.o
                                 0x2c (size before relaxing)
 .text.op_gate_in_value
                0x80020214       0x18 ../avr32/apps/bees/src/ops/op_gate.o
                                 0x1c (size before relaxing)
 .text.op_gate_inc_input
                0x8002022c       0x7c ../avr32/apps/bees/src/ops/op_gate.o
                                 0x84 (size before relaxing)
 .text.op_mul_init
                0x800202a8       0x58 ../avr32/apps/bees/src/ops/op_mul.o
                                 0x60 (size before relaxing)
                0x800202a8                op_mul_init
 .text.op_mul_in_btrig
                0x80020300       0x14 ../avr32/apps/bees/src/ops/op_mul.o
 .text.op_mul_in_b
                0x80020314       0x28 ../avr32/apps/bees/src/ops/op_mul.o
                                 0x30 (size before relaxing)
 .text.op_mul_in_a
                0x8002033c       0x20 ../avr32/apps/bees/src/ops/op_mul.o
                                 0x28 (size before relaxing)
 .text.op_mul_inc_input
                0x8002035c       0x80 ../avr32/apps/bees/src/ops/op_mul.o
                                 0x8c (size before relaxing)
 .text.op_sw_init
                0x800203dc       0x68 ../avr32/apps/bees/src/ops/op_sw.o
                                 0x74 (size before relaxing)
                0x800203dc                op_sw_init
 .text.op_sw_in_tog
                0x80020444       0x16 ../avr32/apps/bees/src/ops/op_sw.o
 *fill*         0x8002045a        0x2 d703d703
 .text.op_sw_in_mul
                0x8002045c       0x20 ../avr32/apps/bees/src/ops/op_sw.o
                                 0x24 (size before relaxing)
 .text.op_sw_in_state
                0x8002047c       0x4c ../avr32/apps/bees/src/ops/op_sw.o
                                 0x50 (size before relaxing)
 .text.op_sw_inc_func
                0x800204c8       0x90 ../avr32/apps/bees/src/ops/op_sw.o
                                 0x98 (size before relaxing)
 .text._stext   0x80020558       0x40 avr32/utils/startup/startup_uc3.o
                                 0x50 (size before relaxing)
                0x80020558                _stext
 .text          0x80020598       0x74 /home/emb/avr32-gnu-toolchain/bin/../lib/gcc/avr32/4.4.3/ucr2/libgcc.a(_avr32_s32_to_f32.o)
                0x80020598                __avr32_s32_to_f32
 .text          0x8002060c       0x1e /home/emb/avr32-gnu-toolchain/bin/../lib/gcc/avr32/4.4.3/ucr2/libgcc.a(_avr32_f32_to_s32.o)
                0x8002060c                __avr32_f32_to_s32
 .text          0x8002062a      0x292 /home/emb/avr32-gnu-toolchain/bin/../lib/gcc/avr32/4.4.3/ucr2/libgcc.a(_udivdi3.o)
                0x8002062a                __udivdi3
                0x8002062a                __avr32_udiv64
 .text.free     0x800208bc       0x10 /home/emb/avr32-gnu-toolchain/bin/../lib/gcc/avr32/4.4.3/../../../../avr32/lib/ucr2/libc.a(lib_a-malloc.o)
                                 0x18 (size before relaxing)
                0x800208bc                free
 .text.malloc   0x800208cc       0x10 /home/emb/avr32-gnu-toolchain/bin/../lib/gcc/avr32/4.4.3/../../../../avr32/lib/ucr2/libc.a(lib_a-malloc.o)
                                 0x18 (size before relaxing)
                0x800208cc                malloc
 .text._malloc_r
                0x800208dc      0x430 /home/emb/avr32-gnu-toolchain/bin/../lib/gcc/avr32/4.4.3/../../../../avr32/lib/ucr2/libc.a(lib_a-mallocr.o)
                                0x454 (size before relaxing)
                0x800208dc                _malloc_r
 .text          0x80020d0c      0x148 /home/emb/avr32-gnu-toolchain/bin/../lib/gcc/avr32/4.4.3/../../../../avr32/lib/ucr2/libc.a(lib_a-memcpy.o)
                0x80020d0c                memcpy
 .text.memset   0x80020e54        0xe /home/emb/avr32-gnu-toolchain/bin/../lib/gcc/avr32/4.4.3/../../../../avr32/lib/ucr2/libc.a(lib_a-memset.o)
                0x80020e54                memset
 .text.__malloc_lock
                0x80020e62        0x2 /home/emb/avr32-gnu-toolchain/bin/../lib/gcc/avr32/4.4.3/../../../../avr32/lib/ucr2/libc.a(lib_a-mlock.o)
                0x80020e62                __malloc_lock
 .text.__malloc_unlock
                0x80020e64        0x2 /home/emb/avr32-gnu-toolchain/bin/../lib/gcc/avr32/4.4.3/../../../../avr32/lib/ucr2/libc.a(lib_a-mlock.o)
                0x80020e64                __malloc_unlock
 *fill*         0x80020e66        0x2 d703d703
 .text._sbrk_r  0x80020e68       0x20 /home/emb/avr32-gnu-toolchain/bin/../lib/gcc/avr32/4.4.3/../../../../avr32/lib/ucr2/libc.a(lib_a-sbrkr.o)
                                 0x28 (size before relaxing)
                0x80020e68                _sbrk_r
 .text          0x80020e88       0xa8 /home/emb/avr32-gnu-toolchain/bin/../lib/gcc/avr32/4.4.3/../../../../avr32/lib/ucr2/libc.a(lib_a-strcmp.o)
                0x80020e88                strcmp
 .text.strcpy   0x80020f30       0x12 /home/emb/avr32-gnu-toolchain/bin/../lib/gcc/avr32/4.4.3/../../../../avr32/lib/ucr2/libc.a(lib_a-strcpy.o)
                0x80020f30                strcpy
 .text.strlen   0x80020f42       0x16 /home/emb/avr32-gnu-toolchain/bin/../lib/gcc/avr32/4.4.3/../../../../avr32/lib/ucr2/libc.a(lib_a-strlen.o)
                0x80020f42                strlen
 .text.strncat  0x80020f58       0x2e /home/emb/avr32-gnu-toolchain/bin/../lib/gcc/avr32/4.4.3/../../../../avr32/lib/ucr2/libc.a(lib_a-strncat.o)
                0x80020f58                strncat
 .text.strncmp  0x80020f86       0x26 /home/emb/avr32-gnu-toolchain/bin/../lib/gcc/avr32/4.4.3/../../../../avr32/lib/ucr2/libc.a(lib_a-strncmp.o)
                0x80020f86                strncmp
 .text          0x80020fac       0x20 /home/emb/avr32-gnu-toolchain/bin/../lib/gcc/avr32/4.4.3/../../../../avr32/lib/ucr2/libc.a(lib_a-strncpy.o)
                0x80020fac                strncpy
 .text._sbrk    0x80020fcc       0x38 /home/emb/avr32-gnu-toolchain/bin/../lib/gcc/avr32/4.4.3/../../../../avr32/lib/ucr2/libc.a(lib_a-syscalls.o)
                                 0x40 (size before relaxing)
                0x80020fcc                _sbrk
 .text.__errno  0x80021004        0xc /home/emb/avr32-gnu-toolchain/bin/../lib/gcc/avr32/4.4.3/../../../../avr32/lib/ucr2/libc.a(lib_a-errno.o)
                0x80021004                __errno
 .text._malloc_trim_r
                0x80021010       0x8c /home/emb/avr32-gnu-toolchain/bin/../lib/gcc/avr32/4.4.3/../../../../avr32/lib/ucr2/libc.a(lib_a-freer.o)
                                 0xa8 (size before relaxing)
                0x80021010                _malloc_trim_r
 .text._free_r  0x8002109c      0x184 /home/emb/avr32-gnu-toolchain/bin/../lib/gcc/avr32/4.4.3/../../../../avr32/lib/ucr2/libc.a(lib_a-freer.o)
                                0x1a4 (size before relaxing)
                0x8002109c                _free_r
 *(.text.*personality*)
 *(.gnu.warning)

.exception      0x80021400      0x200
 .exception     0x80021400      0x200 avr32/drivers/intc/exception.o
                0x80021400                _evba
                0x80021504                _int0
                0x80021512                _int1
                0x80021520                _int2
                0x8002152e                _int3

.fini
 *(.fini)
                0x80021600                PROVIDE (__etext, .)
                0x80021600                PROVIDE (_etext, .)
                0x80021600                PROVIDE (etext, .)

.rodata         0x80021600     0x193c
 *(.rodata .rodata.* .gnu.linkonce.r.*)
 .rodata.SMC_EBI_GPIO_MAP.10588
                0x80021600      0x148 avr32/drivers/ebi/smc/smc.o
 .rodata.C.34.10514
                0x80021748       0x10 avr32/drivers/flashc/flashc.o
 .rodata._int_handler_table
                0x80021758       0xa0 avr32/drivers/intc/intc.o
 .rodata.HEX_DIGITS
                0x800217f8       0x10 avr32/utils/debug/print_funcs.o
 .rodata.CSWTCH.100
                0x80021808        0xc avr32/drivers/usbb/usbb_host.o
 .rodata.CSWTCH.103
                0x80021814        0xc avr32/drivers/usbb/usbb_host.o
 .rodata.str1.4
                0x80021820      0x311 common/services/usb/uhc/uhc.o
                                0x314 (size before relaxing)
 *fill*         0x80021b31        0x3 00
 .rodata.uhc_uhis
                0x80021b34       0x20 common/services/usb/uhc/uhc.o
 .rodata.str1.4
                0x80021b54       0x29 ../avr32/src/app_timers.o
                                 0x2c (size before relaxing)
 *fill*         0x80021b7d        0x3 00
 .rodata.str1.4
                0x80021b80       0x51 ../avr32/src/bfin.o
                                 0x54 (size before relaxing)
 *fill*         0x80021bd1        0x3 00
 .rodata.str1.4
                0x80021bd4       0x15 ../avr32/src/events.o
                                 0x18 (size before relaxing)
 .rodata.enc_map
                0x80021be9       0x10 ../avr32/src/encoders.o
 *fill*         0x80021bf9        0x3 00
 .rodata.str1.4
                0x80021bfc      0x1e6 ../avr32/src/files.o
                                0x1e8 (size before relaxing)
 *fill*         0x80021de2        0x2 00
 .rodata.str1.4
                0x80021de4      0x121 ../avr32/src/filesystem.o
                                0x124 (size before relaxing)
 *fill*         0x80021f05        0x3 00
 .rodata.str1.4
                0x80021f08       0x36 ../avr32/src/flash.o
                                 0x50 (size before relaxing)
 .rodata.font_data
                0x80021f3e      0x2f8 ../avr32/src/font.o
                0x80021f3e                font_data
 *fill*         0x80022236        0x2 00
 .rodata.tc_interrupt.13477
                0x80022238        0x4 ../avr32/src/init.o
 .rodata.FTDI_USART_OPTIONS.13482
                0x8002223c        0xc ../avr32/src/init.o
 .rodata.FTDI_USART_GPIO_MAP.13481
                0x80022248       0x10 ../avr32/src/init.o
 .rodata.OLED_SPI_GPIO_MAP.13486
                0x80022258       0x30 ../avr32/src/init.o
 .rodata.waveform_opt.13476
                0x80022288        0x8 ../avr32/src/init.o
 .rodata.C.65.13495
                0x80022290       0x18 ../avr32/src/init.o
 .rodata.BFIN_SPI_GPIO_MAP.13499
                0x800222a8       0x20 ../avr32/src/init.o
 .rodata.C.63.13488
                0x800222c8       0x10 ../avr32/src/init.o
 .rodata.C.66.13501
                0x800222d8       0x10 ../avr32/src/init.o
 .rodata.C.64.13494
                0x800222e8       0x18 ../avr32/src/init.o
 .rodata.str1.4
                0x80022300       0x30 ../avr32/src/memory.o
 .rodata.lines  0x80022330        0x8 ../avr32/src/screen.o
                0x80022330                lines
 .rodata.kSwitchEvents
                0x80022338       0x40 ../avr32/src/switches.o
 .rodata.str1.4
                0x80022378       0x1c ../avr32/src/switches.o
 .rodata.kSwitchPins
                0x80022394        0x8 ../avr32/src/switches.o
 .rodata.str1.4
                0x8002239c      0x12e ../avr32/src/main.o
                                0x130 (size before relaxing)
 *fill*         0x800224ca        0x2 00
 .rodata.str1.4
                0x800224cc       0x7f ../avr32/src/usb/mouse/hid_mouse.o
                                 0x80 (size before relaxing)
 *fill*         0x8002254b        0x1 00
 .rodata.str1.4
                0x8002254c      0x15b ../avr32/src/usb/gamepad/uhi_hid_gamepad.o
                                0x168 (size before relaxing)
 *fill*         0x800226a7        0x1 00
 .rodata.fl_fopen
                0x800226a8      0x134 ../avr32/src/fat_io_lib/fat_filelib.o
 .rodata.str1.4
                0x800227dc       0x3b ../avr32/src/fat_io_lib/fat_filelib.o
                                 0x40 (size before relaxing)
 *fill*         0x80022817        0x1 00
 .rodata.str1.4
                0x80022818       0x11 ../avr32/src/fat_io_lib/fat_misc.o
                                 0x14 (size before relaxing)
 *fill*         0x80022829        0x3 00
 .rodata.C.1.2863
                0x8002282c       0x34 ../avr32/src/fat_io_lib/fat_misc.o
 .rodata.app_handle_event
                0x80022860       0x54 ../avr32/apps/bees/src/app.o
 .rodata.str1.4
                0x800228b4       0x9a ../avr32/apps/bees/src/app.o
                                 0x9c (size before relaxing)
 *fill*         0x8002294e        0x2 00
 .rodata.key_handler_scenes
                0x80022950       0x40 ../avr32/apps/bees/src/key_handler.o
 .rodata.key_handler_presets
                0x80022990       0x30 ../avr32/apps/bees/src/key_handler.o
 .rodata.key_handler_play
                0x800229c0       0x40 ../avr32/apps/bees/src/key_handler.o
 .rodata.key_handler_outs
                0x80022a00       0x38 ../avr32/apps/bees/src/key_handler.o
 .rodata.key_handler_ins
                0x80022a38       0x40 ../avr32/apps/bees/src/key_handler.o
 .rodata.key_handler_ops
                0x80022a78       0x40 ../avr32/apps/bees/src/key_handler.o
 .rodata.str1.4
                0x80022ab8       0x78 ../avr32/apps/bees/src/key_handler.o
 .rodata.scroll_page
                0x80022b30       0x1c ../avr32/apps/bees/src/menu.o
 .rodata.userOpTypes
                0x80022b4c       0x18 ../avr32/apps/bees/src/menu.o
                0x80022b4c                userOpTypes
 .rodata.str1.4
                0x80022b64       0x35 ../avr32/apps/bees/src/menu.o
                                 0x38 (size before relaxing)
 *fill*         0x80022b99        0x3 00
 .rodata.str1.4
                0x80022b9c       0x3c ../avr32/apps/bees/src/net.o
                                 0x40 (size before relaxing)
 .rodata.op_registry
                0x80022bd8       0x28 ../avr32/apps/bees/src/op.o
                0x80022bd8                op_registry
 .rodata.str1.4
                0x80022c00       0x15 ../avr32/apps/bees/src/op.o
                                 0x18 (size before relaxing)
 *fill*         0x80022c15        0x3 00
 .rodata.str1.4
                0x80022c18       0x1e ../avr32/apps/bees/src/play.o
                                 0x20 (size before relaxing)
 *fill*         0x80022c36        0x2 00
 .rodata.str1.4
                0x80022c38        0x8 ../avr32/apps/bees/src/preset.o
 .rodata.str1.4
                0x80022c40       0xd9 ../avr32/apps/bees/src/redraw.o
                                 0xf8 (size before relaxing)
 *fill*         0x80022d19        0x3 00
 .rodata.str1.4
                0x80022d1c       0xbd ../avr32/apps/bees/src/scene.o
                                 0xc0 (size before relaxing)
 *fill*         0x80022dd9        0x3 00
 .rodata.op_add_instring
                0x80022ddc        0x4 ../avr32/apps/bees/src/ops/op_add.o
 .rodata.str1.4
                0x80022de0       0x2d ../avr32/apps/bees/src/ops/op_add.o
                                 0x30 (size before relaxing)
 *fill*         0x80022e0d        0x3 00
 .rodata.op_add_opstring
                0x80022e10        0x4 ../avr32/apps/bees/src/ops/op_add.o
 .rodata.op_add_outstring
                0x80022e14        0x4 ../avr32/apps/bees/src/ops/op_add.o
 .rodata.op_enc_instring
                0x80022e18        0x4 ../avr32/apps/bees/src/ops/op_enc.o
 .rodata.op_enc_opstring
                0x80022e1c        0x4 ../avr32/apps/bees/src/ops/op_enc.o
 .rodata.op_enc_outstring
                0x80022e20        0x4 ../avr32/apps/bees/src/ops/op_enc.o
 .rodata.str1.4
                0x80022e24       0x3d ../avr32/apps/bees/src/ops/op_enc.o
                                 0x44 (size before relaxing)
 *fill*         0x80022e61        0x3 00
 .rodata.str1.4
                0x80022e64       0x25 ../avr32/apps/bees/src/ops/op_gate.o
                                 0x30 (size before relaxing)
 *fill*         0x80022e89        0x3 00
 .rodata.op_gate_outstring
                0x80022e8c        0x4 ../avr32/apps/bees/src/ops/op_gate.o
 .rodata.op_gate_instring
                0x80022e90        0x4 ../avr32/apps/bees/src/ops/op_gate.o
 .rodata.op_gate_opstring
                0x80022e94        0x4 ../avr32/apps/bees/src/ops/op_gate.o
 .rodata.str1.4
                0x80022e98        0x9 ../avr32/apps/bees/src/ops/op_mul.o
                                 0x2c (size before relaxing)
 *fill*         0x80022ea1        0x3 00
 .rodata.op_mul_outstring
                0x80022ea4        0x4 ../avr32/apps/bees/src/ops/op_mul.o
 .rodata.op_mul_instring
                0x80022ea8        0x4 ../avr32/apps/bees/src/ops/op_mul.o
 .rodata.op_mul_opstring
                0x80022eac        0x4 ../avr32/apps/bees/src/ops/op_mul.o
 .rodata.op_sw_instring
                0x80022eb0        0x4 ../avr32/apps/bees/src/ops/op_sw.o
 .rodata.op_sw_opstring
                0x80022eb4        0x4 ../avr32/apps/bees/src/ops/op_sw.o
 .rodata.op_sw_outstring
                0x80022eb8        0x4 ../avr32/apps/bees/src/ops/op_sw.o
 .rodata.str1.4
                0x80022ebc       0x19 ../avr32/apps/bees/src/ops/op_sw.o
                                 0x2c (size before relaxing)
 *fill*         0x80022ed5        0x3 00
 .rodata.str1.4
                0x80022ed8        0x4 /home/emb/avr32-gnu-toolchain/bin/../lib/gcc/avr32/4.4.3/../../../../avr32/lib/ucr2/libc.a(lib_a-impure.o)
 .rodata.__sf_fake_stdin
                0x80022edc       0x20 /home/emb/avr32-gnu-toolchain/bin/../lib/gcc/avr32/4.4.3/../../../../avr32/lib/ucr2/libc.a(lib_a-findfp.o)
                0x80022edc                __sf_fake_stdin
 .rodata.__sf_fake_stdout
                0x80022efc       0x20 /home/emb/avr32-gnu-toolchain/bin/../lib/gcc/avr32/4.4.3/../../../../avr32/lib/ucr2/libc.a(lib_a-findfp.o)
                0x80022efc                __sf_fake_stdout
 .rodata.__sf_fake_stderr
                0x80022f1c       0x20 /home/emb/avr32-gnu-toolchain/bin/../lib/gcc/avr32/4.4.3/../../../../avr32/lib/ucr2/libc.a(lib_a-findfp.o)
                0x80022f1c                __sf_fake_stderr

.rodata1
 *(.rodata1)

.eh_frame_hdr
 *(.eh_frame_hdr)

.eh_frame
 *(.eh_frame)

.gcc_except_table
 *(.gcc_except_table)
 *(.gcc_except_table.*)

.lalign         0x80022f3c        0x4
                0x80022f40                . = ALIGN (0x8)
 *fill*         0x80022f3c        0x4 00
                0x80022f40                PROVIDE (_data_lma, .)
                0x00000004                . = ORIGIN (INTRAM)

.dalign         0x00000004        0x4
                0x00000008                . = ALIGN (0x8)
 *fill*         0x00000004        0x4 00
                0x00000008                PROVIDE (_data, .)

.eh_frame
 *(.eh_frame)

.gcc_except_table
 *(.gcc_except_table)
 *(.gcc_except_table.*)

.tdata
 *(.tdata .tdata.* .gnu.linkonce.td.*)

.tbss
 *(.tbss .tbss.* .gnu.linkonce.tb.*)
 *(.tcommon)
                0x00000008                PROVIDE (__preinit_array_start, ALIGN (0x4))

.preinit_array
 *(.preinit_array)
                0x00000008                PROVIDE (__preinit_array_end, .)
                0x00000008                PROVIDE (__init_array_start, .)

.init_array
 *(.init_array)
                0x00000008                PROVIDE (__init_array_end, .)
                0x00000008                PROVIDE (__fini_array_start, .)

.fini_array
 *(.fini_array)
                0x00000008                PROVIDE (__fini_array_end, .)

.ctors
 *crtbegin*.o(.ctors)
 *(EXCLUDE_FILE(*crtend*.o) .ctors)
 *(SORT(.ctors.*))
 *(.ctors)

.dtors
 *crtbegin*.o(.dtors)
 *(EXCLUDE_FILE(*crtend*.o) .dtors)
 *(SORT(.dtors.*))
 *(.dtors)

.jcr
 *(.jcr)

.data.rel.ro
 *(.data.rel.ro.local)
 *(.data.rel.ro*)

.dynamic
 *(.dynamic)

.got
 *(.got.plt)
 *(.got)

.ramtext
 *(.ramtext .ramtext.*)

.ddalign        0x00000008        0x0 load address 0x80022f40
                0x00000008                . = ALIGN (0x8)

.data           0x00000008      0x64c load address 0x80022f40
 *(.data .data.* .gnu.linkonce.d.*)
 .data.flashc_wait_until_ready
                0x00000008        0x4 avr32/drivers/flashc/flashc.o
                0x00000008                flashc_wait_until_ready
 .data.startup  0x0000000c        0x1 ../avr32/src/main.o
 *fill*         0x0000000d        0x3 00
 .data.bufLo    0x00000010        0x4 ../common/fix.o
 .data.bufHi    0x00000014        0x8 ../common/fix.o
 .data.pages    0x0000001c       0xe0 ../avr32/apps/bees/src/menu.o
                0x0000001c                pages
 .data.numBuf   0x000000fc        0xc ../avr32/apps/bees/src/redraw.o
 .data.pline    0x00000108        0x4 ../avr32/apps/bees/src/redraw.o
 .data.op_add_in_func
                0x0000010c        0xc ../avr32/apps/bees/src/ops/op_add.o
 .data.op_enc_in_func
                0x00000118       0x14 ../avr32/apps/bees/src/ops/op_enc.o
 .data.op_gate_in_func
                0x0000012c        0xc ../avr32/apps/bees/src/ops/op_gate.o
 .data.op_mul_in_func
                0x00000138        0xc ../avr32/apps/bees/src/ops/op_mul.o
 .data.op_sw_in_func
                0x00000144        0xc ../avr32/apps/bees/src/ops/op_sw.o
 .data.__malloc_av_
                0x00000150      0x408 /home/emb/avr32-gnu-toolchain/bin/../lib/gcc/avr32/4.4.3/../../../../avr32/lib/ucr2/libc.a(lib_a-mallocr.o)
                0x00000150                __malloc_av_
 .data.__malloc_trim_threshold
                0x00000558        0x4 /home/emb/avr32-gnu-toolchain/bin/../lib/gcc/avr32/4.4.3/../../../../avr32/lib/ucr2/libc.a(lib_a-mallocr.o)
                0x00000558                __malloc_trim_threshold
 .data.__malloc_sbrk_base
                0x0000055c        0x4 /home/emb/avr32-gnu-toolchain/bin/../lib/gcc/avr32/4.4.3/../../../../avr32/lib/ucr2/libc.a(lib_a-mallocr.o)
                0x0000055c                __malloc_sbrk_base
 .data.impure_data
                0x00000560       0xf0 /home/emb/avr32-gnu-toolchain/bin/../lib/gcc/avr32/4.4.3/../../../../avr32/lib/ucr2/libc.a(lib_a-impure.o)
 .data._impure_ptr
                0x00000650        0x4 /home/emb/avr32-gnu-toolchain/bin/../lib/gcc/avr32/4.4.3/../../../../avr32/lib/ucr2/libc.a(lib_a-impure.o)
                0x00000650                _impure_ptr
 *(.gnu.linkonce.d.*personality*)

.data1
 *(.data1)

.balign         0x00000654        0x4 load address 0x8002358c
                0x00000658                . = ALIGN (0x8)
 *fill*         0x00000654        0x4 00
                0x00000658                PROVIDE (_edata, .)
                0x00000658                PROVIDE (edata, .)
                0x00000658                __bss_start = .

.bss            0x00000658     0x38d8
 *(.dynbss)
 *(.bss .bss.* .gnu.linkonce.b.*)
 .bss.smc_tab_cs_size
                0x00000658        0x8 avr32/drivers/ebi/smc/smc.o
 .bss.flashc_error_status
                0x00000660        0x4 avr32/drivers/flashc/flashc.o
 .bss._int_line_handler_table_6
                0x00000664        0x4 avr32/drivers/intc/intc.o
 .bss._int_line_handler_table_7
                0x00000668        0x4 avr32/drivers/intc/intc.o
 .bss._int_line_handler_table_8
                0x0000066c        0x4 avr32/drivers/intc/intc.o
 .bss._int_line_handler_table_9
                0x00000670        0x4 avr32/drivers/intc/intc.o
 .bss._int_line_handler_table_10
                0x00000674        0x4 avr32/drivers/intc/intc.o
 .bss._int_line_handler_table_11
                0x00000678        0x4 avr32/drivers/intc/intc.o
 .bss._int_line_handler_table_12
                0x0000067c        0x4 avr32/drivers/intc/intc.o
 .bss._int_line_handler_table_13
                0x00000680        0x4 avr32/drivers/intc/intc.o
 .bss._int_line_handler_table_14
                0x00000684        0xc avr32/drivers/intc/intc.o
 .bss._int_line_handler_table_15
                0x00000690        0x4 avr32/drivers/intc/intc.o
 .bss._int_line_handler_table_16
                0x00000694        0x4 avr32/drivers/intc/intc.o
 .bss._int_line_handler_table_17
                0x00000698        0x4 avr32/drivers/intc/intc.o
 .bss._int_line_handler_table_18
                0x0000069c        0x4 avr32/drivers/intc/intc.o
 .bss._int_line_handler_table_19
                0x000006a0        0x4 avr32/drivers/intc/intc.o
 .bss._int_line_handler_table_0
                0x000006a4        0x4 avr32/drivers/intc/intc.o
 .bss._int_line_handler_table_1
                0x000006a8       0x2c avr32/drivers/intc/intc.o
 .bss._int_line_handler_table_2
                0x000006d4       0x38 avr32/drivers/intc/intc.o
 .bss._int_line_handler_table_3
                0x0000070c       0x3c avr32/drivers/intc/intc.o
 .bss._int_line_handler_table_4
                0x00000748        0x4 avr32/drivers/intc/intc.o
 .bss._int_line_handler_table_5
                0x0000074c        0x4 avr32/drivers/intc/intc.o
 .bss.gl_ptr_mem
                0x00000750        0x4 avr32/components/memory/sd_mmc/sd_mmc_spi/sd_mmc_spi.o
 .bss.sd_mmc_opt
                0x00000754       0x10 avr32/components/memory/sd_mmc/sd_mmc_spi/sd_mmc_spi.o
 .bss.sd_mmc_pba_hz
                0x00000764        0x4 avr32/components/memory/sd_mmc/sd_mmc_spi/sd_mmc_spi.o
 .bss.sd_mmc_spi_init_done
                0x00000768        0x1 avr32/components/memory/sd_mmc/sd_mmc_spi/sd_mmc_spi.o
                0x00000768                sd_mmc_spi_init_done
 .bss.otg_initialized
                0x00000769        0x1 avr32/drivers/usbb/usbb_host.o
 *fill*         0x0000076a        0x2 00
 .bss.uhd_reset_callback
                0x0000076c        0x4 avr32/drivers/usbb/usbb_host.o
 .bss.uhd_pipe_job
                0x00000770       0x78 avr32/drivers/usbb/usbb_host.o
 .bss.uhd_suspend_start
                0x000007e8        0x1 avr32/drivers/usbb/usbb_host.o
 .bss.uhd_pipes_unfreeze
                0x000007e9        0x1 avr32/drivers/usbb/usbb_host.o
 .bss.uhd_resume_start
                0x000007ea        0x1 avr32/drivers/usbb/usbb_host.o
 .bss.uhd_b_suspend_requested
                0x000007eb        0x1 avr32/drivers/usbb/usbb_host.o
 .bss.sysclk_pbb_refcount
                0x000007ec        0x1 common/services/clock/uc3a0_a1/sysclk.o
 *fill*         0x000007ed        0x3 00
 .bss.g_uhc_device_root
                0x000007f0       0x1c common/services/usb/uhc/uhc.o
 .bss.uhc_enum_try
                0x0000080c        0x1 common/services/usb/uhc/uhc.o
 *fill*         0x0000080d        0x3 00
 .bss.uhc_sof_timeout_callback
                0x00000810        0x4 common/services/usb/uhc/uhc.o
 .bss.adcVal.11232
                0x00000814        0x8 ../avr32/src/adc.o
 .bss.adcOldVal.11233
                0x0000081c        0x8 ../avr32/src/adc.o
 .bss.e.11234   0x00000824        0x8 ../avr32/src/adc.o
 .bss.i         0x0000082c        0x1 ../avr32/src/app_timers.o
 *fill*         0x0000082d        0x3 00
 .bss.adcTimer  0x00000830       0x14 ../avr32/src/app_timers.o
 .bss.screenTimer
                0x00000844       0x14 ../avr32/src/app_timers.o
 .bss.encTimer  0x00000858       0x14 ../avr32/src/app_timers.o
 .bss.e         0x0000086c        0x8 ../avr32/src/app_timers.o
 .bss.val.11066
                0x00000874        0x2 ../avr32/src/app_timers.o
 .bss.pval.12915
                0x00000876        0x4 ../avr32/src/bfin.o
 *fill*         0x0000087a        0x2 00
 .bss.putIdx    0x0000087c        0x4 ../avr32/src/events.o
 .bss.getIdx    0x00000880        0x4 ../avr32/src/events.o
 .bss.sysEvents
                0x00000884      0x100 ../avr32/src/events.o
 .bss.sceneList
                0x00000984      0x80c ../avr32/src/files.o
 .bss.dspList   0x00001190      0x80c ../avr32/src/files.o
 .bss.bfinLdrSize
                0x0000199c        0x4 ../avr32/src/flash.o
                0x0000199c                bfinLdrSize
 .bss.refresh   0x000019a0        0x1 ../avr32/src/interrupts.o
                0x000019a0                refresh
 .bss.tcOverflow
                0x000019a1        0x1 ../avr32/src/interrupts.o
                0x000019a1                tcOverflow
 *fill*         0x000019a2        0x2 00
 .bss.tcTicks   0x000019a4        0x8 ../avr32/src/interrupts.o
                0x000019a4                tcTicks
 .bss.pHeapStart
                0x000019ac        0x4 ../avr32/src/memory.o
 .bss.heapOffset
                0x000019b0        0x4 ../avr32/src/memory.o
 .bss.heapSize  0x000019b4        0x4 ../avr32/src/memory.o
 .bss.pHeapEnd  0x000019b8        0x4 ../avr32/src/memory.o
 .bss.i         0x000019bc        0x1 ../avr32/src/screen.o
 .bss.j         0x000019bd        0x1 ../avr32/src/screen.o
 .bss.i.12095   0x000019be        0x1 ../avr32/src/screen.o
 .bss.y         0x000019bf        0x1 ../avr32/src/screen.o
 .bss.pos       0x000019c0        0x4 ../avr32/src/screen.o
 .bss.g.12247   0x000019c4        0x4 ../avr32/src/screen.o
 .bss.xnum.12246
                0x000019c8        0x1 ../avr32/src/screen.o
 *fill*         0x000019c9        0x3 00
 .bss.screen    0x000019cc     0x1000 ../avr32/src/screen.o
 .bss.e.10623   0x000029cc        0x8 ../avr32/src/switches.o
 .bss.timers    0x000029d4       0x20 ../avr32/src/timers.o
 .bss.e.13650   0x000029f4        0x8 ../avr32/src/main.o
 .bss.firstrun  0x000029fc        0x1 ../avr32/src/main.o
 *fill*         0x000029fd        0x3 00
 .bss.uhi_hid_mouse_dev
                0x00002a00       0x10 ../avr32/src/usb/mouse/uhi_hid_mouse.o
 .bss.uhi_hid_gamepad_dev
                0x00002a10        0xc ../avr32/src/usb/gamepad/uhi_hid_gamepad.o
 .bss._open_file_list
                0x00002a1c        0x8 ../avr32/src/fat_io_lib/fat_filelib.o
 .bss._filelib_valid
                0x00002a24        0x4 ../avr32/src/fat_io_lib/fat_filelib.o
 .bss._fs       0x00002a28      0x468 ../avr32/src/fat_io_lib/fat_filelib.o
 .bss._files    0x00002e90      0x888 ../avr32/src/fat_io_lib/fat_filelib.o
 .bss._filelib_init
                0x00003718        0x4 ../avr32/src/fat_io_lib/fat_filelib.o
 .bss._free_file_list
                0x0000371c        0x8 ../avr32/src/fat_io_lib/fat_filelib.o
 .bss.p.10522   0x00003724        0x4 ../common/fix.o
 .bss.u         0x00003728        0x4 ../common/fix.o
 .bss.p.10486   0x0000372c        0x4 ../common/fix.o
 .bss.a         0x00003730        0x4 ../common/fix.o
 .bss.p.10605   0x00003734        0x4 ../common/fix.o
 .bss.p.10557   0x00003738        0x4 ../common/fix.o
 .bss.sign      0x0000373c        0x4 ../common/fix.o
 .bss.keyMode   0x00003740        0x1 ../avr32/apps/bees/src/app.o
 *fill*         0x00003741        0x3 00
 .bss.target.11164
                0x00003744        0x4 ../avr32/apps/bees/src/key_handler.o
 .bss.selectedLabelChar
                0x00003748        0x1 ../avr32/apps/bees/src/key_handler.o
 .bss.savedPageIdx
                0x00003749        0x1 ../avr32/apps/bees/src/menu.o
 .bss.pageIdx   0x0000374a        0x1 ../avr32/apps/bees/src/menu.o
                0x0000374a                pageIdx
 *fill*         0x0000374b        0x1 00
 .bss.str.10987
                0x0000374c       0x10 ../avr32/apps/bees/src/op.o
 .bss.str.11006
                0x0000375c       0x10 ../avr32/apps/bees/src/op.o
 .bss.scrollIdx
                0x0000376c        0x2 ../avr32/apps/bees/src/play.o
 *fill*         0x0000376e        0x2 00
 .bss.scrollBuf
                0x00003770       0xc4 ../avr32/apps/bees/src/play.o
 .bss.lineBuf   0x00003834       0x1c ../avr32/apps/bees/src/redraw.o
 .bss.__malloc_max_total_mem
                0x00003850        0x4 /home/emb/avr32-gnu-toolchain/bin/../lib/gcc/avr32/4.4.3/../../../../avr32/lib/ucr2/libc.a(lib_a-mallocr.o)
                0x00003850                __malloc_max_total_mem
 .bss.__malloc_max_sbrked_mem
                0x00003854        0x4 /home/emb/avr32-gnu-toolchain/bin/../lib/gcc/avr32/4.4.3/../../../../avr32/lib/ucr2/libc.a(lib_a-mallocr.o)
                0x00003854                __malloc_max_sbrked_mem
 .bss.__malloc_top_pad
                0x00003858        0x4 /home/emb/avr32-gnu-toolchain/bin/../lib/gcc/avr32/4.4.3/../../../../avr32/lib/ucr2/libc.a(lib_a-mallocr.o)
                0x00003858                __malloc_top_pad
 .bss.__malloc_current_mallinfo
                0x0000385c       0x28 /home/emb/avr32-gnu-toolchain/bin/../lib/gcc/avr32/4.4.3/../../../../avr32/lib/ucr2/libc.a(lib_a-mallocr.o)
                0x0000385c                __malloc_current_mallinfo
 .bss.cur_heap_pos.1869
                0x00003884        0x4 /home/emb/avr32-gnu-toolchain/bin/../lib/gcc/avr32/4.4.3/../../../../avr32/lib/ucr2/libc.a(lib_a-syscalls.o)
 *(COMMON)
 COMMON         0x00003888      0x229 avr32/components/memory/sd_mmc/sd_mmc_spi/sd_mmc_spi.o
                0x00003888                data_mem
                0x00003a8c                capacity
                0x00003a94                capacity_mult
                0x00003a96                erase_group_size
                0x00003a98                sd_mmc_spi_last_block_address
                0x00003a9c                r2
                0x00003a9e                card_type
                0x00003aa0                csd
                0x00003ab0                r1
 *fill*         0x00003ab1        0x3 00
 COMMON         0x00003ab4       0x12 avr32/drivers/usbb/usbb_host.o
                0x00003ab4                uhd_ctrl_request_phase
                0x00003ab8                uhd_ctrl_request_first
                0x00003abc                uhd_ctrl_nb_trans
                0x00003ac0                uhd_ctrl_request_last
                0x00003ac4                uhd_ctrl_request_timeout
 COMMON         0x00003ac6        0x1 common/services/usb/uhc/uhc.o
                0x00003ac6                uhc_sof_timeout
 *fill*         0x00003ac7        0x1 00
 COMMON         0x00003ac8       0x30 ../avr32/src/encoders.o
                0x00003ac8                enc
 COMMON         0x00003af8      0x40c ../avr32/src/filesystem.o
                0x00003af8                pdcaRxChan
                0x00003afc                fsEndTransfer
                0x00003b00                pdcaTxChan
                0x00003b04                pdcaTxBuf
                0x00003d04                pdcaRxBuf
 COMMON         0x00003f04        0x8 ../avr32/src/flash.o
                0x00003f04                bfinLdrData
                0x00003f08                fwBinData
 COMMON         0x00003f0c       0x10 ../avr32/apps/bees/src/menu.o
                0x00003f0c                curPage
                0x00003f10                gathered
                0x00003f14                newOpType
                0x00003f18                numGathered
 COMMON         0x00003f1c        0x4 ../avr32/apps/bees/src/net.o
                0x00003f1c                net
 COMMON         0x00003f20        0x4 ../avr32/apps/bees/src/preset.o
                0x00003f20                presets
 COMMON         0x00003f24        0x4 ../avr32/apps/bees/src/scene.o
                0x00003f24                sceneData
 COMMON         0x00003f28        0x4 /home/emb/avr32-gnu-toolchain/bin/../lib/gcc/avr32/4.4.3/../../../../avr32/lib/ucr2/libc.a(lib_a-reent.o)
                0x00003f28                errno
                0x00003f30                . = ALIGN (0x8)
 *fill*         0x00003f2c        0x4 00
                0x00003f30                . = ALIGN (0x8)
                0x00003f30                _end = .
                0x00003f30                PROVIDE (end, .)
                0x00003f30                __heap_start__ = ALIGN (0x8)

.heap           0x00003f30     0xb0d0
 *(.heap)
                0x0000b0d0                . = (__heap_size__ == __max_heap_size__)?(((ORIGIN (INTRAM) + 0xfffc) - __stack_size__) - ABSOLUTE (.)):__heap_size__
 *fill*         0x00003f30     0xb0d0 00
                0x0000f000                __heap_end__ = .

.stab
 *(.stab)

.stabstr
 *(.stabstr)

.stab.excl
 *(.stab.excl)

.stab.exclstr
 *(.stab.exclstr)

.stab.index
 *(.stab.index)

.stab.indexstr
 *(.stab.indexstr)

.comment        0x00000000       0x30
 *(.comment)
 .comment       0x00000000       0x30 avr32/drivers/ebi/smc/smc.o
                                 0x31 (size before relaxing)
 .comment       0x00000000       0x31 avr32/drivers/flashc/flashc.o
 .comment       0x00000000       0x31 avr32/drivers/gpio/gpio.o
 .comment       0x00000000       0x31 avr32/drivers/intc/intc.o
 .comment       0x00000000       0x31 avr32/drivers/pdca/pdca.o
 .comment       0x00000000       0x31 avr32/drivers/spi/spi.o
 .comment       0x00000000       0x31 avr32/drivers/tc/tc.o
 .comment       0x00000000       0x31 avr32/drivers/usart/usart.o
 .comment       0x00000000       0x31 avr32/utils/debug/print_funcs.o
 .comment       0x00000000       0x31 avr32/components/memory/sd_mmc/sd_mmc_spi/sd_mmc_spi.o
 .comment       0x00000000       0x31 avr32/drivers/usbb/usbb_host.o
 .comment       0x00000000       0x31 common/services/clock/uc3a0_a1/sysclk.o
 .comment       0x00000000       0x31 common/services/usb/uhc/uhc.o
 .comment       0x00000000       0x31 ../avr32/src/adc.o
 .comment       0x00000000       0x31 ../avr32/src/app_timers.o
 .comment       0x00000000       0x31 ../avr32/src/bfin.o
 .comment       0x00000000       0x31 ../avr32/src/events.o
 .comment       0x00000000       0x31 ../avr32/src/encoders.o
 .comment       0x00000000       0x31 ../avr32/src/files.o
 .comment       0x00000000       0x31 ../avr32/src/filesystem.o
 .comment       0x00000000       0x31 ../avr32/src/flash.o
 .comment       0x00000000       0x31 ../avr32/src/font.o
 .comment       0x00000000       0x31 ../avr32/src/init.o
 .comment       0x00000000       0x31 ../avr32/src/interrupts.o
 .comment       0x00000000       0x31 ../avr32/src/memory.o
 .comment       0x00000000       0x31 ../avr32/src/screen.o
 .comment       0x00000000       0x31 ../avr32/src/simple_string.o
 .comment       0x00000000       0x31 ../avr32/src/switches.o
 .comment       0x00000000       0x31 ../avr32/src/timers.o
 .comment       0x00000000       0x31 ../avr32/src/main.o
 .comment       0x00000000       0x31 ../avr32/src/usb.o
 .comment       0x00000000       0x31 ../avr32/src/usb/mouse/hid_mouse.o
 .comment       0x00000000       0x31 ../avr32/src/usb/mouse/uhi_hid_mouse.o
 .comment       0x00000000       0x31 ../avr32/src/usb/gamepad/uhi_hid_gamepad.o
 .comment       0x00000000       0x31 ../avr32/src/fat_io_lib/fat_access.o
 .comment       0x00000000       0x31 ../avr32/src/fat_io_lib/fat_cache.o
 .comment       0x00000000       0x31 ../avr32/src/fat_io_lib/fat_filelib.o
 .comment       0x00000000       0x31 ../avr32/src/fat_io_lib/fat_misc.o
 .comment       0x00000000       0x31 ../avr32/src/fat_io_lib/fat_string.o
 .comment       0x00000000       0x31 ../avr32/src/fat_io_lib/fat_table.o
 .comment       0x00000000       0x31 ../avr32/src/fat_io_lib/fat_write.o
 .comment       0x00000000       0x31 ../common/fix.o
 .comment       0x00000000       0x31 ../common/libfixmath/fix16.o
 .comment       0x00000000       0x31 ../avr32/apps/bees/src/app.o
 .comment       0x00000000       0x31 ../avr32/apps/bees/src/key_handler.o
 .comment       0x00000000       0x31 ../avr32/apps/bees/src/menu.o
 .comment       0x00000000       0x31 ../avr32/apps/bees/src/net.o
 .comment       0x00000000       0x31 ../avr32/apps/bees/src/op.o
 .comment       0x00000000       0x31 ../avr32/apps/bees/src/param.o
 .comment       0x00000000       0x31 ../avr32/apps/bees/src/play.o
 .comment       0x00000000       0x31 ../avr32/apps/bees/src/preset.o
 .comment       0x00000000       0x31 ../avr32/apps/bees/src/redraw.o
 .comment       0x00000000       0x31 ../avr32/apps/bees/src/scene.o
 .comment       0x00000000       0x31 ../avr32/apps/bees/src/ops/op_add.o
 .comment       0x00000000       0x31 ../avr32/apps/bees/src/ops/op_enc.o
 .comment       0x00000000       0x31 ../avr32/apps/bees/src/ops/op_gate.o
 .comment       0x00000000       0x31 ../avr32/apps/bees/src/ops/op_mul.o
 .comment       0x00000000       0x31 ../avr32/apps/bees/src/ops/op_sw.o
 .comment       0x00000000       0x31 /home/emb/avr32-gnu-toolchain/bin/../lib/gcc/avr32/4.4.3/ucr2/libgcc.a(_udivdi3.o)
 .comment       0x00000000       0x31 /home/emb/avr32-gnu-toolchain/bin/../lib/gcc/avr32/4.4.3/../../../../avr32/lib/ucr2/libc.a(lib_a-malloc.o)
 .comment       0x00000000       0x31 /home/emb/avr32-gnu-toolchain/bin/../lib/gcc/avr32/4.4.3/../../../../avr32/lib/ucr2/libc.a(lib_a-mallocr.o)
 .comment       0x00000000       0x31 /home/emb/avr32-gnu-toolchain/bin/../lib/gcc/avr32/4.4.3/../../../../avr32/lib/ucr2/libc.a(lib_a-memset.o)
 .comment       0x00000000       0x31 /home/emb/avr32-gnu-toolchain/bin/../lib/gcc/avr32/4.4.3/../../../../avr32/lib/ucr2/libc.a(lib_a-mlock.o)
 .comment       0x00000000       0x31 /home/emb/avr32-gnu-toolchain/bin/../lib/gcc/avr32/4.4.3/../../../../avr32/lib/ucr2/libc.a(lib_a-sbrkr.o)
 .comment       0x00000000       0x31 /home/emb/avr32-gnu-toolchain/bin/../lib/gcc/avr32/4.4.3/../../../../avr32/lib/ucr2/libc.a(lib_a-strcpy.o)
 .comment       0x00000000       0x31 /home/emb/avr32-gnu-toolchain/bin/../lib/gcc/avr32/4.4.3/../../../../avr32/lib/ucr2/libc.a(lib_a-strlen.o)
 .comment       0x00000000       0x31 /home/emb/avr32-gnu-toolchain/bin/../lib/gcc/avr32/4.4.3/../../../../avr32/lib/ucr2/libc.a(lib_a-strncat.o)
 .comment       0x00000000       0x31 /home/emb/avr32-gnu-toolchain/bin/../lib/gcc/avr32/4.4.3/../../../../avr32/lib/ucr2/libc.a(lib_a-strncmp.o)
 .comment       0x00000000       0x31 /home/emb/avr32-gnu-toolchain/bin/../lib/gcc/avr32/4.4.3/../../../../avr32/lib/ucr2/libc.a(lib_a-syscalls.o)
 .comment       0x00000000       0x31 /home/emb/avr32-gnu-toolchain/bin/../lib/gcc/avr32/4.4.3/../../../../avr32/lib/ucr2/libc.a(lib_a-errno.o)
 .comment       0x00000000       0x31 /home/emb/avr32-gnu-toolchain/bin/../lib/gcc/avr32/4.4.3/../../../../avr32/lib/ucr2/libc.a(lib_a-freer.o)
 .comment       0x00000000       0x31 /home/emb/avr32-gnu-toolchain/bin/../lib/gcc/avr32/4.4.3/../../../../avr32/lib/ucr2/libc.a(lib_a-impure.o)
 .comment       0x00000000       0x31 /home/emb/avr32-gnu-toolchain/bin/../lib/gcc/avr32/4.4.3/../../../../avr32/lib/ucr2/libc.a(lib_a-reent.o)
 .comment       0x00000000       0x31 /home/emb/avr32-gnu-toolchain/bin/../lib/gcc/avr32/4.4.3/../../../../avr32/lib/ucr2/libc.a(lib_a-findfp.o)

.debug
 *(.debug)

.line
 *(.line)

.debug_srcinfo
 *(.debug_srcinfo)

.debug_sfnames
 *(.debug_sfnames)

.debug_aranges  0x00000000     0x1860
 *(.debug_aranges)
 .debug_aranges
                0x00000000       0x28 avr32/drivers/ebi/smc/smc.o
 .debug_aranges
                0x00000028      0x218 avr32/drivers/flashc/flashc.o
 .debug_aranges
                0x00000240      0x100 avr32/drivers/gpio/gpio.o
 .debug_aranges
                0x00000340       0x38 avr32/drivers/intc/intc.o
 .debug_aranges
                0x00000378       0xa8 avr32/drivers/pdca/pdca.o
 .debug_aranges
                0x00000420       0xa8 avr32/drivers/spi/spi.o
 .debug_aranges
                0x000004c8       0xa8 avr32/drivers/tc/tc.o
 .debug_aranges
                0x00000570       0xd8 avr32/drivers/usart/usart.o
 .debug_aranges
                0x00000648       0x88 avr32/utils/debug/print_funcs.o
 .debug_aranges
                0x000006d0       0xf8 avr32/components/memory/sd_mmc/sd_mmc_spi/sd_mmc_spi.o
 .debug_aranges
                0x000007c8       0xc0 avr32/drivers/usbb/usbb_host.o
 .debug_aranges
                0x00000888       0x58 common/services/clock/uc3a0_a1/sysclk.o
 .debug_aranges
                0x000008e0      0x118 common/services/usb/uhc/uhc.o
 .debug_aranges
                0x000009f8       0x28 ../avr32/src/adc.o
 .debug_aranges
                0x00000a20       0x38 ../avr32/src/app_timers.o
 .debug_aranges
                0x00000a58       0x50 ../avr32/src/bfin.o
 .debug_aranges
                0x00000aa8       0x30 ../avr32/src/events.o
 .debug_aranges
                0x00000ad8       0x30 ../avr32/src/encoders.o
 .debug_aranges
                0x00000b08       0x98 ../avr32/src/files.o
 .debug_aranges
                0x00000ba0       0x30 ../avr32/src/filesystem.o
 .debug_aranges
                0x00000bd0       0x40 ../avr32/src/flash.o
 .debug_aranges
                0x00000c10       0x58 ../avr32/src/init.o
 .debug_aranges
                0x00000c68       0x50 ../avr32/src/interrupts.o
 .debug_aranges
                0x00000cb8       0x30 ../avr32/src/memory.o
 .debug_aranges
                0x00000ce8       0x98 ../avr32/src/screen.o
 .debug_aranges
                0x00000d80       0x20 ../avr32/src/simple_string.o
 .debug_aranges
                0x00000da0       0x20 ../avr32/src/switches.o
 .debug_aranges
                0x00000dc0       0x38 ../avr32/src/timers.o
 .debug_aranges
                0x00000df8       0x20 ../avr32/src/main.o
 .debug_aranges
                0x00000e18       0x50 ../avr32/src/usb.o
 .debug_aranges
                0x00000e68       0x38 ../avr32/src/usb/mouse/hid_mouse.o
 .debug_aranges
                0x00000ea0       0x38 ../avr32/src/usb/mouse/uhi_hid_mouse.o
 .debug_aranges
                0x00000ed8       0x38 ../avr32/src/usb/gamepad/uhi_hid_gamepad.o
 .debug_aranges
                0x00000f10       0x98 ../avr32/src/fat_io_lib/fat_access.o
 .debug_aranges
                0x00000fa8       0x30 ../avr32/src/fat_io_lib/fat_cache.o
 .debug_aranges
                0x00000fd8      0x118 ../avr32/src/fat_io_lib/fat_filelib.o
 .debug_aranges
                0x000010f0       0x88 ../avr32/src/fat_io_lib/fat_misc.o
 .debug_aranges
                0x00001178       0x58 ../avr32/src/fat_io_lib/fat_string.o
 .debug_aranges
                0x000011d0       0x68 ../avr32/src/fat_io_lib/fat_table.o
 .debug_aranges
                0x00001238       0x30 ../avr32/src/fat_io_lib/fat_write.o
 .debug_aranges
                0x00001268       0x38 ../common/fix.o
 .debug_aranges
                0x000012a0       0x70 ../common/libfixmath/fix16.o
 .debug_aranges
                0x00001310       0x30 ../avr32/apps/bees/src/app.o
 .debug_aranges
                0x00001340       0x60 ../avr32/apps/bees/src/key_handler.o
 .debug_aranges
                0x000013a0       0x60 ../avr32/apps/bees/src/menu.o
 .debug_aranges
                0x00001400      0x148 ../avr32/apps/bees/src/net.o
 .debug_aranges
                0x00001548       0x40 ../avr32/apps/bees/src/op.o
 .debug_aranges
                0x00001588       0x38 ../avr32/apps/bees/src/param.o
 .debug_aranges
                0x000015c0       0x38 ../avr32/apps/bees/src/play.o
 .debug_aranges
                0x000015f8       0x50 ../avr32/apps/bees/src/preset.o
 .debug_aranges
                0x00001648       0x78 ../avr32/apps/bees/src/redraw.o
 .debug_aranges
                0x000016c0       0x48 ../avr32/apps/bees/src/scene.o
 .debug_aranges
                0x00001708       0x40 ../avr32/apps/bees/src/ops/op_add.o
 .debug_aranges
                0x00001748       0x58 ../avr32/apps/bees/src/ops/op_enc.o
 .debug_aranges
                0x000017a0       0x40 ../avr32/apps/bees/src/ops/op_gate.o
 .debug_aranges
                0x000017e0       0x40 ../avr32/apps/bees/src/ops/op_mul.o
 .debug_aranges
                0x00001820       0x40 ../avr32/apps/bees/src/ops/op_sw.o

.debug_pubnames
                0x00000000     0x355c
 *(.debug_pubnames)
 .debug_pubnames
                0x00000000       0x33 avr32/drivers/ebi/smc/smc.o
 .debug_pubnames
                0x00000033      0x771 avr32/drivers/flashc/flashc.o
 .debug_pubnames
                0x000007a4      0x330 avr32/drivers/gpio/gpio.o
 .debug_pubnames
                0x00000ad4       0x62 avr32/drivers/intc/intc.o
 .debug_pubnames
                0x00000b36      0x238 avr32/drivers/pdca/pdca.o
 .debug_pubnames
                0x00000d6e      0x178 avr32/drivers/spi/spi.o
 .debug_pubnames
                0x00000ee6      0x164 avr32/drivers/tc/tc.o
 .debug_pubnames
                0x0000104a      0x227 avr32/drivers/usart/usart.o
 .debug_pubnames
                0x00001271      0x10f avr32/utils/debug/print_funcs.o
 .debug_pubnames
                0x00001380      0x3b1 avr32/components/memory/sd_mmc/sd_mmc_spi/sd_mmc_spi.o
 .debug_pubnames
                0x00001731      0x1d4 avr32/drivers/usbb/usbb_host.o
 .debug_pubnames
                0x00001905       0xc7 common/services/clock/uc3a0_a1/sysclk.o
 .debug_pubnames
                0x000019cc      0x196 common/services/usb/uhc/uhc.o
 .debug_pubnames
                0x00001b62       0x2c ../avr32/src/adc.o
 .debug_pubnames
                0x00001b8e       0x26 ../avr32/src/app_timers.o
 .debug_pubnames
                0x00001bb4       0xb3 ../avr32/src/bfin.o
 .debug_pubnames
                0x00001c67       0x44 ../avr32/src/events.o
 .debug_pubnames
                0x00001cab       0x4f ../avr32/src/encoders.o
 .debug_pubnames
                0x00001cfa      0x15a ../avr32/src/files.o
 .debug_pubnames
                0x00001e54       0x8a ../avr32/src/filesystem.o
 .debug_pubnames
                0x00001ede       0xaf ../avr32/src/flash.o
 .debug_pubnames
                0x00001f8d       0x31 ../avr32/src/font.o
 .debug_pubnames
                0x00001fbe       0x99 ../avr32/src/init.o
 .debug_pubnames
                0x00002057       0x51 ../avr32/src/interrupts.o
 .debug_pubnames
                0x000020a8       0x3b ../avr32/src/memory.o
 .debug_pubnames
                0x000020e3      0x13d ../avr32/src/screen.o
 .debug_pubnames
                0x00002220       0x1f ../avr32/src/simple_string.o
 .debug_pubnames
                0x0000223f       0x21 ../avr32/src/switches.o
 .debug_pubnames
                0x00002260       0x52 ../avr32/src/timers.o
 .debug_pubnames
                0x000022b2       0x1b ../avr32/src/main.o
 .debug_pubnames
                0x000022cd       0x88 ../avr32/src/usb.o
 .debug_pubnames
                0x00002355       0x6d ../avr32/src/usb/mouse/hid_mouse.o
 .debug_pubnames
                0x000023c2       0x61 ../avr32/src/usb/mouse/uhi_hid_mouse.o
 .debug_pubnames
                0x00002423       0x67 ../avr32/src/usb/gamepad/uhi_hid_gamepad.o
 .debug_pubnames
                0x0000248a      0x182 ../avr32/src/fat_io_lib/fat_access.o
 .debug_pubnames
                0x0000260c       0x69 ../avr32/src/fat_io_lib/fat_cache.o
 .debug_pubnames
                0x00002675      0x179 ../avr32/src/fat_io_lib/fat_filelib.o
 .debug_pubnames
                0x000027ee      0x17e ../avr32/src/fat_io_lib/fat_misc.o
 .debug_pubnames
                0x0000296c       0xe8 ../avr32/src/fat_io_lib/fat_string.o
 .debug_pubnames
                0x00002a54      0x112 ../avr32/src/fat_io_lib/fat_table.o
 .debug_pubnames
                0x00002b66       0x62 ../avr32/src/fat_io_lib/fat_write.o
 .debug_pubnames
                0x00002bc8       0x52 ../common/fix.o
 .debug_pubnames
                0x00002c1a       0xb8 ../common/libfixmath/fix16.o
 .debug_pubnames
                0x00002cd2       0x43 ../avr32/apps/bees/src/app.o
 .debug_pubnames
                0x00002d15       0xc0 ../avr32/apps/bees/src/key_handler.o
 .debug_pubnames
                0x00002dd5      0x10e ../avr32/apps/bees/src/menu.o
 .debug_pubnames
                0x00002ee3      0x2e1 ../avr32/apps/bees/src/net.o
 .debug_pubnames
                0x000031c4       0x71 ../avr32/apps/bees/src/op.o
 .debug_pubnames
                0x00003235       0x62 ../avr32/apps/bees/src/param.o
 .debug_pubnames
                0x00003297       0x51 ../avr32/apps/bees/src/play.o
 .debug_pubnames
                0x000032e8       0x9c ../avr32/apps/bees/src/preset.o
 .debug_pubnames
                0x00003384       0x98 ../avr32/apps/bees/src/redraw.o
 .debug_pubnames
                0x0000341c       0x96 ../avr32/apps/bees/src/scene.o
 .debug_pubnames
                0x000034b2       0x22 ../avr32/apps/bees/src/ops/op_add.o
 .debug_pubnames
                0x000034d4       0x22 ../avr32/apps/bees/src/ops/op_enc.o
 .debug_pubnames
                0x000034f6       0x23 ../avr32/apps/bees/src/ops/op_gate.o
 .debug_pubnames
                0x00003519       0x22 ../avr32/apps/bees/src/ops/op_mul.o
 .debug_pubnames
                0x0000353b       0x21 ../avr32/apps/bees/src/ops/op_sw.o

.debug_info     0x00000000    0x37589
 *(.debug_info .gnu.linkonce.wi.*)
 .debug_info    0x00000000      0xb89 avr32/drivers/ebi/smc/smc.o
 .debug_info    0x00000b89     0x36ee avr32/drivers/flashc/flashc.o
 .debug_info    0x00004277      0xb8f avr32/drivers/gpio/gpio.o
 .debug_info    0x00004e06      0x5b1 avr32/drivers/intc/intc.o
 .debug_info    0x000053b7      0xf67 avr32/drivers/pdca/pdca.o
 .debug_info    0x0000631e     0x1080 avr32/drivers/spi/spi.o
 .debug_info    0x0000739e     0x117e avr32/drivers/tc/tc.o
 .debug_info    0x0000851c     0x2412 avr32/drivers/usart/usart.o
 .debug_info    0x0000a92e     0x1992 avr32/utils/debug/print_funcs.o
 .debug_info    0x0000c2c0     0x18b7 avr32/components/memory/sd_mmc/sd_mmc_spi/sd_mmc_spi.o
 .debug_info    0x0000db77     0xd94e avr32/drivers/usbb/usbb_host.o
 .debug_info    0x0001b4c5     0x1cd7 common/services/clock/uc3a0_a1/sysclk.o
 .debug_info    0x0001d19c     0x1027 common/services/usb/uhc/uhc.o
 .debug_info    0x0001e1c3      0xea7 ../avr32/src/adc.o
 .debug_info    0x0001f06a      0x414 ../avr32/src/app_timers.o
 .debug_info    0x0001f47e     0x1163 ../avr32/src/bfin.o
 .debug_info    0x000205e1      0x1da ../avr32/src/events.o
 .debug_info    0x000207bb      0x2de ../avr32/src/encoders.o
 .debug_info    0x00020a99      0x7e8 ../avr32/src/files.o
 .debug_info    0x00021281     0x1087 ../avr32/src/filesystem.o
 .debug_info    0x00022308      0x9fb ../avr32/src/flash.o
 .debug_info    0x00022d03      0x14a ../avr32/src/font.o
 .debug_info    0x00022e4d     0x2b42 ../avr32/src/init.o
 .debug_info    0x0002598f      0xbd8 ../avr32/src/interrupts.o
 .debug_info    0x00026567      0x276 ../avr32/src/memory.o
 .debug_info    0x000267dd     0x196f ../avr32/src/screen.o
 .debug_info    0x0002814c      0x118 ../avr32/src/simple_string.o
 .debug_info    0x00028264      0x243 ../avr32/src/switches.o
 .debug_info    0x000284a7      0x2d5 ../avr32/src/timers.o
 .debug_info    0x0002877c      0xce4 ../avr32/src/main.o
 .debug_info    0x00029460      0x3cf ../avr32/src/usb.o
 .debug_info    0x0002982f      0x158 ../avr32/src/usb/mouse/hid_mouse.o
 .debug_info    0x00029987      0x67f ../avr32/src/usb/mouse/uhi_hid_mouse.o
 .debug_info    0x0002a006      0x678 ../avr32/src/usb/gamepad/uhi_hid_gamepad.o
 .debug_info    0x0002a67e      0xcd9 ../avr32/src/fat_io_lib/fat_access.o
 .debug_info    0x0002b357      0x51c ../avr32/src/fat_io_lib/fat_cache.o
 .debug_info    0x0002b873     0x2431 ../avr32/src/fat_io_lib/fat_filelib.o
 .debug_info    0x0002dca4      0x6c9 ../avr32/src/fat_io_lib/fat_misc.o
 .debug_info    0x0002e36d      0x6a3 ../avr32/src/fat_io_lib/fat_string.o
 .debug_info    0x0002ea10      0xa78 ../avr32/src/fat_io_lib/fat_table.o
 .debug_info    0x0002f488      0x760 ../avr32/src/fat_io_lib/fat_write.o
 .debug_info    0x0002fbe8      0x49f ../common/fix.o
 .debug_info    0x00030087      0x785 ../common/libfixmath/fix16.o
 .debug_info    0x0003080c      0x37d ../avr32/apps/bees/src/app.o
 .debug_info    0x00030b89      0x6f4 ../avr32/apps/bees/src/key_handler.o
 .debug_info    0x0003127d      0x6f5 ../avr32/apps/bees/src/menu.o
 .debug_info    0x00031972      0xff5 ../avr32/apps/bees/src/net.o
 .debug_info    0x00032967      0x540 ../avr32/apps/bees/src/op.o
 .debug_info    0x00032ea7      0x748 ../avr32/apps/bees/src/param.o
 .debug_info    0x000335ef      0x2d9 ../avr32/apps/bees/src/play.o
 .debug_info    0x000338c8      0x494 ../avr32/apps/bees/src/preset.o
 .debug_info    0x00033d5c     0x10b0 ../avr32/apps/bees/src/redraw.o
 .debug_info    0x00034e0c      0x9a5 ../avr32/apps/bees/src/scene.o
 .debug_info    0x000357b1      0x5c1 ../avr32/apps/bees/src/ops/op_add.o
 .debug_info    0x00035d72      0x6ed ../avr32/apps/bees/src/ops/op_enc.o
 .debug_info    0x0003645f      0x5b7 ../avr32/apps/bees/src/ops/op_gate.o
 .debug_info    0x00036a16      0x5c1 ../avr32/apps/bees/src/ops/op_mul.o
 .debug_info    0x00036fd7      0x5b2 ../avr32/apps/bees/src/ops/op_sw.o

.debug_abbrev   0x00000000     0x7d18
 *(.debug_abbrev)
 .debug_abbrev  0x00000000      0x1dd avr32/drivers/ebi/smc/smc.o
 .debug_abbrev  0x000001dd      0x45b avr32/drivers/flashc/flashc.o
 .debug_abbrev  0x00000638      0x2f0 avr32/drivers/gpio/gpio.o
 .debug_abbrev  0x00000928      0x1f2 avr32/drivers/intc/intc.o
 .debug_abbrev  0x00000b1a      0x3a7 avr32/drivers/pdca/pdca.o
 .debug_abbrev  0x00000ec1      0x27d avr32/drivers/spi/spi.o
 .debug_abbrev  0x0000113e      0x25c avr32/drivers/tc/tc.o
 .debug_abbrev  0x0000139a      0x2f4 avr32/drivers/usart/usart.o
 .debug_abbrev  0x0000168e      0x22c avr32/utils/debug/print_funcs.o
 .debug_abbrev  0x000018ba      0x388 avr32/components/memory/sd_mmc/sd_mmc_spi/sd_mmc_spi.o
 .debug_abbrev  0x00001c42      0x44b avr32/drivers/usbb/usbb_host.o
 .debug_abbrev  0x0000208d      0x30c common/services/clock/uc3a0_a1/sysclk.o
 .debug_abbrev  0x00002399      0x335 common/services/usb/uhc/uhc.o
 .debug_abbrev  0x000026ce      0x296 ../avr32/src/adc.o
 .debug_abbrev  0x00002964      0x14c ../avr32/src/app_timers.o
 .debug_abbrev  0x00002ab0      0x33f ../avr32/src/bfin.o
 .debug_abbrev  0x00002def      0x10b ../avr32/src/events.o
 .debug_abbrev  0x00002efa      0x135 ../avr32/src/encoders.o
 .debug_abbrev  0x0000302f      0x365 ../avr32/src/files.o
 .debug_abbrev  0x00003394      0x1d4 ../avr32/src/filesystem.o
 .debug_abbrev  0x00003568      0x1d2 ../avr32/src/flash.o
 .debug_abbrev  0x0000373a       0x97 ../avr32/src/font.o
 .debug_abbrev  0x000037d1      0x20e ../avr32/src/init.o
 .debug_abbrev  0x000039df      0x198 ../avr32/src/interrupts.o
 .debug_abbrev  0x00003b77      0x125 ../avr32/src/memory.o
 .debug_abbrev  0x00003c9c      0x3c4 ../avr32/src/screen.o
 .debug_abbrev  0x00004060       0xa3 ../avr32/src/simple_string.o
 .debug_abbrev  0x00004103       0xe0 ../avr32/src/switches.o
 .debug_abbrev  0x000041e3      0x1dd ../avr32/src/timers.o
 .debug_abbrev  0x000043c0      0x233 ../avr32/src/main.o
 .debug_abbrev  0x000045f3      0x107 ../avr32/src/usb.o
 .debug_abbrev  0x000046fa       0x8e ../avr32/src/usb/mouse/hid_mouse.o
 .debug_abbrev  0x00004788      0x197 ../avr32/src/usb/mouse/uhi_hid_mouse.o
 .debug_abbrev  0x0000491f      0x1a6 ../avr32/src/usb/gamepad/uhi_hid_gamepad.o
 .debug_abbrev  0x00004ac5      0x2b3 ../avr32/src/fat_io_lib/fat_access.o
 .debug_abbrev  0x00004d78      0x123 ../avr32/src/fat_io_lib/fat_cache.o
 .debug_abbrev  0x00004e9b      0x3d9 ../avr32/src/fat_io_lib/fat_filelib.o
 .debug_abbrev  0x00005274      0x270 ../avr32/src/fat_io_lib/fat_misc.o
 .debug_abbrev  0x000054e4      0x1fa ../avr32/src/fat_io_lib/fat_string.o
 .debug_abbrev  0x000056de      0x2ce ../avr32/src/fat_io_lib/fat_table.o
 .debug_abbrev  0x000059ac      0x273 ../avr32/src/fat_io_lib/fat_write.o
 .debug_abbrev  0x00005c1f      0x19a ../common/fix.o
 .debug_abbrev  0x00005db9      0x22d ../common/libfixmath/fix16.o
 .debug_abbrev  0x00005fe6      0x128 ../avr32/apps/bees/src/app.o
 .debug_abbrev  0x0000610e      0x1c6 ../avr32/apps/bees/src/key_handler.o
 .debug_abbrev  0x000062d4      0x1fc ../avr32/apps/bees/src/menu.o
 .debug_abbrev  0x000064d0      0x3b9 ../avr32/apps/bees/src/net.o
 .debug_abbrev  0x00006889      0x1bb ../avr32/apps/bees/src/op.o
 .debug_abbrev  0x00006a44      0x183 ../avr32/apps/bees/src/param.o
 .debug_abbrev  0x00006bc7      0x173 ../avr32/apps/bees/src/play.o
 .debug_abbrev  0x00006d3a      0x173 ../avr32/apps/bees/src/preset.o
 .debug_abbrev  0x00006ead      0x2ce ../avr32/apps/bees/src/redraw.o
 .debug_abbrev  0x0000717b      0x1ff ../avr32/apps/bees/src/scene.o
 .debug_abbrev  0x0000737a      0x1d7 ../avr32/apps/bees/src/ops/op_add.o
 .debug_abbrev  0x00007551      0x204 ../avr32/apps/bees/src/ops/op_enc.o
 .debug_abbrev  0x00007755      0x204 ../avr32/apps/bees/src/ops/op_gate.o
 .debug_abbrev  0x00007959      0x1d7 ../avr32/apps/bees/src/ops/op_mul.o
 .debug_abbrev  0x00007b30      0x1e8 ../avr32/apps/bees/src/ops/op_sw.o

.debug_line     0x00000000    0x2e0e6
 *(.debug_line)
 .debug_line    0x00000000      0x6e8 avr32/drivers/ebi/smc/smc.o
 .debug_line    0x000006e8     0x4448 avr32/drivers/flashc/flashc.o
 .debug_line    0x00004b30      0xc99 avr32/drivers/gpio/gpio.o
 .debug_line    0x000057c9      0x668 avr32/drivers/intc/intc.o
 .debug_line    0x00005e31      0xbb1 avr32/drivers/pdca/pdca.o
 .debug_line    0x000069e2      0x9c3 avr32/drivers/spi/spi.o
 .debug_line    0x000073a5      0x8f8 avr32/drivers/tc/tc.o
 .debug_line    0x00007c9d     0x137a avr32/drivers/usart/usart.o
 .debug_line    0x00009017      0x920 avr32/utils/debug/print_funcs.o
 .debug_line    0x00009937     0x266f avr32/components/memory/sd_mmc/sd_mmc_spi/sd_mmc_spi.o
 .debug_line    0x0000bfa6     0x1ca4 avr32/drivers/usbb/usbb_host.o
 .debug_line    0x0000dc4a      0xcee common/services/clock/uc3a0_a1/sysclk.o
 .debug_line    0x0000e938     0x12f8 common/services/usb/uhc/uhc.o
 .debug_line    0x0000fc30      0x9d6 ../avr32/src/adc.o
 .debug_line    0x00010606      0x810 ../avr32/src/app_timers.o
 .debug_line    0x00010e16     0x120a ../avr32/src/bfin.o
 .debug_line    0x00012020      0x76a ../avr32/src/events.o
 .debug_line    0x0001278a      0x7c0 ../avr32/src/encoders.o
 .debug_line    0x00012f4a      0xcc3 ../avr32/src/files.o
 .debug_line    0x00013c0d      0x965 ../avr32/src/filesystem.o
 .debug_line    0x00014572      0x8f7 ../avr32/src/flash.o
 .debug_line    0x00014e69      0x5da ../avr32/src/font.o
 .debug_line    0x00015443      0xdbd ../avr32/src/init.o
 .debug_line    0x00016200      0xbb0 ../avr32/src/interrupts.o
 .debug_line    0x00016db0      0x817 ../avr32/src/memory.o
 .debug_line    0x000175c7     0x16b9 ../avr32/src/screen.o
 .debug_line    0x00018c80      0x636 ../avr32/src/simple_string.o
 .debug_line    0x000192b6      0x715 ../avr32/src/switches.o
 .debug_line    0x000199cb      0x946 ../avr32/src/timers.o
 .debug_line    0x0001a311      0xe07 ../avr32/src/main.o
 .debug_line    0x0001b118      0x874 ../avr32/src/usb.o
 .debug_line    0x0001b98c      0x868 ../avr32/src/usb/mouse/hid_mouse.o
 .debug_line    0x0001c1f4      0x926 ../avr32/src/usb/mouse/uhi_hid_mouse.o
 .debug_line    0x0001cb1a      0x98a ../avr32/src/usb/gamepad/uhi_hid_gamepad.o
 .debug_line    0x0001d4a4     0x13dc ../avr32/src/fat_io_lib/fat_access.o
 .debug_line    0x0001e880      0x323 ../avr32/src/fat_io_lib/fat_cache.o
 .debug_line    0x0001eba3     0x2239 ../avr32/src/fat_io_lib/fat_filelib.o
 .debug_line    0x00020ddc      0xa01 ../avr32/src/fat_io_lib/fat_misc.o
 .debug_line    0x000217dd      0x747 ../avr32/src/fat_io_lib/fat_string.o
 .debug_line    0x00021f24      0xc72 ../avr32/src/fat_io_lib/fat_table.o
 .debug_line    0x00022b96      0x952 ../avr32/src/fat_io_lib/fat_write.o
 .debug_line    0x000234e8      0xaba ../common/fix.o
 .debug_line    0x00023fa2      0x43a ../common/libfixmath/fix16.o
 .debug_line    0x000243dc      0x97e ../avr32/apps/bees/src/app.o
 .debug_line    0x00024d5a      0xe32 ../avr32/apps/bees/src/key_handler.o
 .debug_line    0x00025b8c      0xa1f ../avr32/apps/bees/src/menu.o
 .debug_line    0x000265ab     0x1251 ../avr32/apps/bees/src/net.o
 .debug_line    0x000277fc      0x94e ../avr32/apps/bees/src/op.o
 .debug_line    0x0002814a      0x757 ../avr32/apps/bees/src/param.o
 .debug_line    0x000288a1      0x8a1 ../avr32/apps/bees/src/play.o
 .debug_line    0x00029142      0x96c ../avr32/apps/bees/src/preset.o
 .debug_line    0x00029aae     0x131b ../avr32/apps/bees/src/redraw.o
 .debug_line    0x0002adc9      0x8e2 ../avr32/apps/bees/src/scene.o
 .debug_line    0x0002b6ab      0x845 ../avr32/apps/bees/src/ops/op_add.o
 .debug_line    0x0002bef0      0x954 ../avr32/apps/bees/src/ops/op_enc.o
 .debug_line    0x0002c844      0x7ff ../avr32/apps/bees/src/ops/op_gate.o
 .debug_line    0x0002d043      0x840 ../avr32/apps/bees/src/ops/op_mul.o
 .debug_line    0x0002d883      0x863 ../avr32/apps/bees/src/ops/op_sw.o

.debug_frame    0x00000000     0x43e4
 *(.debug_frame)
 .debug_frame   0x00000000       0x3c avr32/drivers/ebi/smc/smc.o
 .debug_frame   0x0000003c      0x78c avr32/drivers/flashc/flashc.o
 .debug_frame   0x000007c8      0x1f4 avr32/drivers/gpio/gpio.o
 .debug_frame   0x000009bc       0x60 avr32/drivers/intc/intc.o
 .debug_frame   0x00000a1c      0x13c avr32/drivers/pdca/pdca.o
 .debug_frame   0x00000b58      0x164 avr32/drivers/spi/spi.o
 .debug_frame   0x00000cbc      0x144 avr32/drivers/tc/tc.o
 .debug_frame   0x00000e00      0x228 avr32/drivers/usart/usart.o
 .debug_frame   0x00001028      0x194 avr32/utils/debug/print_funcs.o
 .debug_frame   0x000011bc      0x3c0 avr32/components/memory/sd_mmc/sd_mmc_spi/sd_mmc_spi.o
 .debug_frame   0x0000157c      0x278 avr32/drivers/usbb/usbb_host.o
 .debug_frame   0x000017f4       0xbc common/services/clock/uc3a0_a1/sysclk.o
 .debug_frame   0x000018b0      0x3cc common/services/usb/uhc/uhc.o
 .debug_frame   0x00001c7c       0x4c ../avr32/src/adc.o
 .debug_frame   0x00001cc8       0x84 ../avr32/src/app_timers.o
 .debug_frame   0x00001d4c       0xf8 ../avr32/src/bfin.o
 .debug_frame   0x00001e44       0x48 ../avr32/src/events.o
 .debug_frame   0x00001e8c       0x68 ../avr32/src/encoders.o
 .debug_frame   0x00001ef4      0x19c ../avr32/src/files.o
 .debug_frame   0x00002090       0x84 ../avr32/src/filesystem.o
 .debug_frame   0x00002114       0x90 ../avr32/src/flash.o
 .debug_frame   0x000021a4       0xfc ../avr32/src/init.o
 .debug_frame   0x000022a0       0xbc ../avr32/src/interrupts.o
 .debug_frame   0x0000235c       0x54 ../avr32/src/memory.o
 .debug_frame   0x000023b0      0x248 ../avr32/src/screen.o
 .debug_frame   0x000025f8       0x20 ../avr32/src/simple_string.o
 .debug_frame   0x00002618       0x2c ../avr32/src/switches.o
 .debug_frame   0x00002644       0x68 ../avr32/src/timers.o
 .debug_frame   0x000026ac       0x34 ../avr32/src/main.o
 .debug_frame   0x000026e0       0x80 ../avr32/src/usb.o
 .debug_frame   0x00002760       0x84 ../avr32/src/usb/mouse/hid_mouse.o
 .debug_frame   0x000027e4       0xa4 ../avr32/src/usb/mouse/uhi_hid_mouse.o
 .debug_frame   0x00002888       0x9c ../avr32/src/usb/gamepad/uhi_hid_gamepad.o
 .debug_frame   0x00002924      0x238 ../avr32/src/fat_io_lib/fat_access.o
 .debug_frame   0x00002b5c       0x40 ../avr32/src/fat_io_lib/fat_cache.o
 .debug_frame   0x00002b9c      0x4a0 ../avr32/src/fat_io_lib/fat_filelib.o
 .debug_frame   0x0000303c      0x168 ../avr32/src/fat_io_lib/fat_misc.o
 .debug_frame   0x000031a4      0x11c ../avr32/src/fat_io_lib/fat_string.o
 .debug_frame   0x000032c0      0x194 ../avr32/src/fat_io_lib/fat_table.o
 .debug_frame   0x00003454       0x98 ../avr32/src/fat_io_lib/fat_write.o
 .debug_frame   0x000034ec       0xb0 ../common/fix.o
 .debug_frame   0x0000359c      0x12c ../common/libfixmath/fix16.o
 .debug_frame   0x000036c8       0x5c ../avr32/apps/bees/src/app.o
 .debug_frame   0x00003724      0x108 ../avr32/apps/bees/src/key_handler.o
 .debug_frame   0x0000382c       0xf0 ../avr32/apps/bees/src/menu.o
 .debug_frame   0x0000391c      0x360 ../avr32/apps/bees/src/net.o
 .debug_frame   0x00003c7c       0x74 ../avr32/apps/bees/src/op.o
 .debug_frame   0x00003cf0       0x5c ../avr32/apps/bees/src/param.o
 .debug_frame   0x00003d4c       0x6c ../avr32/apps/bees/src/play.o
 .debug_frame   0x00003db8       0xec ../avr32/apps/bees/src/preset.o
 .debug_frame   0x00003ea4      0x1c0 ../avr32/apps/bees/src/redraw.o
 .debug_frame   0x00004064       0xb0 ../avr32/apps/bees/src/scene.o
 .debug_frame   0x00004114       0x84 ../avr32/apps/bees/src/ops/op_add.o
 .debug_frame   0x00004198       0xd0 ../avr32/apps/bees/src/ops/op_enc.o
 .debug_frame   0x00004268       0x7c ../avr32/apps/bees/src/ops/op_gate.o
 .debug_frame   0x000042e4       0x84 ../avr32/apps/bees/src/ops/op_mul.o
 .debug_frame   0x00004368       0x7c ../avr32/apps/bees/src/ops/op_sw.o

.debug_str      0x00000000     0xaaa0
 *(.debug_str)
 .debug_str     0x00000000      0x420 avr32/drivers/ebi/smc/smc.o
                                0x48a (size before relaxing)
 .debug_str     0x00000420      0xa8e avr32/drivers/flashc/flashc.o
                                0xc28 (size before relaxing)
 .debug_str     0x00000eae      0x410 avr32/drivers/gpio/gpio.o
                                0x516 (size before relaxing)
 .debug_str     0x000012be      0x385 avr32/drivers/intc/intc.o
                                0x46a (size before relaxing)
 .debug_str     0x00001643      0x369 avr32/drivers/pdca/pdca.o
                                0x479 (size before relaxing)
 .debug_str     0x000019ac      0x3e2 avr32/drivers/spi/spi.o
                                0x54f (size before relaxing)
 .debug_str     0x00001d8e      0x36c avr32/drivers/tc/tc.o
                                0x4b7 (size before relaxing)
 .debug_str     0x000020fa      0x758 avr32/drivers/usart/usart.o
                                0x8e9 (size before relaxing)
 .debug_str     0x00002852      0x128 avr32/utils/debug/print_funcs.o
                                0x628 (size before relaxing)
 .debug_str     0x0000297a      0x41d avr32/components/memory/sd_mmc/sd_mmc_spi/sd_mmc_spi.o
                                0x7c5 (size before relaxing)
 .debug_str     0x00002d97     0x39b7 avr32/drivers/usbb/usbb_host.o
                               0x3e5f (size before relaxing)
 .debug_str     0x0000674e      0x361 common/services/clock/uc3a0_a1/sysclk.o
                                0x7fd (size before relaxing)
 .debug_str     0x00006aaf      0x927 common/services/usb/uhc/uhc.o
                                0xbd4 (size before relaxing)
 .debug_str     0x000073d6      0x2a8 ../avr32/src/adc.o
                                0x5d7 (size before relaxing)
 .debug_str     0x0000767e      0x125 ../avr32/src/app_timers.o
                                0x3f7 (size before relaxing)
 .debug_str     0x000077a3      0x23f ../avr32/src/bfin.o
                                0x61e (size before relaxing)
 .debug_str     0x000079e2       0x71 ../avr32/src/events.o
                                0x16d (size before relaxing)
 .debug_str     0x00007a53       0x5c ../avr32/src/encoders.o
                                0x2ef (size before relaxing)
 .debug_str     0x00007aaf      0x1fc ../avr32/src/files.o
                                0x3cb (size before relaxing)
 .debug_str     0x00007cab       0x89 ../avr32/src/filesystem.o
                                0x433 (size before relaxing)
 .debug_str     0x00007d34      0x279 ../avr32/src/flash.o
                                0x54b (size before relaxing)
 .debug_str     0x00007fad       0x4d ../avr32/src/font.o
                                0x136 (size before relaxing)
 .debug_str     0x00007ffa      0x128 ../avr32/src/init.o
                                0xa79 (size before relaxing)
 .debug_str     0x00008122       0xb3 ../avr32/src/interrupts.o
                                0x459 (size before relaxing)
 .debug_str     0x000081d5       0x83 ../avr32/src/memory.o
                                0x201 (size before relaxing)
 .debug_str     0x00008258      0x14a ../avr32/src/screen.o
                                0x4e2 (size before relaxing)
 .debug_str     0x000083a2       0x39 ../avr32/src/simple_string.o
                                0x110 (size before relaxing)
 .debug_str     0x000083db       0x56 ../avr32/src/switches.o
                                0x2ef (size before relaxing)
 .debug_str     0x00008431       0x87 ../avr32/src/timers.o
                                0x1a0 (size before relaxing)
 .debug_str     0x000084b8       0x62 ../avr32/src/main.o
                                0x5db (size before relaxing)
 .debug_str     0x0000851a       0xa5 ../avr32/src/usb.o
                                0x3cd (size before relaxing)
 .debug_str     0x000085bf       0x90 ../avr32/src/usb/mouse/hid_mouse.o
                                0x15f (size before relaxing)
 .debug_str     0x0000864f      0x1d5 ../avr32/src/usb/mouse/uhi_hid_mouse.o
                                0x6e1 (size before relaxing)
 .debug_str     0x00008824       0xf5 ../avr32/src/usb/gamepad/uhi_hid_gamepad.o
                                0x6e3 (size before relaxing)
 .debug_str     0x00008919      0x4a4 ../avr32/src/fat_io_lib/fat_access.o
                                0x61c (size before relaxing)
 .debug_str     0x00008dbd      0x186 ../avr32/src/fat_io_lib/fat_cache.o
                                0x424 (size before relaxing)
 .debug_str     0x00008f43      0x358 ../avr32/src/fat_io_lib/fat_filelib.o
                                0x826 (size before relaxing)
 .debug_str     0x0000929b      0x202 ../avr32/src/fat_io_lib/fat_misc.o
                                0x3a0 (size before relaxing)
 .debug_str     0x0000949d      0x1ed ../avr32/src/fat_io_lib/fat_string.o
                                0x2d1 (size before relaxing)
 .debug_str     0x0000968a      0x194 ../avr32/src/fat_io_lib/fat_table.o
                                0x464 (size before relaxing)
 .debug_str     0x0000981e      0x143 ../avr32/src/fat_io_lib/fat_write.o
                                0x4a0 (size before relaxing)
 .debug_str     0x00009961       0x6b ../common/fix.o
                                0x1cb (size before relaxing)
 .debug_str     0x000099cc      0x126 ../common/libfixmath/fix16.o
                                0x2b9 (size before relaxing)
 .debug_str     0x00009af2      0x128 ../avr32/apps/bees/src/app.o
                                0x488 (size before relaxing)
 .debug_str     0x00009c1a      0x25a ../avr32/apps/bees/src/key_handler.o
                                0x52a (size before relaxing)
 .debug_str     0x00009e74       0xce ../avr32/apps/bees/src/menu.o
                                0x49b (size before relaxing)
 .debug_str     0x00009f42      0x2e7 ../avr32/apps/bees/src/net.o
                                0x6ca (size before relaxing)
 .debug_str     0x0000a229       0x87 ../avr32/apps/bees/src/op.o
                                0x32f (size before relaxing)
 .debug_str     0x0000a2b0       0x72 ../avr32/apps/bees/src/param.o
                                0x3fd (size before relaxing)
 .debug_str     0x0000a322       0x8d ../avr32/apps/bees/src/play.o
                                0x242 (size before relaxing)
 .debug_str     0x0000a3af       0x9c ../avr32/apps/bees/src/preset.o
                                0x2e5 (size before relaxing)
 .debug_str     0x0000a44b      0x15e ../avr32/apps/bees/src/redraw.o
                                0x527 (size before relaxing)
 .debug_str     0x0000a5a9       0x98 ../avr32/apps/bees/src/scene.o
                                0x51f (size before relaxing)
 .debug_str     0x0000a641       0xd9 ../avr32/apps/bees/src/ops/op_add.o
                                0x348 (size before relaxing)
 .debug_str     0x0000a71a      0x103 ../avr32/apps/bees/src/ops/op_enc.o
                                0x381 (size before relaxing)
 .debug_str     0x0000a81d       0xe6 ../avr32/apps/bees/src/ops/op_gate.o
                                0x360 (size before relaxing)
 .debug_str     0x0000a903       0xd3 ../avr32/apps/bees/src/ops/op_mul.o
                                0x348 (size before relaxing)
 .debug_str     0x0000a9d6       0xca ../avr32/apps/bees/src/ops/op_sw.o
                                0x33f (size before relaxing)

.debug_loc      0x00000000     0xf540
 *(.debug_loc)
 .debug_loc     0x00000000       0x7e avr32/drivers/ebi/smc/smc.o
 .debug_loc     0x0000007e     0x1e5b avr32/drivers/flashc/flashc.o
 .debug_loc     0x00001ed9      0x3e1 avr32/drivers/gpio/gpio.o
 .debug_loc     0x000022ba       0x89 avr32/drivers/intc/intc.o
 .debug_loc     0x00002343      0x462 avr32/drivers/pdca/pdca.o
 .debug_loc     0x000027a5      0x377 avr32/drivers/spi/spi.o
 .debug_loc     0x00002b1c      0x466 avr32/drivers/tc/tc.o
 .debug_loc     0x00002f82      0x9ef avr32/drivers/usart/usart.o
 .debug_loc     0x00003971      0x46e avr32/utils/debug/print_funcs.o
 .debug_loc     0x00003ddf      0x93a avr32/components/memory/sd_mmc/sd_mmc_spi/sd_mmc_spi.o
 .debug_loc     0x00004719      0xabb avr32/drivers/usbb/usbb_host.o
 .debug_loc     0x000051d4      0x1e6 common/services/clock/uc3a0_a1/sysclk.o
 .debug_loc     0x000053ba      0x984 common/services/usb/uhc/uhc.o
 .debug_loc     0x00005d3e       0xa0 ../avr32/src/adc.o
 .debug_loc     0x00005dde       0xcb ../avr32/src/app_timers.o
 .debug_loc     0x00005ea9      0x285 ../avr32/src/bfin.o
 .debug_loc     0x0000612e       0xaa ../avr32/src/events.o
 .debug_loc     0x000061d8       0x64 ../avr32/src/encoders.o
 .debug_loc     0x0000623c      0x3ef ../avr32/src/files.o
 .debug_loc     0x0000662b      0x163 ../avr32/src/filesystem.o
 .debug_loc     0x0000678e       0xd4 ../avr32/src/flash.o
 .debug_loc     0x00006862      0x153 ../avr32/src/init.o
 .debug_loc     0x000069b5       0xd9 ../avr32/src/interrupts.o
 .debug_loc     0x00006a8e       0xab ../avr32/src/memory.o
 .debug_loc     0x00006b39      0x8ea ../avr32/src/screen.o
 .debug_loc     0x00007423       0x52 ../avr32/src/simple_string.o
 .debug_loc     0x00007475       0x3d ../avr32/src/switches.o
 .debug_loc     0x000074b2      0x20d ../avr32/src/timers.o
 .debug_loc     0x000076bf       0x1f ../avr32/src/main.o
 .debug_loc     0x000076de      0x130 ../avr32/src/usb/mouse/hid_mouse.o
 .debug_loc     0x0000780e      0x253 ../avr32/src/usb/mouse/uhi_hid_mouse.o
 .debug_loc     0x00007a61      0x209 ../avr32/src/usb/gamepad/uhi_hid_gamepad.o
 .debug_loc     0x00007c6a      0xd4d ../avr32/src/fat_io_lib/fat_access.o
 .debug_loc     0x000089b7       0x39 ../avr32/src/fat_io_lib/fat_cache.o
 .debug_loc     0x000089f0     0x196e ../avr32/src/fat_io_lib/fat_filelib.o
 .debug_loc     0x0000a35e      0x4bc ../avr32/src/fat_io_lib/fat_misc.o
 .debug_loc     0x0000a81a      0xa85 ../avr32/src/fat_io_lib/fat_string.o
 .debug_loc     0x0000b29f      0xb64 ../avr32/src/fat_io_lib/fat_table.o
 .debug_loc     0x0000be03      0x697 ../avr32/src/fat_io_lib/fat_write.o
 .debug_loc     0x0000c49a      0x37a ../common/fix.o
 .debug_loc     0x0000c814      0x520 ../common/libfixmath/fix16.o
 .debug_loc     0x0000cd34      0x149 ../avr32/apps/bees/src/app.o
 .debug_loc     0x0000ce7d      0x6f2 ../avr32/apps/bees/src/key_handler.o
 .debug_loc     0x0000d56f      0x250 ../avr32/apps/bees/src/menu.o
 .debug_loc     0x0000d7bf      0x92a ../avr32/apps/bees/src/net.o
 .debug_loc     0x0000e0e9      0x17d ../avr32/apps/bees/src/op.o
 .debug_loc     0x0000e266       0x89 ../avr32/apps/bees/src/param.o
 .debug_loc     0x0000e2ef       0xa0 ../avr32/apps/bees/src/play.o
 .debug_loc     0x0000e38f      0x162 ../avr32/apps/bees/src/preset.o
 .debug_loc     0x0000e4f1      0x79e ../avr32/apps/bees/src/redraw.o
 .debug_loc     0x0000ec8f       0xa7 ../avr32/apps/bees/src/scene.o
 .debug_loc     0x0000ed36      0x139 ../avr32/apps/bees/src/ops/op_add.o
 .debug_loc     0x0000ee6f      0x250 ../avr32/apps/bees/src/ops/op_enc.o
 .debug_loc     0x0000f0bf      0x18f ../avr32/apps/bees/src/ops/op_gate.o
 .debug_loc     0x0000f24e      0x12c ../avr32/apps/bees/src/ops/op_mul.o
 .debug_loc     0x0000f37a      0x1c6 ../avr32/apps/bees/src/ops/op_sw.o

.debug_macinfo  0x00000000  0x2ff1277
 *(.debug_macinfo)
 .debug_macinfo
                0x00000000    0xebf8d avr32/drivers/ebi/smc/smc.o
 .debug_macinfo
                0x000ebf8d    0xe968c avr32/drivers/flashc/flashc.o
 .debug_macinfo
                0x001d5619    0xe976a avr32/drivers/gpio/gpio.o
 .debug_macinfo
                0x002bed83    0xe9817 avr32/drivers/intc/intc.o
 .debug_macinfo
                0x003a859a    0xe96ac avr32/drivers/pdca/pdca.o
 .debug_macinfo
                0x00491c46    0xe95b8 avr32/drivers/spi/spi.o
 .debug_macinfo
                0x0057b1fe    0xe9e4d avr32/drivers/tc/tc.o
 .debug_macinfo
                0x0066504b    0xe997b avr32/drivers/usart/usart.o
 .debug_macinfo
                0x0074e9c6    0xeb2db avr32/utils/debug/print_funcs.o
 .debug_macinfo
                0x00839ca1    0xebc3d avr32/components/memory/sd_mmc/sd_mmc_spi/sd_mmc_spi.o
 .debug_macinfo
                0x009258de    0xf3520 avr32/drivers/usbb/usbb_host.o
 .debug_macinfo
                0x00a18dfe    0xebe74 common/services/clock/uc3a0_a1/sysclk.o
 .debug_macinfo
                0x00b04c72    0xed010 common/services/usb/uhc/uhc.o
 .debug_macinfo
                0x00bf1c82    0xec3f2 ../avr32/src/adc.o
 .debug_macinfo
                0x00cde074    0xebb8a ../avr32/src/app_timers.o
 .debug_macinfo
                0x00dc9bfe    0xee5bc ../avr32/src/bfin.o
 .debug_macinfo
                0x00eb81ba    0xead13 ../avr32/src/events.o
 .debug_macinfo
                0x00fa2ecd    0xeaf2c ../avr32/src/encoders.o
 .debug_macinfo
                0x0108ddf9    0xecd4c ../avr32/src/files.o
 .debug_macinfo
                0x0117ab45    0xed4b5 ../avr32/src/filesystem.o
 .debug_macinfo
                0x01267ffa    0xeb900 ../avr32/src/flash.o
 .debug_macinfo
                0x013538fa    0xe95c4 ../avr32/src/font.o
 .debug_macinfo
                0x0143cebe    0xf1cac ../avr32/src/init.o
 .debug_macinfo
                0x0152eb6a    0xee428 ../avr32/src/interrupts.o
 .debug_macinfo
                0x0161cf92    0xec22e ../avr32/src/memory.o
 .debug_macinfo
                0x017091c0    0xeca68 ../avr32/src/screen.o
 .debug_macinfo
                0x017f5c28    0xe959a ../avr32/src/simple_string.o
 .debug_macinfo
                0x018df1c2    0xeaf26 ../avr32/src/switches.o
 .debug_macinfo
                0x019ca0e8    0xea388 ../avr32/src/timers.o
 .debug_macinfo
                0x01ab4470    0xf02c5 ../avr32/src/main.o
 .debug_macinfo
                0x01ba4735    0xed14f ../avr32/src/usb.o
 .debug_macinfo
                0x01c91884    0xecf3b ../avr32/src/usb/mouse/hid_mouse.o
 .debug_macinfo
                0x01d7e7bf    0xeb996 ../avr32/src/usb/mouse/uhi_hid_mouse.o
 .debug_macinfo
                0x01e6a155    0xed0ce ../avr32/src/usb/gamepad/uhi_hid_gamepad.o
 .debug_macinfo
                0x01f57223    0xec461 ../avr32/src/fat_io_lib/fat_access.o
 .debug_macinfo
                0x02043684     0x4192 ../avr32/src/fat_io_lib/fat_cache.o
 .debug_macinfo
                0x02047816    0xec6ab ../avr32/src/fat_io_lib/fat_filelib.o
 .debug_macinfo
                0x02133ec1     0x4234 ../avr32/src/fat_io_lib/fat_misc.o
 .debug_macinfo
                0x021380f5     0x2926 ../avr32/src/fat_io_lib/fat_string.o
 .debug_macinfo
                0x0213aa1b     0x43ef ../avr32/src/fat_io_lib/fat_table.o
 .debug_macinfo
                0x0213ee0a     0x42a8 ../avr32/src/fat_io_lib/fat_write.o
 .debug_macinfo
                0x021430b2    0xe983b ../common/fix.o
 .debug_macinfo
                0x0222c8ed     0x1476 ../common/libfixmath/fix16.o
 .debug_macinfo
                0x0222dd63    0xeb9aa ../avr32/apps/bees/src/app.o
 .debug_macinfo
                0x0231970d    0xeb7ec ../avr32/apps/bees/src/key_handler.o
 .debug_macinfo
                0x02404ef9    0xeb7da ../avr32/apps/bees/src/menu.o
 .debug_macinfo
                0x024f06d3    0xec440 ../avr32/apps/bees/src/net.o
 .debug_macinfo
                0x025dcb13    0xeb7ee ../avr32/apps/bees/src/op.o
 .debug_macinfo
                0x026c8301    0xe9e60 ../avr32/apps/bees/src/param.o
 .debug_macinfo
                0x027b2161    0xeb7ad ../avr32/apps/bees/src/play.o
 .debug_macinfo
                0x0289d90e    0xeb57f ../avr32/apps/bees/src/preset.o
 .debug_macinfo
                0x02988e8d    0xeb839 ../avr32/apps/bees/src/redraw.o
 .debug_macinfo
                0x02a746c6    0xeb64c ../avr32/apps/bees/src/scene.o
 .debug_macinfo
                0x02b5fd12    0xe9de1 ../avr32/apps/bees/src/ops/op_add.o
 .debug_macinfo
                0x02c49af3    0xe9de1 ../avr32/apps/bees/src/ops/op_enc.o
 .debug_macinfo
                0x02d338d4    0xe9de2 ../avr32/apps/bees/src/ops/op_gate.o
 .debug_macinfo
                0x02e1d6b6    0xe9de1 ../avr32/apps/bees/src/ops/op_mul.o
 .debug_macinfo
                0x02f07497    0xe9de0 ../avr32/apps/bees/src/ops/op_sw.o

.debug_weaknames
 *(.debug_weaknames)

.debug_funcnames
 *(.debug_funcnames)

.debug_typenames
 *(.debug_typenames)

.debug_varnames
 *(.debug_varnames)

.stack          0x0000f000     0x1000
                0x0000f000                _stack = .
 *(.stack)
                0x00001000                . = __stack_size__
 *fill*         0x0000f000     0x1000 00
                0x00010000                _estack = .

.flash_nvram    0x80040000    0x22648 load address 0x8002358c
 *(.flash_nvram)
 .flash_nvram   0x80040000    0x22648 ../avr32/src/flash.o
                0x80062800                . = ALIGN (0x200)

.userpage
 *(.userpage .userpage.*)

/DISCARD/
 *(.note.GNU-stack)
LOAD avr32/drivers/ebi/smc/smc.o
LOAD avr32/drivers/flashc/flashc.o
LOAD avr32/drivers/gpio/gpio.o
LOAD avr32/drivers/intc/intc.o
LOAD avr32/drivers/pdca/pdca.o
LOAD avr32/drivers/pm/pm.o
LOAD avr32/drivers/pm/pm_conf_clocks.o
LOAD avr32/drivers/pm/power_clocks_lib.o
LOAD avr32/drivers/spi/spi.o
LOAD avr32/drivers/tc/tc.o
LOAD avr32/drivers/usart/usart.o
LOAD avr32/utils/debug/print_funcs.o
LOAD avr32/components/memory/sd_mmc/sd_mmc_spi/sd_mmc_spi.o
LOAD avr32/components/memory/sd_mmc/sd_mmc_spi/sd_mmc_spi_mem.o
LOAD avr32/drivers/usbb/usbb_host.o
LOAD common/services/clock/uc3a0_a1/sysclk.o
LOAD common/services/storage/ctrl_access/ctrl_access.o
LOAD common/services/usb/uhc/uhc.o
LOAD ../avr32/src/adc.o
LOAD ../avr32/src/app.o
LOAD ../avr32/src/app_timers.o
LOAD ../avr32/src/bfin.o
LOAD ../avr32/src/events.o
LOAD ../avr32/src/encoders.o
LOAD ../avr32/src/files.o
LOAD ../avr32/src/filesystem.o
LOAD ../avr32/src/flash.o
LOAD ../avr32/src/font.o
LOAD ../avr32/src/init.o
LOAD ../avr32/src/interrupts.o
LOAD ../avr32/src/memory.o
LOAD ../avr32/src/screen.o
LOAD ../avr32/src/simple_string.o
LOAD ../avr32/src/switches.o
LOAD ../avr32/src/timers.o
LOAD ../avr32/src/main.o
LOAD ../avr32/src/usb.o
LOAD ../avr32/src/usb/mouse/hid_mouse.o
LOAD ../avr32/src/usb/mouse/uhi_hid_mouse.o
LOAD ../avr32/src/usb/gamepad/hid_gamepad.o
LOAD ../avr32/src/usb/gamepad/uhi_hid_gamepad.o
LOAD ../avr32/src/fat_io_lib/fat_access.o
LOAD ../avr32/src/fat_io_lib/fat_cache.o
LOAD ../avr32/src/fat_io_lib/fat_filelib.o
LOAD ../avr32/src/fat_io_lib/fat_format.o
LOAD ../avr32/src/fat_io_lib/fat_misc.o
LOAD ../avr32/src/fat_io_lib/fat_string.o
LOAD ../avr32/src/fat_io_lib/fat_table.o
LOAD ../avr32/src/fat_io_lib/fat_write.o
LOAD ../common/fix.o
LOAD ../common/libfixmath/fix16.o
LOAD ../avr32/apps/bees/src/app.o
LOAD ../avr32/apps/bees/src/key_handler.o
LOAD ../avr32/apps/bees/src/menu.o
LOAD ../avr32/apps/bees/src/net.o
LOAD ../avr32/apps/bees/src/op.o
LOAD ../avr32/apps/bees/src/param.o
LOAD ../avr32/apps/bees/src/play.o
LOAD ../avr32/apps/bees/src/preset.o
LOAD ../avr32/apps/bees/src/redraw.o
LOAD ../avr32/apps/bees/src/scene.o
LOAD ../avr32/apps/bees/src/ops/op_add.o
LOAD ../avr32/apps/bees/src/ops/op_enc.o
LOAD ../avr32/apps/bees/src/ops/op_gate.o
LOAD ../avr32/apps/bees/src/ops/op_mul.o
LOAD ../avr32/apps/bees/src/ops/op_sw.o
LOAD avr32/drivers/intc/exception.o
LOAD avr32/utils/startup/startup_uc3.o
LOAD avr32/utils/startup/trampoline_uc3.o
START GROUP
END GROUP
LOAD /home/emb/avr32-gnu-toolchain/bin/../lib/gcc/avr32/4.4.3/ucr2/libgcc.a
LOAD /home/emb/avr32-gnu-toolchain/bin/../lib/gcc/avr32/4.4.3/../../../../avr32/lib/ucr2/libc.a
LOAD /home/emb/avr32-gnu-toolchain/bin/../lib/gcc/avr32/4.4.3/ucr2/libgcc.a
OUTPUT(aleph-bees.elf elf32-avr32)

.debug_ranges   0x00000000     0x7c10
 .debug_ranges  0x00000000       0x80 avr32/drivers/ebi/smc/smc.o
 .debug_ranges  0x00000080     0x2cd0 avr32/drivers/flashc/flashc.o
 .debug_ranges  0x00002d50      0x1d8 avr32/drivers/gpio/gpio.o
 .debug_ranges  0x00002f28       0x48 avr32/drivers/intc/intc.o
 .debug_ranges  0x00002f70      0x3f0 avr32/drivers/pdca/pdca.o
 .debug_ranges  0x00003360       0xa0 avr32/drivers/spi/spi.o
 .debug_ranges  0x00003400       0xa0 avr32/drivers/tc/tc.o
 .debug_ranges  0x000034a0      0x5c0 avr32/drivers/usart/usart.o
 .debug_ranges  0x00003a60       0xb0 avr32/utils/debug/print_funcs.o
 .debug_ranges  0x00003b10      0x9d0 avr32/components/memory/sd_mmc/sd_mmc_spi/sd_mmc_spi.o
 .debug_ranges  0x000044e0      0x598 avr32/drivers/usbb/usbb_host.o
 .debug_ranges  0x00004a78      0x218 common/services/clock/uc3a0_a1/sysclk.o
 .debug_ranges  0x00004c90      0x140 common/services/usb/uhc/uhc.o
 .debug_ranges  0x00004dd0       0x80 ../avr32/src/adc.o
 .debug_ranges  0x00004e50       0x30 ../avr32/src/app_timers.o
 .debug_ranges  0x00004e80       0xc0 ../avr32/src/bfin.o
 .debug_ranges  0x00004f40       0x28 ../avr32/src/events.o
 .debug_ranges  0x00004f68       0x28 ../avr32/src/encoders.o
 .debug_ranges  0x00004f90       0xc0 ../avr32/src/files.o
 .debug_ranges  0x00005050       0x28 ../avr32/src/filesystem.o
 .debug_ranges  0x00005078       0x38 ../avr32/src/flash.o
 .debug_ranges  0x000050b0       0x50 ../avr32/src/init.o
 .debug_ranges  0x00005100       0x48 ../avr32/src/interrupts.o
 .debug_ranges  0x00005148       0x28 ../avr32/src/memory.o
 .debug_ranges  0x00005170      0x4c8 ../avr32/src/screen.o
 .debug_ranges  0x00005638       0x18 ../avr32/src/simple_string.o
 .debug_ranges  0x00005650       0x18 ../avr32/src/switches.o
 .debug_ranges  0x00005668       0x90 ../avr32/src/timers.o
 .debug_ranges  0x000056f8       0x18 ../avr32/src/main.o
 .debug_ranges  0x00005710       0x48 ../avr32/src/usb.o
 .debug_ranges  0x00005758       0x30 ../avr32/src/usb/mouse/hid_mouse.o
 .debug_ranges  0x00005788       0x30 ../avr32/src/usb/mouse/uhi_hid_mouse.o
 .debug_ranges  0x000057b8       0x30 ../avr32/src/usb/gamepad/uhi_hid_gamepad.o
 .debug_ranges  0x000057e8      0x168 ../avr32/src/fat_io_lib/fat_access.o
 .debug_ranges  0x00005950       0x28 ../avr32/src/fat_io_lib/fat_cache.o
 .debug_ranges  0x00005978      0xad0 ../avr32/src/fat_io_lib/fat_filelib.o
 .debug_ranges  0x00006448      0x100 ../avr32/src/fat_io_lib/fat_misc.o
 .debug_ranges  0x00006548      0x170 ../avr32/src/fat_io_lib/fat_string.o
 .debug_ranges  0x000066b8      0x588 ../avr32/src/fat_io_lib/fat_table.o
 .debug_ranges  0x00006c40       0xe0 ../avr32/src/fat_io_lib/fat_write.o
 .debug_ranges  0x00006d20      0x130 ../common/fix.o
 .debug_ranges  0x00006e50      0x190 ../common/libfixmath/fix16.o
 .debug_ranges  0x00006fe0       0x28 ../avr32/apps/bees/src/app.o
 .debug_ranges  0x00007008       0x58 ../avr32/apps/bees/src/key_handler.o
 .debug_ranges  0x00007060       0x88 ../avr32/apps/bees/src/menu.o
 .debug_ranges  0x000070e8      0x1c0 ../avr32/apps/bees/src/net.o
 .debug_ranges  0x000072a8       0x38 ../avr32/apps/bees/src/op.o
 .debug_ranges  0x000072e0       0x30 ../avr32/apps/bees/src/param.o
 .debug_ranges  0x00007310       0x30 ../avr32/apps/bees/src/play.o
 .debug_ranges  0x00007340       0x48 ../avr32/apps/bees/src/preset.o
 .debug_ranges  0x00007388      0x6b0 ../avr32/apps/bees/src/redraw.o
 .debug_ranges  0x00007a38       0x40 ../avr32/apps/bees/src/scene.o
 .debug_ranges  0x00007a78       0x38 ../avr32/apps/bees/src/ops/op_add.o
 .debug_ranges  0x00007ab0       0x68 ../avr32/apps/bees/src/ops/op_enc.o
 .debug_ranges  0x00007b18       0x50 ../avr32/apps/bees/src/ops/op_gate.o
 .debug_ranges  0x00007b68       0x38 ../avr32/apps/bees/src/ops/op_mul.o
 .debug_ranges  0x00007ba0       0x70 ../avr32/apps/bees/src/ops/op_sw.o

Cross Reference Table

Symbol                                            File
INTC_init_interrupts                              avr32/drivers/intc/intc.o
                                                  ../avr32/src/main.o
INTC_register_interrupt                           avr32/drivers/intc/intc.o
                                                  ../avr32/src/interrupts.o
                                                  avr32/drivers/usbb/usbb_host.o
__avr32_f32_to_s32                                /home/emb/avr32-gnu-toolchain/bin/../lib/gcc/avr32/4.4.3/ucr2/libgcc.a(_avr32_f32_to_s32.o)
                                                  ../avr32/apps/bees/src/preset.o
                                                  ../avr32/src/bfin.o
__avr32_s32_to_f32                                /home/emb/avr32-gnu-toolchain/bin/../lib/gcc/avr32/4.4.3/ucr2/libgcc.a(_avr32_s32_to_f32.o)
                                                  ../avr32/apps/bees/src/preset.o
__avr32_udiv64                                    /home/emb/avr32-gnu-toolchain/bin/../lib/gcc/avr32/4.4.3/ucr2/libgcc.a(_udivdi3.o)
                                                  ../avr32/src/bfin.o
                                                  ../avr32/src/adc.o
__bss_start                                       avr32/utils/startup/startup_uc3.o
__errno                                           /home/emb/avr32-gnu-toolchain/bin/../lib/gcc/avr32/4.4.3/../../../../avr32/lib/ucr2/libc.a(lib_a-errno.o)
                                                  /home/emb/avr32-gnu-toolchain/bin/../lib/gcc/avr32/4.4.3/../../../../avr32/lib/ucr2/libc.a(lib_a-syscalls.o)
__fp_lock_all                                     /home/emb/avr32-gnu-toolchain/bin/../lib/gcc/avr32/4.4.3/../../../../avr32/lib/ucr2/libc.a(lib_a-findfp.o)
__fp_unlock_all                                   /home/emb/avr32-gnu-toolchain/bin/../lib/gcc/avr32/4.4.3/../../../../avr32/lib/ucr2/libc.a(lib_a-findfp.o)
__heap_end__                                      /home/emb/avr32-gnu-toolchain/bin/../lib/gcc/avr32/4.4.3/../../../../avr32/lib/ucr2/libc.a(lib_a-syscalls.o)
__heap_start__                                    /home/emb/avr32-gnu-toolchain/bin/../lib/gcc/avr32/4.4.3/../../../../avr32/lib/ucr2/libc.a(lib_a-syscalls.o)
__malloc_av_                                      /home/emb/avr32-gnu-toolchain/bin/../lib/gcc/avr32/4.4.3/../../../../avr32/lib/ucr2/libc.a(lib_a-mallocr.o)
                                                  /home/emb/avr32-gnu-toolchain/bin/../lib/gcc/avr32/4.4.3/../../../../avr32/lib/ucr2/libc.a(lib_a-freer.o)
__malloc_current_mallinfo                         /home/emb/avr32-gnu-toolchain/bin/../lib/gcc/avr32/4.4.3/../../../../avr32/lib/ucr2/libc.a(lib_a-mallocr.o)
                                                  /home/emb/avr32-gnu-toolchain/bin/../lib/gcc/avr32/4.4.3/../../../../avr32/lib/ucr2/libc.a(lib_a-freer.o)
__malloc_lock                                     /home/emb/avr32-gnu-toolchain/bin/../lib/gcc/avr32/4.4.3/../../../../avr32/lib/ucr2/libc.a(lib_a-mlock.o)
                                                  /home/emb/avr32-gnu-toolchain/bin/../lib/gcc/avr32/4.4.3/../../../../avr32/lib/ucr2/libc.a(lib_a-freer.o)
                                                  /home/emb/avr32-gnu-toolchain/bin/../lib/gcc/avr32/4.4.3/../../../../avr32/lib/ucr2/libc.a(lib_a-mallocr.o)
__malloc_max_sbrked_mem                           /home/emb/avr32-gnu-toolchain/bin/../lib/gcc/avr32/4.4.3/../../../../avr32/lib/ucr2/libc.a(lib_a-mallocr.o)
__malloc_max_total_mem                            /home/emb/avr32-gnu-toolchain/bin/../lib/gcc/avr32/4.4.3/../../../../avr32/lib/ucr2/libc.a(lib_a-mallocr.o)
__malloc_sbrk_base                                /home/emb/avr32-gnu-toolchain/bin/../lib/gcc/avr32/4.4.3/../../../../avr32/lib/ucr2/libc.a(lib_a-mallocr.o)
                                                  /home/emb/avr32-gnu-toolchain/bin/../lib/gcc/avr32/4.4.3/../../../../avr32/lib/ucr2/libc.a(lib_a-freer.o)
__malloc_top_pad                                  /home/emb/avr32-gnu-toolchain/bin/../lib/gcc/avr32/4.4.3/../../../../avr32/lib/ucr2/libc.a(lib_a-mallocr.o)
                                                  /home/emb/avr32-gnu-toolchain/bin/../lib/gcc/avr32/4.4.3/../../../../avr32/lib/ucr2/libc.a(lib_a-freer.o)
__malloc_trim_threshold                           /home/emb/avr32-gnu-toolchain/bin/../lib/gcc/avr32/4.4.3/../../../../avr32/lib/ucr2/libc.a(lib_a-mallocr.o)
                                                  /home/emb/avr32-gnu-toolchain/bin/../lib/gcc/avr32/4.4.3/../../../../avr32/lib/ucr2/libc.a(lib_a-freer.o)
__malloc_unlock                                   /home/emb/avr32-gnu-toolchain/bin/../lib/gcc/avr32/4.4.3/../../../../avr32/lib/ucr2/libc.a(lib_a-mlock.o)
                                                  /home/emb/avr32-gnu-toolchain/bin/../lib/gcc/avr32/4.4.3/../../../../avr32/lib/ucr2/libc.a(lib_a-freer.o)
                                                  /home/emb/avr32-gnu-toolchain/bin/../lib/gcc/avr32/4.4.3/../../../../avr32/lib/ucr2/libc.a(lib_a-mallocr.o)
__sclose                                          /home/emb/avr32-gnu-toolchain/bin/../lib/gcc/avr32/4.4.3/../../../../avr32/lib/ucr2/libc.a(lib_a-stdio.o)
                                                  /home/emb/avr32-gnu-toolchain/bin/../lib/gcc/avr32/4.4.3/../../../../avr32/lib/ucr2/libc.a(lib_a-findfp.o)
__sf_fake_stderr                                  /home/emb/avr32-gnu-toolchain/bin/../lib/gcc/avr32/4.4.3/../../../../avr32/lib/ucr2/libc.a(lib_a-findfp.o)
                                                  /home/emb/avr32-gnu-toolchain/bin/../lib/gcc/avr32/4.4.3/../../../../avr32/lib/ucr2/libc.a(lib_a-fflush.o)
                                                  /home/emb/avr32-gnu-toolchain/bin/../lib/gcc/avr32/4.4.3/../../../../avr32/lib/ucr2/libc.a(lib_a-fclose.o)
                                                  /home/emb/avr32-gnu-toolchain/bin/../lib/gcc/avr32/4.4.3/../../../../avr32/lib/ucr2/libc.a(lib_a-impure.o)
__sf_fake_stdin                                   /home/emb/avr32-gnu-toolchain/bin/../lib/gcc/avr32/4.4.3/../../../../avr32/lib/ucr2/libc.a(lib_a-findfp.o)
                                                  /home/emb/avr32-gnu-toolchain/bin/../lib/gcc/avr32/4.4.3/../../../../avr32/lib/ucr2/libc.a(lib_a-fflush.o)
                                                  /home/emb/avr32-gnu-toolchain/bin/../lib/gcc/avr32/4.4.3/../../../../avr32/lib/ucr2/libc.a(lib_a-fclose.o)
                                                  /home/emb/avr32-gnu-toolchain/bin/../lib/gcc/avr32/4.4.3/../../../../avr32/lib/ucr2/libc.a(lib_a-impure.o)
__sf_fake_stdout                                  /home/emb/avr32-gnu-toolchain/bin/../lib/gcc/avr32/4.4.3/../../../../avr32/lib/ucr2/libc.a(lib_a-findfp.o)
                                                  /home/emb/avr32-gnu-toolchain/bin/../lib/gcc/avr32/4.4.3/../../../../avr32/lib/ucr2/libc.a(lib_a-fflush.o)
                                                  /home/emb/avr32-gnu-toolchain/bin/../lib/gcc/avr32/4.4.3/../../../../avr32/lib/ucr2/libc.a(lib_a-fclose.o)
                                                  /home/emb/avr32-gnu-toolchain/bin/../lib/gcc/avr32/4.4.3/../../../../avr32/lib/ucr2/libc.a(lib_a-impure.o)
__sfmoreglue                                      /home/emb/avr32-gnu-toolchain/bin/../lib/gcc/avr32/4.4.3/../../../../avr32/lib/ucr2/libc.a(lib_a-findfp.o)
__sfp                                             /home/emb/avr32-gnu-toolchain/bin/../lib/gcc/avr32/4.4.3/../../../../avr32/lib/ucr2/libc.a(lib_a-findfp.o)
__sfp_lock_acquire                                /home/emb/avr32-gnu-toolchain/bin/../lib/gcc/avr32/4.4.3/../../../../avr32/lib/ucr2/libc.a(lib_a-findfp.o)
                                                  /home/emb/avr32-gnu-toolchain/bin/../lib/gcc/avr32/4.4.3/../../../../avr32/lib/ucr2/libc.a(lib_a-fclose.o)
                                                  /home/emb/avr32-gnu-toolchain/bin/../lib/gcc/avr32/4.4.3/../../../../avr32/lib/ucr2/libc.a(lib_a-fwalk.o)
__sfp_lock_release                                /home/emb/avr32-gnu-toolchain/bin/../lib/gcc/avr32/4.4.3/../../../../avr32/lib/ucr2/libc.a(lib_a-findfp.o)
                                                  /home/emb/avr32-gnu-toolchain/bin/../lib/gcc/avr32/4.4.3/../../../../avr32/lib/ucr2/libc.a(lib_a-fclose.o)
                                                  /home/emb/avr32-gnu-toolchain/bin/../lib/gcc/avr32/4.4.3/../../../../avr32/lib/ucr2/libc.a(lib_a-fwalk.o)
__sinit                                           /home/emb/avr32-gnu-toolchain/bin/../lib/gcc/avr32/4.4.3/../../../../avr32/lib/ucr2/libc.a(lib_a-findfp.o)
                                                  /home/emb/avr32-gnu-toolchain/bin/../lib/gcc/avr32/4.4.3/../../../../avr32/lib/ucr2/libc.a(lib_a-fflush.o)
                                                  /home/emb/avr32-gnu-toolchain/bin/../lib/gcc/avr32/4.4.3/../../../../avr32/lib/ucr2/libc.a(lib_a-fclose.o)
__sinit_lock_acquire                              /home/emb/avr32-gnu-toolchain/bin/../lib/gcc/avr32/4.4.3/../../../../avr32/lib/ucr2/libc.a(lib_a-findfp.o)
__sinit_lock_release                              /home/emb/avr32-gnu-toolchain/bin/../lib/gcc/avr32/4.4.3/../../../../avr32/lib/ucr2/libc.a(lib_a-findfp.o)
__sread                                           /home/emb/avr32-gnu-toolchain/bin/../lib/gcc/avr32/4.4.3/../../../../avr32/lib/ucr2/libc.a(lib_a-stdio.o)
                                                  /home/emb/avr32-gnu-toolchain/bin/../lib/gcc/avr32/4.4.3/../../../../avr32/lib/ucr2/libc.a(lib_a-findfp.o)
__sseek                                           /home/emb/avr32-gnu-toolchain/bin/../lib/gcc/avr32/4.4.3/../../../../avr32/lib/ucr2/libc.a(lib_a-stdio.o)
                                                  /home/emb/avr32-gnu-toolchain/bin/../lib/gcc/avr32/4.4.3/../../../../avr32/lib/ucr2/libc.a(lib_a-findfp.o)
__swrite                                          /home/emb/avr32-gnu-toolchain/bin/../lib/gcc/avr32/4.4.3/../../../../avr32/lib/ucr2/libc.a(lib_a-stdio.o)
                                                  /home/emb/avr32-gnu-toolchain/bin/../lib/gcc/avr32/4.4.3/../../../../avr32/lib/ucr2/libc.a(lib_a-findfp.o)
__udivdi3                                         /home/emb/avr32-gnu-toolchain/bin/../lib/gcc/avr32/4.4.3/ucr2/libgcc.a(_udivdi3.o)
_cleanup                                          /home/emb/avr32-gnu-toolchain/bin/../lib/gcc/avr32/4.4.3/../../../../avr32/lib/ucr2/libc.a(lib_a-findfp.o)
_cleanup_r                                        /home/emb/avr32-gnu-toolchain/bin/../lib/gcc/avr32/4.4.3/../../../../avr32/lib/ucr2/libc.a(lib_a-findfp.o)
_close                                            /home/emb/avr32-gnu-toolchain/bin/../lib/gcc/avr32/4.4.3/../../../../avr32/lib/ucr2/libc.a(lib_a-syscalls.o)
                                                  /home/emb/avr32-gnu-toolchain/bin/../lib/gcc/avr32/4.4.3/../../../../avr32/lib/ucr2/libc.a(lib_a-closer.o)
_close_r                                          /home/emb/avr32-gnu-toolchain/bin/../lib/gcc/avr32/4.4.3/../../../../avr32/lib/ucr2/libc.a(lib_a-closer.o)
                                                  /home/emb/avr32-gnu-toolchain/bin/../lib/gcc/avr32/4.4.3/../../../../avr32/lib/ucr2/libc.a(lib_a-stdio.o)
_cluster_size_table                               ../avr32/src/fat_io_lib/fat_format.o
_data                                             avr32/utils/startup/startup_uc3.o
_data_lma                                         avr32/utils/startup/startup_uc3.o
_edata                                            avr32/utils/startup/startup_uc3.o
_end                                              avr32/utils/startup/startup_uc3.o
_estack                                           avr32/utils/startup/startup_uc3.o
_evba                                             avr32/drivers/intc/exception.o
                                                  avr32/utils/startup/startup_uc3.o
                                                  avr32/drivers/intc/intc.o
_execve                                           /home/emb/avr32-gnu-toolchain/bin/../lib/gcc/avr32/4.4.3/../../../../avr32/lib/ucr2/libc.a(lib_a-syscalls.o)
_exit                                             /home/emb/avr32-gnu-toolchain/bin/../lib/gcc/avr32/4.4.3/../../../../avr32/lib/ucr2/libc.a(lib_a-syscalls.o)
_fclose_r                                         /home/emb/avr32-gnu-toolchain/bin/../lib/gcc/avr32/4.4.3/../../../../avr32/lib/ucr2/libc.a(lib_a-fclose.o)
_fcntl                                            /home/emb/avr32-gnu-toolchain/bin/../lib/gcc/avr32/4.4.3/../../../../avr32/lib/ucr2/libc.a(lib_a-syscalls.o)
_fflush_r                                         /home/emb/avr32-gnu-toolchain/bin/../lib/gcc/avr32/4.4.3/../../../../avr32/lib/ucr2/libc.a(lib_a-fflush.o)
                                                  /home/emb/avr32-gnu-toolchain/bin/../lib/gcc/avr32/4.4.3/../../../../avr32/lib/ucr2/libc.a(lib_a-fclose.o)
_fork                                             /home/emb/avr32-gnu-toolchain/bin/../lib/gcc/avr32/4.4.3/../../../../avr32/lib/ucr2/libc.a(lib_a-syscalls.o)
_free_r                                           /home/emb/avr32-gnu-toolchain/bin/../lib/gcc/avr32/4.4.3/../../../../avr32/lib/ucr2/libc.a(lib_a-freer.o)
                                                  /home/emb/avr32-gnu-toolchain/bin/../lib/gcc/avr32/4.4.3/../../../../avr32/lib/ucr2/libc.a(lib_a-fclose.o)
                                                  /home/emb/avr32-gnu-toolchain/bin/../lib/gcc/avr32/4.4.3/../../../../avr32/lib/ucr2/libc.a(lib_a-reent.o)
                                                  /home/emb/avr32-gnu-toolchain/bin/../lib/gcc/avr32/4.4.3/../../../../avr32/lib/ucr2/libc.a(lib_a-mallocr.o)
                                                  /home/emb/avr32-gnu-toolchain/bin/../lib/gcc/avr32/4.4.3/../../../../avr32/lib/ucr2/libc.a(lib_a-malloc.o)
_fstat                                            /home/emb/avr32-gnu-toolchain/bin/../lib/gcc/avr32/4.4.3/../../../../avr32/lib/ucr2/libc.a(lib_a-syscalls.o)
_fstat_host                                       /home/emb/avr32-gnu-toolchain/bin/../lib/gcc/avr32/4.4.3/../../../../avr32/lib/ucr2/libc.a(lib_a-syscalls.o)
_fwalk                                            /home/emb/avr32-gnu-toolchain/bin/../lib/gcc/avr32/4.4.3/../../../../avr32/lib/ucr2/libc.a(lib_a-fwalk.o)
                                                  /home/emb/avr32-gnu-toolchain/bin/../lib/gcc/avr32/4.4.3/../../../../avr32/lib/ucr2/libc.a(lib_a-findfp.o)
_fwalk_reent                                      /home/emb/avr32-gnu-toolchain/bin/../lib/gcc/avr32/4.4.3/../../../../avr32/lib/ucr2/libc.a(lib_a-fwalk.o)
                                                  /home/emb/avr32-gnu-toolchain/bin/../lib/gcc/avr32/4.4.3/../../../../avr32/lib/ucr2/libc.a(lib_a-fflush.o)
_get_interrupt_handler                            avr32/drivers/intc/intc.o
                                                  avr32/drivers/intc/exception.o
_getpid                                           /home/emb/avr32-gnu-toolchain/bin/../lib/gcc/avr32/4.4.3/../../../../avr32/lib/ucr2/libc.a(lib_a-syscalls.o)
_gettimeofday                                     /home/emb/avr32-gnu-toolchain/bin/../lib/gcc/avr32/4.4.3/../../../../avr32/lib/ucr2/libc.a(lib_a-syscalls.o)
_gettimeofday_host                                /home/emb/avr32-gnu-toolchain/bin/../lib/gcc/avr32/4.4.3/../../../../avr32/lib/ucr2/libc.a(lib_a-syscalls.o)
_global_impure_ptr                                /home/emb/avr32-gnu-toolchain/bin/../lib/gcc/avr32/4.4.3/../../../../avr32/lib/ucr2/libc.a(lib_a-impure.o)
                                                  /home/emb/avr32-gnu-toolchain/bin/../lib/gcc/avr32/4.4.3/../../../../avr32/lib/ucr2/libc.a(lib_a-fflush.o)
                                                  /home/emb/avr32-gnu-toolchain/bin/../lib/gcc/avr32/4.4.3/../../../../avr32/lib/ucr2/libc.a(lib_a-findfp.o)
_impure_ptr                                       /home/emb/avr32-gnu-toolchain/bin/../lib/gcc/avr32/4.4.3/../../../../avr32/lib/ucr2/libc.a(lib_a-impure.o)
                                                  /home/emb/avr32-gnu-toolchain/bin/../lib/gcc/avr32/4.4.3/../../../../avr32/lib/ucr2/libc.a(lib_a-fflush.o)
                                                  /home/emb/avr32-gnu-toolchain/bin/../lib/gcc/avr32/4.4.3/../../../../avr32/lib/ucr2/libc.a(lib_a-fclose.o)
                                                  /home/emb/avr32-gnu-toolchain/bin/../lib/gcc/avr32/4.4.3/../../../../avr32/lib/ucr2/libc.a(lib_a-findfp.o)
                                                  /home/emb/avr32-gnu-toolchain/bin/../lib/gcc/avr32/4.4.3/../../../../avr32/lib/ucr2/libc.a(lib_a-reent.o)
                                                  /home/emb/avr32-gnu-toolchain/bin/../lib/gcc/avr32/4.4.3/../../../../avr32/lib/ucr2/libc.a(lib_a-errno.o)
                                                  /home/emb/avr32-gnu-toolchain/bin/../lib/gcc/avr32/4.4.3/../../../../avr32/lib/ucr2/libc.a(lib_a-malloc.o)
_init_argv                                        /home/emb/avr32-gnu-toolchain/bin/../lib/gcc/avr32/4.4.3/../../../../avr32/lib/ucr2/libc.a(lib_a-syscalls.o)
_init_startup                                     /home/emb/avr32-gnu-toolchain/bin/../lib/gcc/avr32/4.4.3/../../../../avr32/lib/ucr2/libc.a(lib_a-syscalls.o)
_int0                                             avr32/drivers/intc/exception.o
                                                  avr32/drivers/intc/intc.o
_int1                                             avr32/drivers/intc/exception.o
                                                  avr32/drivers/intc/intc.o
_int2                                             avr32/drivers/intc/exception.o
                                                  avr32/drivers/intc/intc.o
_int3                                             avr32/drivers/intc/exception.o
                                                  avr32/drivers/intc/intc.o
_kill                                             /home/emb/avr32-gnu-toolchain/bin/../lib/gcc/avr32/4.4.3/../../../../avr32/lib/ucr2/libc.a(lib_a-syscalls.o)
_link                                             /home/emb/avr32-gnu-toolchain/bin/../lib/gcc/avr32/4.4.3/../../../../avr32/lib/ucr2/libc.a(lib_a-syscalls.o)
_lseek                                            /home/emb/avr32-gnu-toolchain/bin/../lib/gcc/avr32/4.4.3/../../../../avr32/lib/ucr2/libc.a(lib_a-syscalls.o)
                                                  /home/emb/avr32-gnu-toolchain/bin/../lib/gcc/avr32/4.4.3/../../../../avr32/lib/ucr2/libc.a(lib_a-lseekr.o)
_lseek_r                                          /home/emb/avr32-gnu-toolchain/bin/../lib/gcc/avr32/4.4.3/../../../../avr32/lib/ucr2/libc.a(lib_a-lseekr.o)
                                                  /home/emb/avr32-gnu-toolchain/bin/../lib/gcc/avr32/4.4.3/../../../../avr32/lib/ucr2/libc.a(lib_a-stdio.o)
_malloc_r                                         /home/emb/avr32-gnu-toolchain/bin/../lib/gcc/avr32/4.4.3/../../../../avr32/lib/ucr2/libc.a(lib_a-mallocr.o)
                                                  /home/emb/avr32-gnu-toolchain/bin/../lib/gcc/avr32/4.4.3/../../../../avr32/lib/ucr2/libc.a(lib_a-findfp.o)
                                                  /home/emb/avr32-gnu-toolchain/bin/../lib/gcc/avr32/4.4.3/../../../../avr32/lib/ucr2/libc.a(lib_a-malloc.o)
_malloc_trim_r                                    /home/emb/avr32-gnu-toolchain/bin/../lib/gcc/avr32/4.4.3/../../../../avr32/lib/ucr2/libc.a(lib_a-freer.o)
_open                                             /home/emb/avr32-gnu-toolchain/bin/../lib/gcc/avr32/4.4.3/../../../../avr32/lib/ucr2/libc.a(lib_a-syscalls.o)
_read                                             /home/emb/avr32-gnu-toolchain/bin/../lib/gcc/avr32/4.4.3/../../../../avr32/lib/ucr2/libc.a(lib_a-syscalls.o)
                                                  /home/emb/avr32-gnu-toolchain/bin/../lib/gcc/avr32/4.4.3/../../../../avr32/lib/ucr2/libc.a(lib_a-readr.o)
_read_r                                           /home/emb/avr32-gnu-toolchain/bin/../lib/gcc/avr32/4.4.3/../../../../avr32/lib/ucr2/libc.a(lib_a-readr.o)
                                                  /home/emb/avr32-gnu-toolchain/bin/../lib/gcc/avr32/4.4.3/../../../../avr32/lib/ucr2/libc.a(lib_a-stdio.o)
_reclaim_reent                                    /home/emb/avr32-gnu-toolchain/bin/../lib/gcc/avr32/4.4.3/../../../../avr32/lib/ucr2/libc.a(lib_a-reent.o)
_sbrk                                             /home/emb/avr32-gnu-toolchain/bin/../lib/gcc/avr32/4.4.3/../../../../avr32/lib/ucr2/libc.a(lib_a-syscalls.o)
                                                  /home/emb/avr32-gnu-toolchain/bin/../lib/gcc/avr32/4.4.3/../../../../avr32/lib/ucr2/libc.a(lib_a-sbrkr.o)
_sbrk_r                                           /home/emb/avr32-gnu-toolchain/bin/../lib/gcc/avr32/4.4.3/../../../../avr32/lib/ucr2/libc.a(lib_a-sbrkr.o)
                                                  /home/emb/avr32-gnu-toolchain/bin/../lib/gcc/avr32/4.4.3/../../../../avr32/lib/ucr2/libc.a(lib_a-freer.o)
                                                  /home/emb/avr32-gnu-toolchain/bin/../lib/gcc/avr32/4.4.3/../../../../avr32/lib/ucr2/libc.a(lib_a-mallocr.o)
_start                                            avr32/utils/startup/startup_uc3.o
_stat                                             /home/emb/avr32-gnu-toolchain/bin/../lib/gcc/avr32/4.4.3/../../../../avr32/lib/ucr2/libc.a(lib_a-syscalls.o)
_stat_host                                        /home/emb/avr32-gnu-toolchain/bin/../lib/gcc/avr32/4.4.3/../../../../avr32/lib/ucr2/libc.a(lib_a-syscalls.o)
_stext                                            avr32/utils/startup/startup_uc3.o
                                                  avr32/utils/startup/trampoline_uc3.o
_system                                           /home/emb/avr32-gnu-toolchain/bin/../lib/gcc/avr32/4.4.3/../../../../avr32/lib/ucr2/libc.a(lib_a-syscalls.o)
_times                                            /home/emb/avr32-gnu-toolchain/bin/../lib/gcc/avr32/4.4.3/../../../../avr32/lib/ucr2/libc.a(lib_a-syscalls.o)
_trampoline                                       avr32/utils/startup/trampoline_uc3.o
_unlink                                           /home/emb/avr32-gnu-toolchain/bin/../lib/gcc/avr32/4.4.3/../../../../avr32/lib/ucr2/libc.a(lib_a-syscalls.o)
_wait                                             /home/emb/avr32-gnu-toolchain/bin/../lib/gcc/avr32/4.4.3/../../../../avr32/lib/ucr2/libc.a(lib_a-syscalls.o)
_wrapup_reent                                     /home/emb/avr32-gnu-toolchain/bin/../lib/gcc/avr32/4.4.3/../../../../avr32/lib/ucr2/libc.a(lib_a-reent.o)
_write                                            /home/emb/avr32-gnu-toolchain/bin/../lib/gcc/avr32/4.4.3/../../../../avr32/lib/ucr2/libc.a(lib_a-syscalls.o)
                                                  /home/emb/avr32-gnu-toolchain/bin/../lib/gcc/avr32/4.4.3/../../../../avr32/lib/ucr2/libc.a(lib_a-writer.o)
_write_r                                          /home/emb/avr32-gnu-toolchain/bin/../lib/gcc/avr32/4.4.3/../../../../avr32/lib/ucr2/libc.a(lib_a-writer.o)
                                                  /home/emb/avr32-gnu-toolchain/bin/../lib/gcc/avr32/4.4.3/../../../../avr32/lib/ucr2/libc.a(lib_a-stdio.o)
adc_poll                                          ../avr32/src/adc.o
                                                  ../avr32/src/app_timers.o
alloc_mem                                         ../avr32/src/memory.o
                                                  ../avr32/apps/bees/src/scene.o
                                                  ../avr32/apps/bees/src/preset.o
                                                  ../avr32/apps/bees/src/net.o
                                                  ../avr32/src/flash.o
app_handle_event                                  ../avr32/apps/bees/src/app.o
                                                  ../avr32/src/main.o
app_init                                          ../avr32/apps/bees/src/app.o
                                                  ../avr32/src/main.o
app_launch                                        ../avr32/apps/bees/src/app.o
                                                  ../avr32/src/main.o
app_notify                                        ../avr32/src/app.o
app_pause                                         ../avr32/src/app.o
app_resume                                        ../avr32/src/app.o
bfinLdrData                                       ../avr32/src/flash.o
                                                  ../avr32/src/files.o
                                                  ../avr32/src/bfin.o
bfinLdrSize                                       ../avr32/src/flash.o
                                                  ../avr32/src/files.o
                                                  ../avr32/src/bfin.o
bfin_get_module_name                              ../avr32/src/bfin.o
bfin_get_module_version                           ../avr32/src/bfin.o
bfin_get_num_params                               ../avr32/src/bfin.o
bfin_get_param_desc                               ../avr32/src/bfin.o
bfin_load_buf                                     ../avr32/src/bfin.o
                                                  ../avr32/src/files.o
bfin_report_params                                ../avr32/src/bfin.o
bfin_set_param                                    ../avr32/src/bfin.o
                                                  ../avr32/apps/bees/src/param.o
capacity                                          avr32/components/memory/sd_mmc/sd_mmc_spi/sd_mmc_spi.o
capacity_mult                                     avr32/components/memory/sd_mmc/sd_mmc_spi/sd_mmc_spi.o
card_type                                         avr32/components/memory/sd_mmc/sd_mmc_spi/sd_mmc_spi.o
cleanup_glue                                      /home/emb/avr32-gnu-toolchain/bin/../lib/gcc/avr32/4.4.3/../../../../avr32/lib/ucr2/libc.a(lib_a-reent.o)
csd                                               avr32/components/memory/sd_mmc/sd_mmc_spi/sd_mmc_spi.o
curPage                                           ../avr32/apps/bees/src/redraw.o
                                                  ../avr32/apps/bees/src/menu.o
                                                  ../avr32/apps/bees/src/key_handler.o
data_mem                                          avr32/components/memory/sd_mmc/sd_mmc_spi/sd_mmc_spi.o
enc                                               ../avr32/src/encoders.o
                                                  ../avr32/src/app_timers.o
erase_group_size                                  avr32/components/memory/sd_mmc/sd_mmc_spi/sd_mmc_spi.o
errno                                             /home/emb/avr32-gnu-toolchain/bin/../lib/gcc/avr32/4.4.3/../../../../avr32/lib/ucr2/libc.a(lib_a-readr.o)
                                                  /home/emb/avr32-gnu-toolchain/bin/../lib/gcc/avr32/4.4.3/../../../../avr32/lib/ucr2/libc.a(lib_a-lseekr.o)
                                                  /home/emb/avr32-gnu-toolchain/bin/../lib/gcc/avr32/4.4.3/../../../../avr32/lib/ucr2/libc.a(lib_a-closer.o)
                                                  /home/emb/avr32-gnu-toolchain/bin/../lib/gcc/avr32/4.4.3/../../../../avr32/lib/ucr2/libc.a(lib_a-writer.o)
                                                  /home/emb/avr32-gnu-toolchain/bin/../lib/gcc/avr32/4.4.3/../../../../avr32/lib/ucr2/libc.a(lib_a-reent.o)
                                                  /home/emb/avr32-gnu-toolchain/bin/../lib/gcc/avr32/4.4.3/../../../../avr32/lib/ucr2/libc.a(lib_a-syscalls.o)
                                                  /home/emb/avr32-gnu-toolchain/bin/../lib/gcc/avr32/4.4.3/../../../../avr32/lib/ucr2/libc.a(lib_a-sbrkr.o)
fat_init                                          ../avr32/src/filesystem.o
                                                  ../avr32/src/files.o
fatfs_add_file_entry                              ../avr32/src/fat_io_lib/fat_write.o
                                                  ../avr32/src/fat_io_lib/fat_filelib.o
fatfs_add_free_space                              ../avr32/src/fat_io_lib/fat_write.o
                                                  ../avr32/src/fat_io_lib/fat_filelib.o
fatfs_allocate_free_space                         ../avr32/src/fat_io_lib/fat_write.o
                                                  ../avr32/src/fat_io_lib/fat_filelib.o
fatfs_cache_get_next_cluster                      ../avr32/src/fat_io_lib/fat_cache.o
                                                  ../avr32/src/fat_io_lib/fat_filelib.o
fatfs_cache_init                                  ../avr32/src/fat_io_lib/fat_cache.o
                                                  ../avr32/src/fat_io_lib/fat_filelib.o
fatfs_cache_set_next_cluster                      ../avr32/src/fat_io_lib/fat_cache.o
                                                  ../avr32/src/fat_io_lib/fat_filelib.o
fatfs_compare_names                               ../avr32/src/fat_io_lib/fat_string.o
                                                  ../avr32/src/fat_io_lib/fat_filelib.o
                                                  ../avr32/src/fat_io_lib/fat_access.o
fatfs_count_free_clusters                         ../avr32/src/fat_io_lib/fat_table.o
fatfs_create_boot_sector                          ../avr32/src/fat_io_lib/fat_format.o
fatfs_create_path_string                          ../avr32/src/fat_io_lib/fat_string.o
fatfs_entry_is_dir                                ../avr32/src/fat_io_lib/fat_misc.o
                                                  ../avr32/src/fat_io_lib/fat_filelib.o
                                                  ../avr32/src/fat_io_lib/fat_access.o
fatfs_entry_is_file                               ../avr32/src/fat_io_lib/fat_misc.o
                                                  ../avr32/src/fat_io_lib/fat_filelib.o
fatfs_entry_lfn_exists                            ../avr32/src/fat_io_lib/fat_misc.o
                                                  ../avr32/src/fat_io_lib/fat_access.o
fatfs_entry_lfn_invalid                           ../avr32/src/fat_io_lib/fat_misc.o
                                                  ../avr32/src/fat_io_lib/fat_access.o
fatfs_entry_lfn_text                              ../avr32/src/fat_io_lib/fat_misc.o
                                                  ../avr32/src/fat_io_lib/fat_write.o
                                                  ../avr32/src/fat_io_lib/fat_access.o
fatfs_entry_sfn_only                              ../avr32/src/fat_io_lib/fat_misc.o
                                                  ../avr32/src/fat_io_lib/fat_access.o
fatfs_erase_fat                                   ../avr32/src/fat_io_lib/fat_format.o
fatfs_fat_add_cluster_to_chain                    ../avr32/src/fat_io_lib/fat_table.o
                                                  ../avr32/src/fat_io_lib/fat_write.o
fatfs_fat_init                                    ../avr32/src/fat_io_lib/fat_table.o
                                                  ../avr32/src/fat_io_lib/fat_format.o
                                                  ../avr32/src/fat_io_lib/fat_access.o
fatfs_fat_purge                                   ../avr32/src/fat_io_lib/fat_table.o
                                                  ../avr32/src/fat_io_lib/fat_filelib.o
fatfs_fat_set_cluster                             ../avr32/src/fat_io_lib/fat_table.o
                                                  ../avr32/src/fat_io_lib/fat_write.o
fatfs_filename_to_lfn                             ../avr32/src/fat_io_lib/fat_misc.o
                                                  ../avr32/src/fat_io_lib/fat_write.o
fatfs_find_blank_cluster                          ../avr32/src/fat_io_lib/fat_table.o
                                                  ../avr32/src/fat_io_lib/fat_write.o
fatfs_find_next_cluster                           ../avr32/src/fat_io_lib/fat_table.o
                                                  ../avr32/src/fat_io_lib/fat_filelib.o
                                                  ../avr32/src/fat_io_lib/fat_access.o
fatfs_format_fat16                                ../avr32/src/fat_io_lib/fat_format.o
fatfs_free_cluster_chain                          ../avr32/src/fat_io_lib/fat_table.o
                                                  ../avr32/src/fat_io_lib/fat_filelib.o
fatfs_get_extension                               ../avr32/src/fat_io_lib/fat_string.o
fatfs_get_file_entry                              ../avr32/src/fat_io_lib/fat_access.o
                                                  ../avr32/src/fat_io_lib/fat_filelib.o
fatfs_get_root_cluster                            ../avr32/src/fat_io_lib/fat_access.o
                                                  ../avr32/src/fat_io_lib/fat_filelib.o
fatfs_get_sfn_display_name                        ../avr32/src/fat_io_lib/fat_string.o
                                                  ../avr32/src/fat_io_lib/fat_access.o
fatfs_get_substring                               ../avr32/src/fat_io_lib/fat_string.o
                                                  ../avr32/src/fat_io_lib/fat_filelib.o
fatfs_init                                        ../avr32/src/fat_io_lib/fat_access.o
                                                  ../avr32/src/fat_io_lib/fat_filelib.o
fatfs_lba_of_cluster                              ../avr32/src/fat_io_lib/fat_access.o
                                                  ../avr32/src/fat_io_lib/fat_filelib.o
fatfs_lfn_cache_entry                             ../avr32/src/fat_io_lib/fat_misc.o
                                                  ../avr32/src/fat_io_lib/fat_access.o
fatfs_lfn_cache_get                               ../avr32/src/fat_io_lib/fat_misc.o
                                                  ../avr32/src/fat_io_lib/fat_access.o
fatfs_lfn_cache_init                              ../avr32/src/fat_io_lib/fat_misc.o
                                                  ../avr32/src/fat_io_lib/fat_access.o
fatfs_lfn_create_sfn                              ../avr32/src/fat_io_lib/fat_misc.o
                                                  ../avr32/src/fat_io_lib/fat_filelib.o
fatfs_lfn_entries_required                        ../avr32/src/fat_io_lib/fat_misc.o
                                                  ../avr32/src/fat_io_lib/fat_write.o
fatfs_lfn_generate_tail                           ../avr32/src/fat_io_lib/fat_misc.o
                                                  ../avr32/src/fat_io_lib/fat_filelib.o
fatfs_list_directory_next                         ../avr32/src/fat_io_lib/fat_access.o
                                                  ../avr32/src/fat_io_lib/fat_filelib.o
fatfs_list_directory_start                        ../avr32/src/fat_io_lib/fat_access.o
                                                  ../avr32/src/fat_io_lib/fat_filelib.o
fatfs_mark_file_deleted                           ../avr32/src/fat_io_lib/fat_access.o
                                                  ../avr32/src/fat_io_lib/fat_filelib.o
fatfs_read_sector                                 ../avr32/src/fat_io_lib/fat_access.o
fatfs_sector_read                                 ../avr32/src/fat_io_lib/fat_access.o
                                                  ../avr32/src/fat_io_lib/fat_filelib.o
fatfs_sector_reader                               ../avr32/src/fat_io_lib/fat_access.o
                                                  ../avr32/src/fat_io_lib/fat_write.o
fatfs_sector_write                                ../avr32/src/fat_io_lib/fat_access.o
                                                  ../avr32/src/fat_io_lib/fat_filelib.o
fatfs_set_fs_info_next_free_cluster               ../avr32/src/fat_io_lib/fat_table.o
                                                  ../avr32/src/fat_io_lib/fat_write.o
fatfs_sfn_create_entry                            ../avr32/src/fat_io_lib/fat_misc.o
                                                  ../avr32/src/fat_io_lib/fat_write.o
fatfs_sfn_exists                                  ../avr32/src/fat_io_lib/fat_access.o
                                                  ../avr32/src/fat_io_lib/fat_filelib.o
fatfs_show_details                                ../avr32/src/fat_io_lib/fat_access.o
fatfs_split_path                                  ../avr32/src/fat_io_lib/fat_string.o
                                                  ../avr32/src/fat_io_lib/fat_filelib.o
fatfs_string_ends_with_slash                      ../avr32/src/fat_io_lib/fat_string.o
fatfs_total_path_levels                           ../avr32/src/fat_io_lib/fat_string.o
                                                  ../avr32/src/fat_io_lib/fat_filelib.o
fatfs_update_file_length                          ../avr32/src/fat_io_lib/fat_access.o
                                                  ../avr32/src/fat_io_lib/fat_filelib.o
fatfs_write_sector                                ../avr32/src/fat_io_lib/fat_access.o
                                                  ../avr32/src/fat_io_lib/fat_write.o
                                                  ../avr32/src/fat_io_lib/fat_filelib.o
fclose                                            /home/emb/avr32-gnu-toolchain/bin/../lib/gcc/avr32/4.4.3/../../../../avr32/lib/ucr2/libc.a(lib_a-fclose.o)
                                                  /home/emb/avr32-gnu-toolchain/bin/../lib/gcc/avr32/4.4.3/../../../../avr32/lib/ucr2/libc.a(lib_a-findfp.o)
fflush                                            /home/emb/avr32-gnu-toolchain/bin/../lib/gcc/avr32/4.4.3/../../../../avr32/lib/ucr2/libc.a(lib_a-fflush.o)
files_get_dsp_count                               ../avr32/src/files.o
                                                  ../avr32/apps/bees/src/redraw.o
                                                  ../avr32/apps/bees/src/key_handler.o
files_get_dsp_name                                ../avr32/src/files.o
                                                  ../avr32/apps/bees/src/redraw.o
files_get_scene_count                             ../avr32/src/files.o
                                                  ../avr32/apps/bees/src/redraw.o
                                                  ../avr32/apps/bees/src/key_handler.o
files_get_scene_name                              ../avr32/src/files.o
files_load_dsp                                    ../avr32/src/files.o
                                                  ../avr32/apps/bees/src/key_handler.o
files_load_dsp_name                               ../avr32/src/files.o
                                                  ../avr32/apps/bees/src/scene.o
files_load_scene                                  ../avr32/src/files.o
                                                  ../avr32/apps/bees/src/key_handler.o
files_load_scene_name                             ../avr32/src/files.o
files_store_default_dsp                           ../avr32/src/files.o
files_store_default_scene                         ../avr32/src/files.o
files_store_scene                                 ../avr32/src/files.o
                                                  ../avr32/apps/bees/src/key_handler.o
files_store_scene_name                            ../avr32/src/files.o
fix16_add                                         ../common/libfixmath/fix16.o
                                                  ../avr32/apps/bees/src/ops/op_sw.o
                                                  ../avr32/apps/bees/src/ops/op_mul.o
                                                  ../avr32/apps/bees/src/ops/op_gate.o
                                                  ../avr32/apps/bees/src/ops/op_enc.o
                                                  ../avr32/apps/bees/src/ops/op_add.o
                                                  ../avr32/apps/bees/src/net.o
fix16_div                                         ../common/libfixmath/fix16.o
fix16_lerp16                                      ../common/libfixmath/fix16.o
fix16_lerp32                                      ../common/libfixmath/fix16.o
fix16_lerp8                                       ../common/libfixmath/fix16.o
fix16_mul                                         ../common/libfixmath/fix16.o
                                                  ../avr32/apps/bees/src/ops/op_mul.o
                                                  ../avr32/apps/bees/src/ops/op_enc.o
fix16_sadd                                        ../common/libfixmath/fix16.o
fix16_sdiv                                        ../common/libfixmath/fix16.o
fix16_smul                                        ../common/libfixmath/fix16.o
fix16_ssub                                        ../common/libfixmath/fix16.o
fix16_sub                                         ../common/libfixmath/fix16.o
                                                  ../avr32/apps/bees/src/ops/op_enc.o
fl_attach_locks                                   ../avr32/src/fat_io_lib/fat_filelib.o
fl_attach_media                                   ../avr32/src/fat_io_lib/fat_filelib.o
                                                  ../avr32/src/filesystem.o
fl_closedir                                       ../avr32/src/fat_io_lib/fat_filelib.o
fl_createdirectory                                ../avr32/src/fat_io_lib/fat_filelib.o
fl_fclose                                         ../avr32/src/fat_io_lib/fat_filelib.o
                                                  ../avr32/src/files.o
fl_feof                                           ../avr32/src/fat_io_lib/fat_filelib.o
fl_fflush                                         ../avr32/src/fat_io_lib/fat_filelib.o
fl_fgetc                                          ../avr32/src/fat_io_lib/fat_filelib.o
                                                  ../avr32/src/files.o
fl_fgetpos                                        ../avr32/src/fat_io_lib/fat_filelib.o
fl_fgets                                          ../avr32/src/fat_io_lib/fat_filelib.o
fl_fopen                                          ../avr32/src/fat_io_lib/fat_filelib.o
                                                  ../avr32/src/files.o
fl_fputc                                          ../avr32/src/fat_io_lib/fat_filelib.o
fl_fputs                                          ../avr32/src/fat_io_lib/fat_filelib.o
fl_fread                                          ../avr32/src/fat_io_lib/fat_filelib.o
                                                  ../avr32/src/files.o
fl_fseek                                          ../avr32/src/fat_io_lib/fat_filelib.o
fl_ftell                                          ../avr32/src/fat_io_lib/fat_filelib.o
fl_fwrite                                         ../avr32/src/fat_io_lib/fat_filelib.o
fl_init                                           ../avr32/src/fat_io_lib/fat_filelib.o
                                                  ../avr32/src/filesystem.o
fl_is_dir                                         ../avr32/src/fat_io_lib/fat_filelib.o
fl_listdirectory                                  ../avr32/src/fat_io_lib/fat_filelib.o
fl_opendir                                        ../avr32/src/fat_io_lib/fat_filelib.o
                                                  ../avr32/src/files.o
fl_readdir                                        ../avr32/src/fat_io_lib/fat_filelib.o
                                                  ../avr32/src/files.o
fl_remove                                         ../avr32/src/fat_io_lib/fat_filelib.o
fl_shutdown                                       ../avr32/src/fat_io_lib/fat_filelib.o
flash_read_ldr                                    ../avr32/src/flash.o
flash_read_scene                                  ../avr32/src/flash.o
                                                  ../avr32/apps/bees/src/scene.o
flash_write_ldr                                   ../avr32/src/flash.o
                                                  ../avr32/src/files.o
flash_write_scene                                 ../avr32/src/flash.o
                                                  ../avr32/apps/bees/src/scene.o
flashc_activate_security_bit                      avr32/drivers/flashc/flashc.o
flashc_clear_page_buffer                          avr32/drivers/flashc/flashc.o
flashc_default_wait_until_ready                   avr32/drivers/flashc/flashc.o
flashc_enable_lock_error_int                      avr32/drivers/flashc/flashc.o
flashc_enable_prog_error_int                      avr32/drivers/flashc/flashc.o
flashc_enable_ready_int                           avr32/drivers/flashc/flashc.o
flashc_erase_all                                  avr32/drivers/flashc/flashc.o
flashc_erase_all_gp_fuses                         avr32/drivers/flashc/flashc.o
flashc_erase_all_pages                            avr32/drivers/flashc/flashc.o
flashc_erase_gp_fuse_bit                          avr32/drivers/flashc/flashc.o
flashc_erase_gp_fuse_bitfield                     avr32/drivers/flashc/flashc.o
flashc_erase_gp_fuse_byte                         avr32/drivers/flashc/flashc.o
flashc_erase_page                                 avr32/drivers/flashc/flashc.o
flashc_erase_user_page                            avr32/drivers/flashc/flashc.o
flashc_get_bootloader_protected_size              avr32/drivers/flashc/flashc.o
flashc_get_command                                avr32/drivers/flashc/flashc.o
flashc_get_flash_size                             avr32/drivers/flashc/flashc.o
flashc_get_page_count                             avr32/drivers/flashc/flashc.o
flashc_get_page_count_per_region                  avr32/drivers/flashc/flashc.o
flashc_get_page_number                            avr32/drivers/flashc/flashc.o
flashc_get_page_region                            avr32/drivers/flashc/flashc.o
flashc_get_region_first_page_number               avr32/drivers/flashc/flashc.o
flashc_get_wait_state                             avr32/drivers/flashc/flashc.o
flashc_is_external_privileged_fetch_locked        avr32/drivers/flashc/flashc.o
flashc_is_lock_error                              avr32/drivers/flashc/flashc.o
flashc_is_lock_error_int_enabled                  avr32/drivers/flashc/flashc.o
flashc_is_page_erased                             avr32/drivers/flashc/flashc.o
flashc_is_page_region_locked                      avr32/drivers/flashc/flashc.o
flashc_is_prog_error_int_enabled                  avr32/drivers/flashc/flashc.o
flashc_is_programming_error                       avr32/drivers/flashc/flashc.o
flashc_is_ready                                   avr32/drivers/flashc/flashc.o
flashc_is_ready_int_enabled                       avr32/drivers/flashc/flashc.o
flashc_is_region_locked                           avr32/drivers/flashc/flashc.o
flashc_is_security_bit_active                     avr32/drivers/flashc/flashc.o
flashc_issue_command                              avr32/drivers/flashc/flashc.o
flashc_lock_all_regions                           avr32/drivers/flashc/flashc.o
flashc_lock_external_privileged_fetch             avr32/drivers/flashc/flashc.o
flashc_lock_page_region                           avr32/drivers/flashc/flashc.o
flashc_lock_region                                avr32/drivers/flashc/flashc.o
flashc_memcpy                                     avr32/drivers/flashc/flashc.o
                                                  ../avr32/src/flash.o
flashc_memset16                                   avr32/drivers/flashc/flashc.o
flashc_memset32                                   avr32/drivers/flashc/flashc.o
                                                  ../avr32/src/flash.o
flashc_memset64                                   avr32/drivers/flashc/flashc.o
flashc_memset8                                    avr32/drivers/flashc/flashc.o
flashc_no_operation                               avr32/drivers/flashc/flashc.o
flashc_quick_page_read                            avr32/drivers/flashc/flashc.o
flashc_quick_user_page_read                       avr32/drivers/flashc/flashc.o
flashc_read_all_gp_fuses                          avr32/drivers/flashc/flashc.o
flashc_read_gp_fuse_bit                           avr32/drivers/flashc/flashc.o
flashc_read_gp_fuse_bitfield                      avr32/drivers/flashc/flashc.o
flashc_read_gp_fuse_byte                          avr32/drivers/flashc/flashc.o
flashc_set_all_gp_fuses                           avr32/drivers/flashc/flashc.o
flashc_set_bootloader_protected_size              avr32/drivers/flashc/flashc.o
flashc_set_bus_freq                               avr32/drivers/flashc/flashc.o
                                                  ../avr32/src/main.o
                                                  common/services/clock/uc3a0_a1/sysclk.o
flashc_set_gp_fuse_bit                            avr32/drivers/flashc/flashc.o
flashc_set_gp_fuse_bitfield                       avr32/drivers/flashc/flashc.o
flashc_set_gp_fuse_byte                           avr32/drivers/flashc/flashc.o
flashc_set_wait_state                             avr32/drivers/flashc/flashc.o
                                                  ../avr32/src/main.o
                                                  avr32/drivers/pm/pm_conf_clocks.o
flashc_wait_until_ready                           avr32/drivers/flashc/flashc.o
flashc_write_all_gp_fuses                         avr32/drivers/flashc/flashc.o
flashc_write_gp_fuse_bit                          avr32/drivers/flashc/flashc.o
flashc_write_gp_fuse_bitfield                     avr32/drivers/flashc/flashc.o
flashc_write_gp_fuse_byte                         avr32/drivers/flashc/flashc.o
flashc_write_page                                 avr32/drivers/flashc/flashc.o
flashc_write_user_page                            avr32/drivers/flashc/flashc.o
font_data                                         ../avr32/src/font.o
                                                  ../avr32/src/screen.o
font_nglyphs                                      ../avr32/src/font.o
free                                              /home/emb/avr32-gnu-toolchain/bin/../lib/gcc/avr32/4.4.3/../../../../avr32/lib/ucr2/libc.a(lib_a-malloc.o)
                                                  ../avr32/src/usb/gamepad/uhi_hid_gamepad.o
                                                  ../avr32/src/usb/mouse/uhi_hid_mouse.o
                                                  common/services/usb/uhc/uhc.o
                                                  avr32/drivers/usbb/usbb_host.o
fsEndTransfer                                     ../avr32/src/interrupts.o
                                                  ../avr32/src/filesystem.o
fwBinData                                         ../avr32/src/flash.o
fwBinSize                                         ../avr32/src/flash.o
gathered                                          ../avr32/apps/bees/src/menu.o
                                                  ../avr32/apps/bees/src/key_handler.o
getBaudDiv                                        avr32/drivers/spi/spi.o
get_cur_lun                                       common/services/storage/ctrl_access/ctrl_access.o
get_nb_lun                                        common/services/storage/ctrl_access/ctrl_access.o
get_next_event                                    ../avr32/src/events.o
                                                  ../avr32/src/main.o
get_param_name                                    ../avr32/apps/bees/src/param.o
get_param_preset                                  ../avr32/apps/bees/src/param.o
                                                  ../avr32/apps/bees/src/preset.o
get_param_value                                   ../avr32/apps/bees/src/param.o
                                                  ../avr32/apps/bees/src/preset.o
                                                  ../avr32/apps/bees/src/net.o
gpio_clear_pin_interrupt_flag                     avr32/drivers/gpio/gpio.o
                                                  ../avr32/src/interrupts.o
gpio_clr_gpio_open_drain_pin                      avr32/drivers/gpio/gpio.o
gpio_clr_gpio_pin                                 avr32/drivers/gpio/gpio.o
                                                  ../avr32/apps/bees/src/app.o
                                                  ../avr32/src/main.o
                                                  ../avr32/src/screen.o
                                                  ../avr32/src/bfin.o
gpio_configure_group                              avr32/drivers/gpio/gpio.o
gpio_configure_pin                                avr32/drivers/gpio/gpio.o
gpio_disable_pin_glitch_filter                    avr32/drivers/gpio/gpio.o
gpio_disable_pin_interrupt                        avr32/drivers/gpio/gpio.o
gpio_disable_pin_pull_up                          avr32/drivers/gpio/gpio.o
gpio_enable_gpio                                  avr32/drivers/gpio/gpio.o
gpio_enable_gpio_pin                              avr32/drivers/gpio/gpio.o
gpio_enable_module                                avr32/drivers/gpio/gpio.o
                                                  ../avr32/src/init.o
                                                  avr32/utils/debug/print_funcs.o
                                                  avr32/drivers/ebi/smc/smc.o
gpio_enable_module_pin                            avr32/drivers/gpio/gpio.o
gpio_enable_pin_glitch_filter                     avr32/drivers/gpio/gpio.o
                                                  ../avr32/src/init.o
gpio_enable_pin_interrupt                         avr32/drivers/gpio/gpio.o
                                                  ../avr32/src/interrupts.o
gpio_enable_pin_pull_up                           avr32/drivers/gpio/gpio.o
                                                  ../avr32/src/init.o
gpio_get_gpio_open_drain_pin_output_value         avr32/drivers/gpio/gpio.o
gpio_get_gpio_pin_output_value                    avr32/drivers/gpio/gpio.o
gpio_get_pin_interrupt_flag                       avr32/drivers/gpio/gpio.o
                                                  ../avr32/src/interrupts.o
gpio_get_pin_value                                avr32/drivers/gpio/gpio.o
                                                  ../avr32/src/switches.o
                                                  ../avr32/src/encoders.o
                                                  ../avr32/src/bfin.o
gpio_set_gpio_open_drain_pin                      avr32/drivers/gpio/gpio.o
gpio_set_gpio_pin                                 avr32/drivers/gpio/gpio.o
                                                  ../avr32/apps/bees/src/app.o
                                                  ../avr32/src/screen.o
                                                  ../avr32/src/bfin.o
gpio_set_group_high                               avr32/drivers/gpio/gpio.o
gpio_set_group_low                                avr32/drivers/gpio/gpio.o
gpio_set_pin_high                                 avr32/drivers/gpio/gpio.o
gpio_set_pin_low                                  avr32/drivers/gpio/gpio.o
gpio_tgl_gpio_open_drain_pin                      avr32/drivers/gpio/gpio.o
gpio_tgl_gpio_pin                                 avr32/drivers/gpio/gpio.o
gpio_toggle_group                                 avr32/drivers/gpio/gpio.o
gpio_toggle_pin                                   avr32/drivers/gpio/gpio.o
hid_mouse_btn_left                                ../avr32/src/usb/mouse/hid_mouse.o
                                                  ../avr32/src/usb/mouse/uhi_hid_mouse.o
hid_mouse_btn_middle                              ../avr32/src/usb/mouse/hid_mouse.o
                                                  ../avr32/src/usb/mouse/uhi_hid_mouse.o
hid_mouse_btn_right                               ../avr32/src/usb/mouse/hid_mouse.o
                                                  ../avr32/src/usb/mouse/uhi_hid_mouse.o
hid_mouse_move                                    ../avr32/src/usb/mouse/hid_mouse.o
                                                  ../avr32/src/usb/mouse/uhi_hid_mouse.o
init_adc                                          ../avr32/src/adc.o
                                                  ../avr32/src/main.o
init_app_timers                                   ../avr32/src/app_timers.o
                                                  ../avr32/src/main.o
init_bfin_resources                               ../avr32/src/init.o
                                                  ../avr32/src/main.o
init_dbg_rs232                                    avr32/utils/debug/print_funcs.o
init_dbg_rs232_ex                                 avr32/utils/debug/print_funcs.o
init_encoders                                     ../avr32/src/encoders.o
                                                  ../avr32/src/main.o
init_events                                       ../avr32/src/events.o
                                                  ../avr32/src/main.o
init_files                                        ../avr32/src/files.o
                                                  ../avr32/src/main.o
init_flash                                        ../avr32/src/flash.o
                                                  ../avr32/src/main.o
init_ftdi_usart                                   ../avr32/src/init.o
                                                  ../avr32/src/main.o
init_gpio                                         ../avr32/src/init.o
                                                  ../avr32/src/main.o
init_local_pdca                                   ../avr32/src/init.o
                                                  ../avr32/src/main.o
init_mem                                          ../avr32/src/memory.o
                                                  ../avr32/src/main.o
init_oled                                         ../avr32/src/screen.o
                                                  ../avr32/src/main.o
init_spi1                                         ../avr32/src/init.o
                                                  ../avr32/src/main.o
init_tc                                           ../avr32/src/init.o
                                                  ../avr32/src/main.o
init_timers                                       ../avr32/src/timers.o
init_twi                                          ../avr32/src/init.o
init_usb_host                                     ../avr32/src/init.o
                                                  ../avr32/src/main.o
is_sd_mmc_spi_write_pwd_locked                    avr32/components/memory/sd_mmc/sd_mmc_spi/sd_mmc_spi.o
isatty                                            /home/emb/avr32-gnu-toolchain/bin/../lib/gcc/avr32/4.4.3/../../../../avr32/lib/ucr2/libc.a(lib_a-syscalls.o)
itoa_fract                                        ../common/fix.o
itoa_whole                                        ../common/fix.o
                                                  ../avr32/apps/bees/src/play.o
                                                  ../avr32/src/screen.o
itoa_whole_lj                                     ../common/fix.o
                                                  ../avr32/apps/bees/src/redraw.o
key_handler_dsp                                   ../avr32/apps/bees/src/key_handler.o
                                                  ../avr32/apps/bees/src/menu.o
key_handler_gathered                              ../avr32/apps/bees/src/key_handler.o
                                                  ../avr32/apps/bees/src/menu.o
key_handler_ins                                   ../avr32/apps/bees/src/key_handler.o
                                                  ../avr32/apps/bees/src/menu.o
key_handler_ops                                   ../avr32/apps/bees/src/key_handler.o
                                                  ../avr32/apps/bees/src/menu.o
key_handler_outs                                  ../avr32/apps/bees/src/key_handler.o
                                                  ../avr32/apps/bees/src/menu.o
key_handler_play                                  ../avr32/apps/bees/src/key_handler.o
                                                  ../avr32/apps/bees/src/menu.o
key_handler_presets                               ../avr32/apps/bees/src/key_handler.o
                                                  ../avr32/apps/bees/src/menu.o
key_handler_scenes                                ../avr32/apps/bees/src/key_handler.o
                                                  ../avr32/apps/bees/src/menu.o
kill_timer                                        ../avr32/src/timers.o
lines                                             ../avr32/src/screen.o
list_get_name                                     ../avr32/src/files.o
main                                              ../avr32/src/main.o
                                                  avr32/utils/startup/startup_uc3.o
malloc                                            /home/emb/avr32-gnu-toolchain/bin/../lib/gcc/avr32/4.4.3/../../../../avr32/lib/ucr2/libc.a(lib_a-malloc.o)
                                                  ../avr32/src/usb/gamepad/uhi_hid_gamepad.o
                                                  ../avr32/src/usb/mouse/uhi_hid_mouse.o
                                                  common/services/usb/uhc/uhc.o
                                                  avr32/drivers/usbb/usbb_host.o
media_read                                        ../avr32/src/filesystem.o
media_write                                       ../avr32/src/filesystem.o
mem_name                                          common/services/storage/ctrl_access/ctrl_access.o
mem_read_capacity                                 common/services/storage/ctrl_access/ctrl_access.o
mem_removal                                       common/services/storage/ctrl_access/ctrl_access.o
mem_sector_size                                   common/services/storage/ctrl_access/ctrl_access.o
mem_test_unit_ready                               common/services/storage/ctrl_access/ctrl_access.o
mem_unload                                        common/services/storage/ctrl_access/ctrl_access.o
mem_wr_protect                                    common/services/storage/ctrl_access/ctrl_access.o
memcpy                                            /home/emb/avr32-gnu-toolchain/bin/../lib/gcc/avr32/4.4.3/../../../../avr32/lib/ucr2/libc.a(lib_a-memcpy.o)
                                                  ../avr32/apps/bees/src/scene.o
                                                  ../avr32/apps/bees/src/net.o
                                                  ../avr32/src/fat_io_lib/fat_write.o
                                                  ../avr32/src/fat_io_lib/fat_string.o
                                                  ../avr32/src/fat_io_lib/fat_misc.o
                                                  ../avr32/src/fat_io_lib/fat_filelib.o
                                                  ../avr32/src/fat_io_lib/fat_access.o
                                                  ../avr32/src/flash.o
                                                  avr32/drivers/usbb/usbb_host.o
memory_2_ram                                      common/services/storage/ctrl_access/ctrl_access.o
memset                                            /home/emb/avr32-gnu-toolchain/bin/../lib/gcc/avr32/4.4.3/../../../../avr32/lib/ucr2/libc.a(lib_a-memset.o)
                                                  /home/emb/avr32-gnu-toolchain/bin/../lib/gcc/avr32/4.4.3/../../../../avr32/lib/ucr2/libc.a(lib_a-findfp.o)
                                                  ../avr32/apps/bees/src/redraw.o
                                                  ../avr32/src/fat_io_lib/fat_write.o
                                                  ../avr32/src/fat_io_lib/fat_table.o
                                                  ../avr32/src/fat_io_lib/fat_misc.o
                                                  ../avr32/src/fat_io_lib/fat_format.o
                                                  ../avr32/src/fat_io_lib/fat_filelib.o
menu_deinit                                       ../avr32/apps/bees/src/menu.o
menu_handleKey                                    ../avr32/apps/bees/src/menu.o
                                                  ../avr32/apps/bees/src/app.o
menu_init                                         ../avr32/apps/bees/src/menu.o
                                                  ../avr32/apps/bees/src/app.o
menu_refresh                                      ../avr32/apps/bees/src/menu.o
net                                               ../avr32/apps/bees/src/scene.o
                                                  ../avr32/apps/bees/src/param.o
                                                  ../avr32/apps/bees/src/net.o
net_activate                                      ../avr32/apps/bees/src/net.o
                                                  ../avr32/apps/bees/src/ops/op_sw.o
                                                  ../avr32/apps/bees/src/ops/op_mul.o
                                                  ../avr32/apps/bees/src/ops/op_gate.o
                                                  ../avr32/apps/bees/src/ops/op_enc.o
                                                  ../avr32/apps/bees/src/ops/op_add.o
                                                  ../avr32/apps/bees/src/key_handler.o
net_add_op                                        ../avr32/apps/bees/src/net.o
                                                  ../avr32/apps/bees/src/key_handler.o
net_add_param                                     ../avr32/apps/bees/src/net.o
                                                  ../avr32/src/bfin.o
net_clear_params                                  ../avr32/apps/bees/src/net.o
                                                  ../avr32/src/bfin.o
net_connect                                       ../avr32/apps/bees/src/net.o
                                                  ../avr32/apps/bees/src/preset.o
                                                  ../avr32/apps/bees/src/key_handler.o
net_deinit                                        ../avr32/apps/bees/src/net.o
net_disconnect                                    ../avr32/apps/bees/src/net.o
                                                  ../avr32/apps/bees/src/key_handler.o
net_gather                                        ../avr32/apps/bees/src/net.o
                                                  ../avr32/apps/bees/src/key_handler.o
net_get_in_preset                                 ../avr32/apps/bees/src/net.o
                                                  ../avr32/apps/bees/src/preset.o
net_get_in_value                                  ../avr32/apps/bees/src/net.o
                                                  ../avr32/apps/bees/src/redraw.o
                                                  ../avr32/apps/bees/src/preset.o
                                                  ../avr32/apps/bees/src/play.o
net_get_out_preset                                ../avr32/apps/bees/src/net.o
                                                  ../avr32/apps/bees/src/preset.o
net_get_target                                    ../avr32/apps/bees/src/net.o
                                                  ../avr32/apps/bees/src/redraw.o
                                                  ../avr32/apps/bees/src/preset.o
                                                  ../avr32/apps/bees/src/key_handler.o
net_in_connected                                  ../avr32/apps/bees/src/net.o
net_in_name                                       ../avr32/apps/bees/src/net.o
                                                  ../avr32/apps/bees/src/redraw.o
                                                  ../avr32/apps/bees/src/play.o
net_in_op_idx                                     ../avr32/apps/bees/src/net.o
                                                  ../avr32/apps/bees/src/redraw.o
net_inc_in_value                                  ../avr32/apps/bees/src/net.o
                                                  ../avr32/apps/bees/src/key_handler.o
net_init                                          ../avr32/apps/bees/src/net.o
                                                  ../avr32/apps/bees/src/app.o
net_init_inode                                    ../avr32/apps/bees/src/net.o
net_init_onode                                    ../avr32/apps/bees/src/net.o
net_num_ins                                       ../avr32/apps/bees/src/net.o
                                                  ../avr32/apps/bees/src/redraw.o
                                                  ../avr32/apps/bees/src/key_handler.o
net_num_ops                                       ../avr32/apps/bees/src/net.o
                                                  ../avr32/apps/bees/src/redraw.o
                                                  ../avr32/apps/bees/src/key_handler.o
net_num_outs                                      ../avr32/apps/bees/src/net.o
                                                  ../avr32/apps/bees/src/redraw.o
                                                  ../avr32/apps/bees/src/key_handler.o
net_num_params                                    ../avr32/apps/bees/src/net.o
net_op_in_idx                                     ../avr32/apps/bees/src/net.o
                                                  ../avr32/apps/bees/src/key_handler.o
net_op_name                                       ../avr32/apps/bees/src/net.o
                                                  ../avr32/apps/bees/src/redraw.o
net_op_out_idx                                    ../avr32/apps/bees/src/net.o
                                                  ../avr32/apps/bees/src/key_handler.o
net_op_status                                     ../avr32/apps/bees/src/net.o
                                                  ../avr32/apps/bees/src/redraw.o
                                                  ../avr32/apps/bees/src/key_handler.o
net_out_name                                      ../avr32/apps/bees/src/net.o
                                                  ../avr32/apps/bees/src/redraw.o
net_out_op_idx                                    ../avr32/apps/bees/src/net.o
                                                  ../avr32/apps/bees/src/redraw.o
net_param_idx                                     ../avr32/apps/bees/src/net.o
                                                  ../avr32/apps/bees/src/redraw.o
net_pop_op                                        ../avr32/apps/bees/src/net.o
                                                  ../avr32/apps/bees/src/key_handler.o
net_remove_op                                     ../avr32/apps/bees/src/net.o
net_send_params                                   ../avr32/apps/bees/src/net.o
                                                  ../avr32/apps/bees/src/scene.o
net_set_in_preset                                 ../avr32/apps/bees/src/net.o
net_set_in_value                                  ../avr32/apps/bees/src/net.o
                                                  ../avr32/apps/bees/src/preset.o
net_set_out_preset                                ../avr32/apps/bees/src/net.o
net_toggle_in_preset                              ../avr32/apps/bees/src/net.o
                                                  ../avr32/apps/bees/src/key_handler.o
net_toggle_out_preset                             ../avr32/apps/bees/src/net.o
newOpType                                         ../avr32/apps/bees/src/redraw.o
                                                  ../avr32/apps/bees/src/menu.o
                                                  ../avr32/apps/bees/src/key_handler.o
numGathered                                       ../avr32/apps/bees/src/menu.o
                                                  ../avr32/apps/bees/src/key_handler.o
op_add_init                                       ../avr32/apps/bees/src/ops/op_add.o
                                                  ../avr32/apps/bees/src/op.o
                                                  ../avr32/apps/bees/src/net.o
op_enc_init                                       ../avr32/apps/bees/src/ops/op_enc.o
                                                  ../avr32/apps/bees/src/op.o
                                                  ../avr32/apps/bees/src/net.o
op_gate_init                                      ../avr32/apps/bees/src/ops/op_gate.o
                                                  ../avr32/apps/bees/src/op.o
                                                  ../avr32/apps/bees/src/net.o
op_get_in_val                                     ../avr32/apps/bees/src/op.o
                                                  ../avr32/apps/bees/src/net.o
op_in_name                                        ../avr32/apps/bees/src/op.o
                                                  ../avr32/apps/bees/src/net.o
op_init                                           ../avr32/apps/bees/src/op.o
op_mul_init                                       ../avr32/apps/bees/src/ops/op_mul.o
                                                  ../avr32/apps/bees/src/op.o
                                                  ../avr32/apps/bees/src/net.o
op_out_name                                       ../avr32/apps/bees/src/op.o
                                                  ../avr32/apps/bees/src/net.o
op_registry                                       ../avr32/apps/bees/src/op.o
                                                  ../avr32/apps/bees/src/redraw.o
                                                  ../avr32/apps/bees/src/net.o
op_set_in_val                                     ../avr32/apps/bees/src/op.o
                                                  ../avr32/apps/bees/src/net.o
op_sw_init                                        ../avr32/apps/bees/src/ops/op_sw.o
                                                  ../avr32/apps/bees/src/op.o
                                                  ../avr32/apps/bees/src/net.o
otg_dual_disable                                  avr32/drivers/usbb/usbb_host.o
otg_dual_enable                                   avr32/drivers/usbb/usbb_host.o
pageIdx                                           ../avr32/apps/bees/src/menu.o
pages                                             ../avr32/apps/bees/src/menu.o
                                                  ../avr32/apps/bees/src/key_handler.o
pcl_configure_clocks                              avr32/drivers/pm/power_clocks_lib.o
pcl_configure_usb_clock                           avr32/drivers/pm/power_clocks_lib.o
pcl_read_gplp                                     avr32/drivers/pm/power_clocks_lib.o
pcl_switch_to_osc                                 avr32/drivers/pm/power_clocks_lib.o
pcl_write_gplp                                    avr32/drivers/pm/power_clocks_lib.o
pdcaRxBuf                                         ../avr32/src/init.o
                                                  ../avr32/src/filesystem.o
pdcaRxChan                                        ../avr32/src/filesystem.o
pdcaTxBuf                                         ../avr32/src/init.o
                                                  ../avr32/src/filesystem.o
pdcaTxChan                                        ../avr32/src/filesystem.o
pdca_disable                                      avr32/drivers/pdca/pdca.o
                                                  ../avr32/src/interrupts.o
pdca_disable_interrupt_reload_counter_zero        avr32/drivers/pdca/pdca.o
pdca_disable_interrupt_transfer_complete          avr32/drivers/pdca/pdca.o
                                                  ../avr32/src/interrupts.o
pdca_disable_interrupt_transfer_error             avr32/drivers/pdca/pdca.o
pdca_enable                                       avr32/drivers/pdca/pdca.o
pdca_enable_interrupt_reload_counter_zero         avr32/drivers/pdca/pdca.o
pdca_enable_interrupt_transfer_complete           avr32/drivers/pdca/pdca.o
                                                  ../avr32/src/filesystem.o
pdca_enable_interrupt_transfer_error              avr32/drivers/pdca/pdca.o
pdca_get_channel_status                           avr32/drivers/pdca/pdca.o
pdca_get_handler                                  avr32/drivers/pdca/pdca.o
                                                  ../avr32/src/filesystem.o
pdca_get_load_size                                avr32/drivers/pdca/pdca.o
pdca_get_reload_size                              avr32/drivers/pdca/pdca.o
pdca_get_transfer_status                          avr32/drivers/pdca/pdca.o
pdca_init_channel                                 avr32/drivers/pdca/pdca.o
                                                  ../avr32/src/init.o
pdca_load_channel                                 avr32/drivers/pdca/pdca.o
                                                  ../avr32/src/filesystem.o
pdca_reload_channel                               avr32/drivers/pdca/pdca.o
pdca_set_peripheral_select                        avr32/drivers/pdca/pdca.o
pdca_set_transfer_size                            avr32/drivers/pdca/pdca.o
play_get_entry                                    ../avr32/apps/bees/src/play.o
                                                  ../avr32/apps/bees/src/redraw.o
play_init                                         ../avr32/apps/bees/src/play.o
                                                  ../avr32/apps/bees/src/app.o
play_input                                        ../avr32/apps/bees/src/play.o
                                                  ../avr32/apps/bees/src/net.o
play_param                                        ../avr32/apps/bees/src/play.o
pm_bod_clear_irq                                  avr32/drivers/pm/pm.o
pm_bod_disable_irq                                avr32/drivers/pm/pm.o
pm_bod_enable_irq                                 avr32/drivers/pm/pm.o
pm_bod_get_irq_enable_bit                         avr32/drivers/pm/pm.o
pm_bod_get_irq_status                             avr32/drivers/pm/pm.o
pm_bod_get_level                                  avr32/drivers/pm/pm.o
pm_cksel                                          avr32/drivers/pm/pm.o
                                                  avr32/drivers/pm/pm_conf_clocks.o
pm_cksel_get                                      avr32/drivers/pm/pm.o
pm_cksel_set                                      avr32/drivers/pm/pm.o
pm_configure_clocks                               avr32/drivers/pm/pm_conf_clocks.o
                                                  avr32/drivers/pm/power_clocks_lib.o
pm_configure_usb_clock                            avr32/drivers/pm/pm_conf_clocks.o
                                                  avr32/drivers/pm/power_clocks_lib.o
pm_disable_clk0                                   avr32/drivers/pm/pm.o
pm_disable_clk1                                   avr32/drivers/pm/pm.o
pm_disable_clk32                                  avr32/drivers/pm/pm.o
pm_disable_module                                 avr32/drivers/pm/pm.o
pm_enable_clk0                                    avr32/drivers/pm/pm.o
pm_enable_clk0_no_wait                            avr32/drivers/pm/pm.o
pm_enable_clk1                                    avr32/drivers/pm/pm.o
pm_enable_clk1_no_wait                            avr32/drivers/pm/pm.o
pm_enable_clk32                                   avr32/drivers/pm/pm.o
pm_enable_clk32_no_wait                           avr32/drivers/pm/pm.o
pm_enable_module                                  avr32/drivers/pm/pm.o
pm_enable_osc0_crystal                            avr32/drivers/pm/pm.o
pm_enable_osc0_ext_clock                          avr32/drivers/pm/pm.o
pm_enable_osc1_crystal                            avr32/drivers/pm/pm.o
pm_enable_osc1_ext_clock                          avr32/drivers/pm/pm.o
pm_enable_osc32_crystal                           avr32/drivers/pm/pm.o
pm_enable_osc32_ext_clock                         avr32/drivers/pm/pm.o
pm_gc_disable                                     avr32/drivers/pm/pm.o
pm_gc_enable                                      avr32/drivers/pm/pm.o
                                                  avr32/drivers/pm/pm_conf_clocks.o
pm_gc_setup                                       avr32/drivers/pm/pm.o
                                                  avr32/drivers/pm/pm_conf_clocks.o
pm_get_clock                                      avr32/drivers/pm/pm.o
pm_pll_disable                                    avr32/drivers/pm/pm.o
pm_pll_enable                                     avr32/drivers/pm/pm.o
                                                  avr32/drivers/pm/pm_conf_clocks.o
pm_pll_get_option                                 avr32/drivers/pm/pm.o
pm_pll_set_option                                 avr32/drivers/pm/pm.o
                                                  avr32/drivers/pm/pm_conf_clocks.o
pm_pll_setup                                      avr32/drivers/pm/pm.o
                                                  avr32/drivers/pm/pm_conf_clocks.o
pm_read_gplp                                      avr32/drivers/pm/pm.o
                                                  avr32/drivers/pm/power_clocks_lib.o
pm_switch_to_clock                                avr32/drivers/pm/pm.o
                                                  avr32/drivers/pm/pm_conf_clocks.o
pm_switch_to_osc0                                 avr32/drivers/pm/pm.o
                                                  avr32/drivers/pm/power_clocks_lib.o
                                                  avr32/drivers/pm/pm_conf_clocks.o
pm_wait_for_clk0_ready                            avr32/drivers/pm/pm.o
pm_wait_for_clk1_ready                            avr32/drivers/pm/pm.o
pm_wait_for_clk32_ready                           avr32/drivers/pm/pm.o
pm_wait_for_pll0_locked                           avr32/drivers/pm/pm.o
                                                  avr32/drivers/pm/pm_conf_clocks.o
pm_wait_for_pll1_locked                           avr32/drivers/pm/pm.o
                                                  avr32/drivers/pm/pm_conf_clocks.o
pm_write_gplp                                     avr32/drivers/pm/pm.o
                                                  avr32/drivers/pm/power_clocks_lib.o
post_event                                        ../avr32/src/events.o
                                                  ../avr32/src/switches.o
                                                  ../avr32/src/app_timers.o
                                                  ../avr32/src/adc.o
preset_deinit                                     ../avr32/apps/bees/src/preset.o
preset_init                                       ../avr32/apps/bees/src/preset.o
                                                  ../avr32/apps/bees/src/app.o
preset_name                                       ../avr32/apps/bees/src/preset.o
                                                  ../avr32/apps/bees/src/redraw.o
preset_recall                                     ../avr32/apps/bees/src/preset.o
                                                  ../avr32/apps/bees/src/key_handler.o
preset_store                                      ../avr32/apps/bees/src/preset.o
                                                  ../avr32/apps/bees/src/key_handler.o
preset_store_in                                   ../avr32/apps/bees/src/preset.o
preset_store_out                                  ../avr32/apps/bees/src/preset.o
presets                                           ../avr32/apps/bees/src/scene.o
                                                  ../avr32/apps/bees/src/preset.o
print                                             avr32/utils/debug/print_funcs.o
print_char                                        avr32/utils/debug/print_funcs.o
print_char_hex                                    avr32/utils/debug/print_funcs.o
print_dbg                                         avr32/utils/debug/print_funcs.o
                                                  ../avr32/apps/bees/src/scene.o
                                                  ../avr32/apps/bees/src/play.o
                                                  ../avr32/apps/bees/src/net.o
                                                  ../avr32/apps/bees/src/key_handler.o
                                                  ../avr32/apps/bees/src/app.o
                                                  ../avr32/src/fat_io_lib/fat_filelib.o
                                                  ../avr32/src/usb/gamepad/uhi_hid_gamepad.o
                                                  ../avr32/src/usb/mouse/hid_mouse.o
                                                  ../avr32/src/main.o
                                                  ../avr32/src/switches.o
                                                  ../avr32/src/memory.o
                                                  ../avr32/src/flash.o
                                                  ../avr32/src/filesystem.o
                                                  ../avr32/src/files.o
                                                  ../avr32/src/events.o
                                                  ../avr32/src/bfin.o
                                                  ../avr32/src/app_timers.o
                                                  common/services/usb/uhc/uhc.o
print_dbg_char                                    avr32/utils/debug/print_funcs.o
print_dbg_char_hex                                avr32/utils/debug/print_funcs.o
print_dbg_hex                                     avr32/utils/debug/print_funcs.o
                                                  ../avr32/apps/bees/src/play.o
                                                  ../avr32/apps/bees/src/net.o
                                                  ../avr32/apps/bees/src/key_handler.o
                                                  ../avr32/src/fat_io_lib/fat_filelib.o
                                                  ../avr32/src/usb/gamepad/uhi_hid_gamepad.o
                                                  ../avr32/src/usb/mouse/hid_mouse.o
                                                  ../avr32/src/memory.o
                                                  ../avr32/src/flash.o
                                                  ../avr32/src/filesystem.o
                                                  ../avr32/src/files.o
                                                  ../avr32/src/bfin.o
                                                  common/services/usb/uhc/uhc.o
print_dbg_short_hex                               avr32/utils/debug/print_funcs.o
print_dbg_ulong                                   avr32/utils/debug/print_funcs.o
                                                  ../avr32/src/usb/mouse/hid_mouse.o
                                                  ../avr32/src/switches.o
                                                  ../avr32/src/filesystem.o
                                                  ../avr32/src/bfin.o
                                                  ../avr32/src/app_timers.o
print_fix16                                       ../common/fix.o
                                                  ../avr32/apps/bees/src/redraw.o
                                                  ../avr32/apps/bees/src/play.o
                                                  ../avr32/src/screen.o
print_hex                                         avr32/utils/debug/print_funcs.o
print_short_hex                                   avr32/utils/debug/print_funcs.o
print_ulong                                       avr32/utils/debug/print_funcs.o
process_enc                                       ../avr32/src/encoders.o
                                                  ../avr32/src/interrupts.o
process_sw                                        ../avr32/src/switches.o
                                                  ../avr32/src/interrupts.o
process_timers                                    ../avr32/src/timers.o
                                                  ../avr32/src/interrupts.o
r1                                                avr32/components/memory/sd_mmc/sd_mmc_spi/sd_mmc_spi.o
r2                                                avr32/components/memory/sd_mmc/sd_mmc_spi/sd_mmc_spi.o
ram_2_memory                                      common/services/storage/ctrl_access/ctrl_access.o
redraw_dsp                                        ../avr32/apps/bees/src/redraw.o
                                                  ../avr32/apps/bees/src/menu.o
redraw_gathered                                   ../avr32/apps/bees/src/redraw.o
                                                  ../avr32/apps/bees/src/menu.o
redraw_ins                                        ../avr32/apps/bees/src/redraw.o
                                                  ../avr32/apps/bees/src/menu.o
redraw_ops                                        ../avr32/apps/bees/src/redraw.o
                                                  ../avr32/apps/bees/src/menu.o
                                                  ../avr32/apps/bees/src/key_handler.o
redraw_outs                                       ../avr32/apps/bees/src/redraw.o
                                                  ../avr32/apps/bees/src/menu.o
redraw_play                                       ../avr32/apps/bees/src/redraw.o
                                                  ../avr32/apps/bees/src/menu.o
                                                  ../avr32/apps/bees/src/key_handler.o
redraw_presets                                    ../avr32/apps/bees/src/redraw.o
                                                  ../avr32/apps/bees/src/menu.o
redraw_scenes                                     ../avr32/apps/bees/src/redraw.o
                                                  ../avr32/apps/bees/src/menu.o
refresh                                           ../avr32/src/interrupts.o
                                                  ../avr32/src/screen.o
                                                  ../avr32/src/app_timers.o
register_interrupts                               ../avr32/src/interrupts.o
                                                  ../avr32/src/main.o
sceneData                                         ../avr32/apps/bees/src/scene.o
scene_deinit                                      ../avr32/apps/bees/src/scene.o
scene_init                                        ../avr32/apps/bees/src/scene.o
                                                  ../avr32/apps/bees/src/app.o
scene_read_buf                                    ../avr32/apps/bees/src/scene.o
scene_read_default                                ../avr32/apps/bees/src/scene.o
                                                  ../avr32/apps/bees/src/app.o
scene_write_buf                                   ../avr32/apps/bees/src/scene.o
scene_write_default                               ../avr32/apps/bees/src/scene.o
                                                  ../avr32/apps/bees/src/key_handler.o
                                                  ../avr32/apps/bees/src/app.o
screen_blank_line                                 ../avr32/src/screen.o
                                                  ../avr32/apps/bees/src/redraw.o
                                                  ../avr32/src/main.o
screen_char_fixed                                 ../avr32/src/screen.o
screen_char_squeeze                               ../avr32/src/screen.o
screen_clear                                      ../avr32/src/screen.o
screen_fix                                        ../avr32/src/screen.o
screen_get_pixel                                  ../avr32/src/screen.o
screen_hl_line                                    ../avr32/src/screen.o
                                                  ../avr32/apps/bees/src/redraw.o
screen_int                                        ../avr32/src/screen.o
screen_line                                       ../avr32/src/screen.o
                                                  ../avr32/apps/bees/src/redraw.o
                                                  ../avr32/src/main.o
screen_pixel                                      ../avr32/src/screen.o
screen_refresh                                    ../avr32/src/screen.o
                                                  ../avr32/apps/bees/src/app.o
                                                  ../avr32/src/main.o
screen_string                                     ../avr32/src/screen.o
                                                  ../avr32/apps/bees/src/redraw.o
screen_string_fixed                               ../avr32/src/screen.o
screen_string_squeeze                             ../avr32/src/screen.o
scroll_page                                       ../avr32/apps/bees/src/menu.o
                                                  ../avr32/apps/bees/src/key_handler.o
scroll_select                                     ../avr32/apps/bees/src/menu.o
                                                  ../avr32/apps/bees/src/key_handler.o
scroll_select_clip                                ../avr32/apps/bees/src/menu.o
                                                  ../avr32/apps/bees/src/key_handler.o
scroll_select_wrap                                ../avr32/apps/bees/src/menu.o
sd_mmc_spi_check_hc                               avr32/components/memory/sd_mmc/sd_mmc_spi/sd_mmc_spi.o
sd_mmc_spi_check_presence                         avr32/components/memory/sd_mmc/sd_mmc_spi/sd_mmc_spi.o
                                                  avr32/components/memory/sd_mmc/sd_mmc_spi/sd_mmc_spi_mem.o
sd_mmc_spi_command                                avr32/components/memory/sd_mmc/sd_mmc_spi/sd_mmc_spi.o
sd_mmc_spi_erase_sector_group                     avr32/components/memory/sd_mmc/sd_mmc_spi/sd_mmc_spi.o
sd_mmc_spi_get_capacity                           avr32/components/memory/sd_mmc/sd_mmc_spi/sd_mmc_spi.o
sd_mmc_spi_get_cid                                avr32/components/memory/sd_mmc/sd_mmc_spi/sd_mmc_spi.o
sd_mmc_spi_get_csd                                avr32/components/memory/sd_mmc/sd_mmc_spi/sd_mmc_spi.o
sd_mmc_spi_get_if                                 avr32/components/memory/sd_mmc/sd_mmc_spi/sd_mmc_spi.o
sd_mmc_spi_get_status                             avr32/components/memory/sd_mmc/sd_mmc_spi/sd_mmc_spi.o
sd_mmc_spi_init                                   avr32/components/memory/sd_mmc/sd_mmc_spi/sd_mmc_spi.o
                                                  ../avr32/src/init.o
sd_mmc_spi_init_done                              avr32/components/memory/sd_mmc/sd_mmc_spi/sd_mmc_spi.o
                                                  avr32/components/memory/sd_mmc/sd_mmc_spi/sd_mmc_spi_mem.o
sd_mmc_spi_internal_init                          avr32/components/memory/sd_mmc/sd_mmc_spi/sd_mmc_spi.o
                                                  avr32/components/memory/sd_mmc/sd_mmc_spi/sd_mmc_spi_mem.o
sd_mmc_spi_last_block_address                     avr32/components/memory/sd_mmc/sd_mmc_spi/sd_mmc_spi_mem.o
                                                  avr32/components/memory/sd_mmc/sd_mmc_spi/sd_mmc_spi.o
sd_mmc_spi_lock_operation                         avr32/components/memory/sd_mmc/sd_mmc_spi/sd_mmc_spi.o
sd_mmc_spi_mem_2_ram                              avr32/components/memory/sd_mmc/sd_mmc_spi/sd_mmc_spi_mem.o
                                                  common/services/storage/ctrl_access/ctrl_access.o
sd_mmc_spi_mem_check                              avr32/components/memory/sd_mmc/sd_mmc_spi/sd_mmc_spi.o
                                                  ../avr32/src/main.o
                                                  avr32/components/memory/sd_mmc/sd_mmc_spi/sd_mmc_spi_mem.o
sd_mmc_spi_mem_init                               avr32/components/memory/sd_mmc/sd_mmc_spi/sd_mmc_spi_mem.o
sd_mmc_spi_presence_status                        avr32/components/memory/sd_mmc/sd_mmc_spi/sd_mmc_spi_mem.o
sd_mmc_spi_ram_2_mem                              avr32/components/memory/sd_mmc/sd_mmc_spi/sd_mmc_spi_mem.o
                                                  common/services/storage/ctrl_access/ctrl_access.o
sd_mmc_spi_read_capacity                          avr32/components/memory/sd_mmc/sd_mmc_spi/sd_mmc_spi_mem.o
                                                  common/services/storage/ctrl_access/ctrl_access.o
sd_mmc_spi_read_close                             avr32/components/memory/sd_mmc/sd_mmc_spi/sd_mmc_spi.o
                                                  avr32/components/memory/sd_mmc/sd_mmc_spi/sd_mmc_spi_mem.o
sd_mmc_spi_read_close_PDCA                        avr32/components/memory/sd_mmc/sd_mmc_spi/sd_mmc_spi.o
                                                  ../avr32/src/interrupts.o
sd_mmc_spi_read_multiple_sector                   avr32/components/memory/sd_mmc/sd_mmc_spi/sd_mmc_spi.o
sd_mmc_spi_read_multiple_sector_callback          avr32/components/memory/sd_mmc/sd_mmc_spi/sd_mmc_spi.o
sd_mmc_spi_read_open                              avr32/components/memory/sd_mmc/sd_mmc_spi/sd_mmc_spi.o
                                                  avr32/components/memory/sd_mmc/sd_mmc_spi/sd_mmc_spi_mem.o
sd_mmc_spi_read_open_PDCA                         avr32/components/memory/sd_mmc/sd_mmc_spi/sd_mmc_spi.o
                                                  ../avr32/src/filesystem.o
sd_mmc_spi_read_sector_to_ram                     avr32/components/memory/sd_mmc/sd_mmc_spi/sd_mmc_spi.o
                                                  avr32/components/memory/sd_mmc/sd_mmc_spi/sd_mmc_spi_mem.o
sd_mmc_spi_removal                                avr32/components/memory/sd_mmc/sd_mmc_spi/sd_mmc_spi_mem.o
                                                  common/services/storage/ctrl_access/ctrl_access.o
sd_mmc_spi_send_and_read                          avr32/components/memory/sd_mmc/sd_mmc_spi/sd_mmc_spi.o
sd_mmc_spi_send_command                           avr32/components/memory/sd_mmc/sd_mmc_spi/sd_mmc_spi.o
sd_mmc_spi_test_unit_ready                        avr32/components/memory/sd_mmc/sd_mmc_spi/sd_mmc_spi_mem.o
                                                  common/services/storage/ctrl_access/ctrl_access.o
sd_mmc_spi_wait_not_busy                          avr32/components/memory/sd_mmc/sd_mmc_spi/sd_mmc_spi.o
sd_mmc_spi_wr_protect                             avr32/components/memory/sd_mmc/sd_mmc_spi/sd_mmc_spi_mem.o
                                                  common/services/storage/ctrl_access/ctrl_access.o
sd_mmc_spi_write_close                            avr32/components/memory/sd_mmc/sd_mmc_spi/sd_mmc_spi.o
                                                  ../avr32/src/filesystem.o
                                                  avr32/components/memory/sd_mmc/sd_mmc_spi/sd_mmc_spi_mem.o
sd_mmc_spi_write_multiple_sector                  avr32/components/memory/sd_mmc/sd_mmc_spi/sd_mmc_spi.o
sd_mmc_spi_write_multiple_sector_callback         avr32/components/memory/sd_mmc/sd_mmc_spi/sd_mmc_spi.o
sd_mmc_spi_write_open                             avr32/components/memory/sd_mmc/sd_mmc_spi/sd_mmc_spi.o
                                                  ../avr32/src/filesystem.o
                                                  avr32/components/memory/sd_mmc/sd_mmc_spi/sd_mmc_spi_mem.o
sd_mmc_spi_write_sector_from_ram                  avr32/components/memory/sd_mmc/sd_mmc_spi/sd_mmc_spi.o
                                                  ../avr32/src/filesystem.o
                                                  avr32/components/memory/sd_mmc/sd_mmc_spi/sd_mmc_spi_mem.o
set_enc_thresh                                    ../avr32/src/encoders.o
                                                  ../avr32/apps/bees/src/menu.o
set_page                                          ../avr32/apps/bees/src/menu.o
                                                  ../avr32/apps/bees/src/key_handler.o
set_param_value                                   ../avr32/apps/bees/src/param.o
                                                  ../avr32/apps/bees/src/preset.o
                                                  ../avr32/apps/bees/src/net.o
set_timer                                         ../avr32/src/timers.o
                                                  ../avr32/src/app_timers.o
sigfillset                                        /home/emb/avr32-gnu-toolchain/bin/../lib/gcc/avr32/4.4.3/../../../../avr32/lib/ucr2/libc.a(lib_a-syscalls.o)
sigprocmask                                       /home/emb/avr32-gnu-toolchain/bin/../lib/gcc/avr32/4.4.3/../../../../avr32/lib/ucr2/libc.a(lib_a-syscalls.o)
smc_get_cs_size                                   avr32/drivers/ebi/smc/smc.o
                                                  ../avr32/src/memory.o
smc_init                                          avr32/drivers/ebi/smc/smc.o
                                                  ../avr32/src/main.o
spi_disable                                       avr32/drivers/spi/spi.o
spi_enable                                        avr32/drivers/spi/spi.o
                                                  ../avr32/src/init.o
spi_getStatus                                     avr32/drivers/spi/spi.o
spi_initMaster                                    avr32/drivers/spi/spi.o
                                                  ../avr32/src/init.o
spi_initSlave                                     avr32/drivers/spi/spi.o
spi_initTest                                      avr32/drivers/spi/spi.o
spi_is_enabled                                    avr32/drivers/spi/spi.o
spi_read                                          avr32/drivers/spi/spi.o
                                                  ../avr32/src/bfin.o
                                                  ../avr32/src/adc.o
                                                  avr32/components/memory/sd_mmc/sd_mmc_spi/sd_mmc_spi.o
spi_readRegisterFullCheck                         avr32/drivers/spi/spi.o
spi_selectChip                                    avr32/drivers/spi/spi.o
                                                  ../avr32/src/screen.o
                                                  ../avr32/src/bfin.o
                                                  ../avr32/src/adc.o
                                                  avr32/components/memory/sd_mmc/sd_mmc_spi/sd_mmc_spi.o
spi_selectionMode                                 avr32/drivers/spi/spi.o
                                                  ../avr32/src/init.o
spi_setupChipReg                                  avr32/drivers/spi/spi.o
                                                  ../avr32/src/init.o
                                                  avr32/components/memory/sd_mmc/sd_mmc_spi/sd_mmc_spi.o
spi_unselectChip                                  avr32/drivers/spi/spi.o
                                                  ../avr32/src/screen.o
                                                  ../avr32/src/bfin.o
                                                  ../avr32/src/adc.o
                                                  avr32/components/memory/sd_mmc/sd_mmc_spi/sd_mmc_spi.o
spi_variableSlaveWrite                            avr32/drivers/spi/spi.o
spi_write                                         avr32/drivers/spi/spi.o
                                                  ../avr32/src/screen.o
                                                  ../avr32/src/filesystem.o
                                                  ../avr32/src/bfin.o
                                                  ../avr32/src/adc.o
                                                  avr32/components/memory/sd_mmc/sd_mmc_spi/sd_mmc_spi.o
spi_writeEndCheck                                 avr32/drivers/spi/spi.o
spi_writeRegisterEmptyCheck                       avr32/drivers/spi/spi.o
sram_test                                         ../avr32/src/memory.o
str_copy                                          ../avr32/src/simple_string.o
                                                  ../avr32/apps/bees/src/preset.o
                                                  ../avr32/apps/bees/src/play.o
strcmp                                            /home/emb/avr32-gnu-toolchain/bin/../lib/gcc/avr32/4.4.3/../../../../avr32/lib/ucr2/libc.a(lib_a-strcmp.o)
                                                  ../avr32/src/files.o
strcpy                                            /home/emb/avr32-gnu-toolchain/bin/../lib/gcc/avr32/4.4.3/../../../../avr32/lib/ucr2/libc.a(lib_a-strcpy.o)
                                                  ../avr32/src/files.o
stream_mem_to_mem                                 common/services/storage/ctrl_access/ctrl_access.o
stream_state                                      common/services/storage/ctrl_access/ctrl_access.o
stream_stop                                       common/services/storage/ctrl_access/ctrl_access.o
strlen                                            /home/emb/avr32-gnu-toolchain/bin/../lib/gcc/avr32/4.4.3/../../../../avr32/lib/ucr2/libc.a(lib_a-strlen.o)
                                                  ../avr32/src/fat_io_lib/fat_string.o
                                                  ../avr32/src/fat_io_lib/fat_misc.o
                                                  ../avr32/src/fat_io_lib/fat_format.o
                                                  ../avr32/src/fat_io_lib/fat_filelib.o
strncat                                           /home/emb/avr32-gnu-toolchain/bin/../lib/gcc/avr32/4.4.3/../../../../avr32/lib/ucr2/libc.a(lib_a-strncat.o)
                                                  ../avr32/src/files.o
strncmp                                           /home/emb/avr32-gnu-toolchain/bin/../lib/gcc/avr32/4.4.3/../../../../avr32/lib/ucr2/libc.a(lib_a-strncmp.o)
                                                  ../avr32/apps/bees/src/scene.o
                                                  ../avr32/src/fat_io_lib/fat_access.o
strncpy                                           /home/emb/avr32-gnu-toolchain/bin/../lib/gcc/avr32/4.4.3/../../../../avr32/lib/ucr2/libc.a(lib_a-strncpy.o)
                                                  ../avr32/src/fat_io_lib/fat_access.o
sysclk_disable_pbb_module                         common/services/clock/uc3a0_a1/sysclk.o
sysclk_disable_usb                                common/services/clock/uc3a0_a1/sysclk.o
                                                  avr32/drivers/usbb/usbb_host.o
sysclk_enable_pbb_module                          common/services/clock/uc3a0_a1/sysclk.o
                                                  ../avr32/src/main.o
sysclk_enable_usb                                 common/services/clock/uc3a0_a1/sysclk.o
                                                  avr32/drivers/usbb/usbb_host.o
sysclk_init                                       common/services/clock/uc3a0_a1/sysclk.o
                                                  ../avr32/src/main.o
sysclk_priv_disable_module                        common/services/clock/uc3a0_a1/sysclk.o
sysclk_priv_enable_module                         common/services/clock/uc3a0_a1/sysclk.o
tcOverflow                                        ../avr32/src/interrupts.o
tcTicks                                           ../avr32/src/interrupts.o
tc_configure_interrupts                           avr32/drivers/tc/tc.o
                                                  ../avr32/src/init.o
tc_get_interrupt_settings                         avr32/drivers/tc/tc.o
tc_init_capture                                   avr32/drivers/tc/tc.o
tc_init_waveform                                  avr32/drivers/tc/tc.o
                                                  ../avr32/src/init.o
tc_read_ra                                        avr32/drivers/tc/tc.o
tc_read_rb                                        avr32/drivers/tc/tc.o
tc_read_rc                                        avr32/drivers/tc/tc.o
tc_read_sr                                        avr32/drivers/tc/tc.o
                                                  ../avr32/src/interrupts.o
tc_read_tc                                        avr32/drivers/tc/tc.o
tc_select_external_clock                          avr32/drivers/tc/tc.o
tc_software_trigger                               avr32/drivers/tc/tc.o
tc_start                                          avr32/drivers/tc/tc.o
                                                  ../avr32/src/init.o
tc_stop                                           avr32/drivers/tc/tc.o
tc_sync_start                                     avr32/drivers/tc/tc.o
tc_sync_trigger                                   avr32/drivers/tc/tc.o
tc_write_ra                                       avr32/drivers/tc/tc.o
tc_write_rb                                       avr32/drivers/tc/tc.o
tc_write_rc                                       avr32/drivers/tc/tc.o
                                                  ../avr32/src/init.o
uhc_dev_get_power                                 common/services/usb/uhc/uhc.o
uhc_dev_get_speed                                 common/services/usb/uhc/uhc.o
uhc_dev_get_string                                common/services/usb/uhc/uhc.o
uhc_dev_get_string_manufacturer                   common/services/usb/uhc/uhc.o
uhc_dev_get_string_product                        common/services/usb/uhc/uhc.o
uhc_dev_get_string_serial                         common/services/usb/uhc/uhc.o
uhc_dev_is_high_speed_support                     common/services/usb/uhc/uhc.o
uhc_get_device_number                             common/services/usb/uhc/uhc.o
uhc_is_suspend                                    common/services/usb/uhc/uhc.o
uhc_notify_connection                             common/services/usb/uhc/uhc.o
                                                  avr32/drivers/usbb/usbb_host.o
uhc_notify_resume                                 common/services/usb/uhc/uhc.o
                                                  avr32/drivers/usbb/usbb_host.o
uhc_notify_sof                                    common/services/usb/uhc/uhc.o
                                                  avr32/drivers/usbb/usbb_host.o
uhc_resume                                        common/services/usb/uhc/uhc.o
uhc_sof_timeout                                   common/services/usb/uhc/uhc.o
uhc_start                                         common/services/usb/uhc/uhc.o
                                                  ../avr32/src/init.o
                                                  avr32/drivers/usbb/usbb_host.o
uhc_stop                                          common/services/usb/uhc/uhc.o
                                                  avr32/drivers/usbb/usbb_host.o
uhc_suspend                                       common/services/usb/uhc/uhc.o
uhd_ctrl_nb_trans                                 avr32/drivers/usbb/usbb_host.o
uhd_ctrl_request_first                            avr32/drivers/usbb/usbb_host.o
uhd_ctrl_request_last                             avr32/drivers/usbb/usbb_host.o
uhd_ctrl_request_phase                            avr32/drivers/usbb/usbb_host.o
uhd_ctrl_request_timeout                          avr32/drivers/usbb/usbb_host.o
uhd_disable                                       avr32/drivers/usbb/usbb_host.o
                                                  common/services/usb/uhc/uhc.o
uhd_enable                                        avr32/drivers/usbb/usbb_host.o
                                                  common/services/usb/uhc/uhc.o
uhd_ep0_alloc                                     avr32/drivers/usbb/usbb_host.o
                                                  common/services/usb/uhc/uhc.o
uhd_ep_abort                                      avr32/drivers/usbb/usbb_host.o
uhd_ep_alloc                                      avr32/drivers/usbb/usbb_host.o
                                                  ../avr32/src/usb/gamepad/uhi_hid_gamepad.o
                                                  ../avr32/src/usb/mouse/uhi_hid_mouse.o
uhd_ep_free                                       avr32/drivers/usbb/usbb_host.o
                                                  common/services/usb/uhc/uhc.o
uhd_ep_run                                        avr32/drivers/usbb/usbb_host.o
                                                  ../avr32/src/usb/gamepad/uhi_hid_gamepad.o
                                                  ../avr32/src/usb/mouse/uhi_hid_mouse.o
uhd_get_frame_number                              avr32/drivers/usbb/usbb_host.o
uhd_get_microframe_number                         avr32/drivers/usbb/usbb_host.o
uhd_get_speed                                     avr32/drivers/usbb/usbb_host.o
                                                  common/services/usb/uhc/uhc.o
uhd_is_suspend                                    avr32/drivers/usbb/usbb_host.o
                                                  common/services/usb/uhc/uhc.o
uhd_resume                                        avr32/drivers/usbb/usbb_host.o
                                                  common/services/usb/uhc/uhc.o
uhd_send_reset                                    avr32/drivers/usbb/usbb_host.o
                                                  common/services/usb/uhc/uhc.o
uhd_setup_request                                 avr32/drivers/usbb/usbb_host.o
                                                  common/services/usb/uhc/uhc.o
uhd_suspend                                       avr32/drivers/usbb/usbb_host.o
                                                  common/services/usb/uhc/uhc.o
uhi_hid_gamepad_enable                            ../avr32/src/usb/gamepad/uhi_hid_gamepad.o
                                                  common/services/usb/uhc/uhc.o
uhi_hid_gamepad_install                           ../avr32/src/usb/gamepad/uhi_hid_gamepad.o
                                                  common/services/usb/uhc/uhc.o
uhi_hid_gamepad_uninstall                         ../avr32/src/usb/gamepad/uhi_hid_gamepad.o
                                                  common/services/usb/uhc/uhc.o
uhi_hid_mouse_enable                              ../avr32/src/usb/mouse/uhi_hid_mouse.o
                                                  common/services/usb/uhc/uhc.o
uhi_hid_mouse_install                             ../avr32/src/usb/mouse/uhi_hid_mouse.o
                                                  common/services/usb/uhc/uhc.o
uhi_hid_mouse_uninstall                           ../avr32/src/usb/mouse/uhi_hid_mouse.o
                                                  common/services/usb/uhc/uhc.o
usart_get_echo_line                               avr32/drivers/usart/usart.o
usart_getchar                                     avr32/drivers/usart/usart.o
usart_init_IrDA                                   avr32/drivers/usart/usart.o
usart_init_hw_handshaking                         avr32/drivers/usart/usart.o
usart_init_iso7816                                avr32/drivers/usart/usart.o
usart_init_lin_master                             avr32/drivers/usart/usart.o
usart_init_lin_slave                              avr32/drivers/usart/usart.o
usart_init_modem                                  avr32/drivers/usart/usart.o
usart_init_rs232                                  avr32/drivers/usart/usart.o
                                                  ../avr32/src/init.o
                                                  avr32/utils/debug/print_funcs.o
usart_init_rs232_tx_only                          avr32/drivers/usart/usart.o
usart_init_rs485                                  avr32/drivers/usart/usart.o
usart_init_spi_master                             avr32/drivers/usart/usart.o
usart_init_spi_slave                              avr32/drivers/usart/usart.o
usart_init_sync_master                            avr32/drivers/usart/usart.o
usart_init_sync_slave                             avr32/drivers/usart/usart.o
usart_putchar                                     avr32/drivers/usart/usart.o
                                                  avr32/utils/debug/print_funcs.o
usart_read_char                                   avr32/drivers/usart/usart.o
usart_reset                                       avr32/drivers/usart/usart.o
usart_send_address                                avr32/drivers/usart/usart.o
usart_spi_selectChip                              avr32/drivers/usart/usart.o
usart_spi_unselectChip                            avr32/drivers/usart/usart.o
usart_write_char                                  avr32/drivers/usart/usart.o
usart_write_line                                  avr32/drivers/usart/usart.o
                                                  avr32/utils/debug/print_funcs.o
usb_connection                                    ../avr32/src/usb.o
                                                  common/services/usb/uhc/uhc.o
usb_enum                                          ../avr32/src/usb.o
                                                  common/services/usb/uhc/uhc.o
usb_mode_change                                   ../avr32/src/usb.o
                                                  avr32/drivers/usbb/usbb_host.o
usb_sof                                           ../avr32/src/usb.o
                                                  avr32/drivers/usbb/usbb_host.o
usb_vbus_change                                   ../avr32/src/usb.o
                                                  avr32/drivers/usbb/usbb_host.o
usb_vbus_error                                    ../avr32/src/usb.o
                                                  avr32/drivers/usbb/usbb_host.o
usb_wakeup                                        ../avr32/src/usb.o
                                                  common/services/usb/uhc/uhc.o
userOpTypes                                       ../avr32/apps/bees/src/menu.o
                                                  ../avr32/apps/bees/src/redraw.o
                                                  ../avr32/apps/bees/src/key_handler.o
